 mysqld-nt

 Timestamp is 4f50deb9 (Fri Mar 02 15:52:41 2012)

 Preferred load address is 0000000140000000

 Start         Length     Name                   Class
 0001:00000000 00440e9cH .text                   CODE
 0001:00440ea0 00001026H .text$0                 CODE
 0001:00441ed0 000010a0H .text$00                CODE
 0001:00442f70 0000444aH .text$yc                CODE
 0001:004473c0 000034edH .text$yd                CODE
 0002:00000000 00000109H .CRT$XCA                DATA
 0002:00000110 00000a5cH .CRT$XCU                DATA
 0002:00000b70 00000109H .CRT$XCZ                DATA
 0002:00000c80 00000109H .CRT$XIA                DATA
 0002:00000d90 00000126H .CRT$XIC                DATA
 0002:00000eb8 00000109H .CRT$XIY                DATA
 0002:00000fc8 00000109H .CRT$XIZ                DATA
 0002:000010d8 00000008H .CRT$XLA                DATA
 0002:000010e0 00000008H .CRT$XLZ                DATA
 0002:000010e8 00000109H .CRT$XPA                DATA
 0002:000011f8 00000109H .CRT$XPX                DATA
 0002:00001308 00000109H .CRT$XPXA               DATA
 0002:00001418 00000109H .CRT$XPZ                DATA
 0002:00001528 00000109H .CRT$XTA                DATA
 0002:00001638 00000109H .CRT$XTZ                DATA
 0002:00001750 00100bc6H .rdata                  DATA
 0002:00102318 00000130H .rdata$T                DATA
 0002:00102448 00000188H .rdata$debug            DATA
 0002:001025d0 0001bf7dH .rdata$r                DATA
 0002:0011e550 00000109H .rtc$IAA                DATA
 0002:0011e660 00000109H .rtc$IZZ                DATA
 0002:0011e770 00000109H .rtc$TAA                DATA
 0002:0011e880 00000109H .rtc$TZZ                DATA
 0002:0011e990 0004b2a2H .xdata                  DATA
 0002:00169c38 0000019eH .xdata$x                DATA
 0002:00169dd6 00000000H .edata                  DATA
 0003:00000000 001746a7H .data                   DATA
 0003:001746c0 0001d860H .bss                    DATA
 0004:00000000 0002e9b0H .pdata                  DATA
 0005:00000000 00000050H .idata$2                DATA
 0005:00000050 00000014H .idata$3                DATA
 0005:00000068 000009d0H .idata$4                DATA
 0005:00000a38 000009d0H .idata$5                DATA
 0005:00001408 0000111aH .idata$6                DATA
 0006:00000000 00000101H .tls                    DATA
 0006:00000110 00000209H .tls$                   DATA
 0006:00000319 00000101H .tls$ZZZ                DATA
 0007:00000000 00000169H .rsrc$01                DATA
 0007:00000170 000001dcH .rsrc$02                DATA

  Address         Publics by Value              Rva+Base               Lib:Object

 0000:00000000       ___safe_se_handler_table   0000000000000000     <absolute>
 0000:00000000       ___safe_se_handler_count   0000000000000000     <absolute>
 0000:00000000       __ImageBase                0000000140000000     <linker-defined>
 0001:00017810       my_connect                 0000000140018810 f   client.obj
 0001:00017820       create_named_pipe          0000000140018820 f   client.obj
 0001:00017a80       free_rows                  0000000140018a80 f   client.obj
 0001:00017ac0       free_old_query             0000000140018ac0 f   client.obj
 0001:00017b30       set_mysql_error            0000000140018b30 f   client.obj
 0001:00017c90       end_server                 0000000140018c90 f   client.obj
 0001:00017d00       mysql_free_result          0000000140018d00 f   client.obj
 0001:00017e90       mysql_read_default_options 0000000140018e90 f   client.obj
 0001:000184d0       unpack_fields              00000001400194d0 f   client.obj
 0001:000189c0       mysql_init                 00000001400199c0 f   client.obj
 0001:00018ab0       mysql_ssl_set              0000000140019ab0 f   client.obj
 0001:00018ca0       mysql_get_ssl_cipher       0000000140019ca0 f   client.obj
 0001:00018e00       mysql_init_character_set   0000000140019e00 f   client.obj
 0001:00019120       mysql_select_db            000000014001a120 f   client.obj
 0001:000193a0       mysql_detach_stmt_list     000000014001a3a0 f   client.obj
 0001:000193b0       mysql_close                000000014001a3b0 f   client.obj
 0001:000194c0       mysql_send_query           000000014001a4c0 f   client.obj
 0001:00019510       mysql_real_query           000000014001a510 f   client.obj
 0001:00019550       mysql_store_result         000000014001a550 f   client.obj
 0001:000198c0       mysql_fetch_lengths        000000014001a8c0 f   client.obj
 0001:00019910       mysql_options              000000014001a910 f   client.obj
 0001:00019cb0       mysql_num_rows             000000014001acb0 f   client.obj
 0001:00019cc0       mysql_num_fields           000000014001acc0 f   client.obj
 0001:00019cd0       mysql_errno                000000014001acd0 f   client.obj
 0001:00019cf0       mysql_error                000000014001acf0 f   client.obj
 0001:00019d10       mysql_get_server_version   000000014001ad10 f   client.obj
 0001:00019da0       mysql_set_character_set    000000014001ada0 f   client.obj
 0001:00019f70       cli_safe_read              000000014001af70 f   client.obj
 0001:0001a150       cli_read_rows              000000014001b150 f   client.obj
 0001:0001a650       mysql_real_connect         000000014001b650 f   client.obj
 0001:0001b890       mysql_reconnect            000000014001c890 f   client.obj
 0001:0001be30       mysql_fetch_row            000000014001ce30 f   client.obj
 0001:0001bf40       cli_advanced_command       000000014001cf40 f   client.obj
 0001:0001c1f0       ??_H@YAXPEAX_KHP6APEAX0@Z@Z 000000014001d1f0 f i derror.obj
 0001:0001c250       ??_I@YAXPEAX_KHP6AX0@Z@Z   000000014001d250 f i derror.obj
 0001:0001c720       ?init_errmessage@@YA_NXZ   000000014001d720 f   derror.obj
 0001:0001c7d0       ?load_des_key_file@@YA_NPEBD@Z 000000014001d7d0 f   des_key_file.obj
 0001:0001cb20       ?readfrm@@YAHPEBDPEAPEBXPEAI@Z 000000014001db20 f   discover.obj
 0001:0001cc80       ?writefrm@@YAHPEBDPEBXI@Z  000000014001dc80 f   discover.obj
 0001:0001cd60       init_client_errs           000000014001dd60 f   errmsg.obj
 0001:0001cd80       finish_client_errs         000000014001dd80 f   errmsg.obj
 0001:0001cd90       ?double2ulonglong@@YA_KN@Z 000000014001dd90 f i field.obj
 0001:0001cf60       ?length@?$Bitmap@$0EA@@@QEBAIXZ 000000014001df60 f i field.obj
 0001:0001cf70       ?set_all@?$Bitmap@$0EA@@@QEAAXXZ 000000014001df70 f i field.obj
 0001:0001cf80       ?_current_thd@@YAPEAVTHD@@XZ 000000014001df80 f i field.obj
 0001:0001cfb0       ??0String@@QEAA@XZ         000000014001dfb0 f i field.obj
 0001:0001cfe0       ??0String@@QEAA@PEBDKPEAUcharset_info_st@@@Z 000000014001dfe0 f i field.obj
 0001:0001d000       ??0String@@QEAA@PEADKPEAUcharset_info_st@@@Z 000000014001e000 f i field.obj
 0001:0001d020       ?set_charset@String@@QEAAXPEAUcharset_info_st@@@Z 000000014001e020 f i field.obj
 0001:0001d030       ?charset@String@@QEBAPEAUcharset_info_st@@XZ 000000014001e030 f i field.obj
 0001:0001d040       ?length@String@@QEBAKXZ    000000014001e040 f i field.obj
 0001:0001d050       ?alloced_length@String@@QEBAKXZ 000000014001e050 f i field.obj
 0001:0001d060       ?length@String@@QEAAXK@Z   000000014001e060 f i field.obj
 0001:0001d070       ?ptr@String@@QEBAPEBDXZ    000000014001e070 f i field.obj
 0001:0001d080       ?c_ptr@String@@QEAAPEADXZ  000000014001e080 f i field.obj
 0001:0001d0d0       ?c_ptr_quick@String@@QEAAPEADXZ 000000014001e0d0 f i field.obj
 0001:0001d100       ?free@String@@QEAAXXZ      000000014001e100 f i field.obj
 0001:0001d150       ?alloc@String@@QEAA_NK@Z   000000014001e150 f i field.obj
 0001:0001d160       ?append@String@@QEAA_ND@Z  000000014001e160 f i field.obj
 0001:0001d230       ??2Sql_alloc@@SAPEAX_K@Z   000000014001e230 f i field.obj
 0001:0001d240       ??0Sql_alloc@@QEAA@XZ      000000014001e240 f i field.obj
 0001:0001d250       ??1Sql_alloc@@QEAA@XZ      000000014001e250 f i field.obj
 0001:0001d260       ??0list_node@@QEAA@PEAXPEAU0@@Z 000000014001e260 f i field.obj
 0001:0001d270       ?empty@base_list@@QEAAXXZ  000000014001e270 f i field.obj
 0001:0001d290       ??0base_list@@QEAA@XZ      000000014001e290 f i field.obj
 0001:0001d2b0       ?push_back@base_list@@QEAA_NPEAX@Z 000000014001e2b0 f i field.obj
 0001:0001d340       ?init@base_list_iterator@@QEAAXAEAVbase_list@@@Z 000000014001e340 f i field.obj
 0001:0001d360       ?next@base_list_iterator@@QEAAPEAXXZ 000000014001e360 f i field.obj
 0001:0001d380       ?init@my_decimal@@QEAAXXZ  000000014001e380 f i field.obj
 0001:0001d3a0       ??0my_decimal@@QEAA@XZ     000000014001e3a0 f i field.obj
 0001:0001d3c0       ?sanity_check@my_decimal@@QEAAXXZ 000000014001e3c0 f i field.obj
 0001:0001d3d0       ?fix_buffer_pointer@my_decimal@@QEAAXXZ 000000014001e3d0 f i field.obj
 0001:0001d3e0       ?sign@my_decimal@@QEBA_NXZ 000000014001e3e0 f i field.obj
 0001:0001d3f0       ?sign@my_decimal@@QEAAX_N@Z 000000014001e3f0 f i field.obj
 0001:0001d400       ?max_my_decimal@@YAXPEAVmy_decimal@@HH@Z 000000014001e400 f i field.obj
 0001:0001d420       ?max_internal_decimal@@YAXPEAVmy_decimal@@@Z 000000014001e420 f i field.obj
 0001:0001d430       ?check_result@@YAHIH@Z     000000014001e430 f i field.obj
 0001:0001d460       ?check_result_and_overflow@@YAHIHPEAVmy_decimal@@@Z 000000014001e460 f i field.obj
 0001:0001d4d0       ?my_decimal_length_to_precision@@YAIII_N@Z 000000014001e4d0 f i field.obj
 0001:0001d500       ?my_decimal_precision_to_length@@YAKIE_N@Z 000000014001e500 f i field.obj
 0001:0001d540       ?my_decimal_get_binary_size@@YAHII@Z 000000014001e540 f i field.obj
 0001:0001d550       ?binary2my_decimal@@YAHIPEBDPEAVmy_decimal@@HH@Z 000000014001e550 f i field.obj
 0001:0001d5b0       ?my_decimal_set_zero@@YAHPEAVmy_decimal@@@Z 000000014001e5b0 f i field.obj
 0001:0001d5d0       ?my_decimal2double@@YAHIPEBVmy_decimal@@PEAN@Z 000000014001e5d0 f i field.obj
 0001:0001d5e0       ?double2my_decimal@@YAHINPEAVmy_decimal@@@Z 000000014001e5e0 f i field.obj
 0001:0001d660       ?int2my_decimal@@YAHI_JDPEAVmy_decimal@@@Z 000000014001e660 f i field.obj
 0001:0001d6b0       ?my_decimal_trim@@YAXPEAKPEAI@Z 000000014001e6b0 f i field.obj
 0001:0001d6d0       ?get_enum_pack_length@@YAIH@Z 000000014001e6d0 f i field.obj
 0001:0001d6f0       ?get_set_pack_length@@YAIH@Z 000000014001e6f0 f i field.obj
 0001:0001d710       ??2Field@@SAPEAX_K@Z       000000014001e710 f i field.obj
 0001:0001d720       ??1Field@@UEAA@XZ          000000014001e720 f i field.obj
 0001:0001d730       ??3Field@@SAXPEAX_K@Z      000000014001e730 f i field.obj
 0001:0001d740       ?val_str@Field@@QEAAPEAVString@@PEAV2@@Z 000000014001e740 f i field.obj
 0001:0001d750       ?cmp_type@Field@@UEBA?AW4Item_result@@XZ 000000014001e750 f i field.obj
 0001:0001d760       ?cast_to_int_type@Field@@UEBA?AW4Item_result@@XZ 000000014001e760 f i field.obj
 0001:0001d770       ?eq@Field@@UEAA_NPEAV1@@Z  000000014001e770 f i field.obj
 0001:0001d7f0       ?pack_length@Field@@UEBAKXZ 000000014001e7f0 f i field.obj
 0001:0001d800       ?pack_length_in_rec@Field@@UEBAKXZ 000000014001e800 f i field.obj
 0001:0001d810       ?data_length@Field@@UEAAKPEBD@Z 000000014001e810 f i field.obj
 0001:0001d820       ?sort_length@Field@@UEBAKXZ 000000014001e820 f i field.obj
 0001:0001d830       ?reset@Field@@UEAAHXZ      000000014001e830 f i field.obj
 0001:0001d860       ?reset_fields@Field@@UEAAXXZ 000000014001e860 f i field.obj
 0001:0001d870       ?set_default@Field@@UEAAXXZ 000000014001e870 f i field.obj
 0001:0001d900       ?binary@Field@@UEBA_NXZ    000000014001e900 f i field.obj
 0001:0001d910       ?zero_pack@Field@@UEBA_NXZ 000000014001e910 f i field.obj
 0001:0001d920       ?key_type@Field@@UEBA?AW4ha_base_keytype@@XZ 000000014001e920 f i field.obj
 0001:0001d930       ?key_length@Field@@UEBAKXZ 000000014001e930 f i field.obj
 0001:0001d940       ?real_type@Field@@UEBA?AW4enum_field_types@@XZ 000000014001e940 f i field.obj
 0001:0001d950       ?cmp_binary@Field@@UEAAHPEBD0K@Z 000000014001e950 f i field.obj
 0001:0001d990       ?cmp_offset@Field@@UEAAHI@Z 000000014001e990 f i field.obj
 0001:0001d9b0       ?cmp_binary_offset@Field@@UEAAHI@Z 000000014001e9b0 f i field.obj
 0001:0001d9e0       ?key_cmp@Field@@UEAAHPEBE0@Z 000000014001e9e0 f i field.obj
 0001:0001d9f0       ?key_cmp@Field@@UEAAHPEBEI@Z 000000014001e9f0 f i field.obj
 0001:0001da10       ?decimals@Field@@UEBAIXZ   000000014001ea10 f i field.obj
 0001:0001da20       ?is_real_null@Field@@QEAA_NI@Z 000000014001ea20 f i field.obj
 0001:0001da50       ?set_null@Field@@QEAAXH@Z  000000014001ea50 f i field.obj
 0001:0001da70       ?set_notnull@Field@@QEAAXH@Z 000000014001ea70 f i field.obj
 0001:0001daa0       ?maybe_null@Field@@QEAA_NXZ 000000014001eaa0 f i field.obj
 0001:0001dac0       ?can_be_compared_as_longlong@Field@@UEBA_NXZ 000000014001eac0 f i field.obj
 0001:0001dad0       ?free@Field@@UEAAXXZ       000000014001ead0 f i field.obj
 0001:0001dae0       ?move_field@Field@@UEAAX_J@Z 000000014001eae0 f i field.obj
 0001:0001db00       ?get_image@Field@@UEAAXPEADIPEAUcharset_info_st@@@Z 000000014001eb00 f i field.obj
 0001:0001db20       ?set_image@Field@@UEAAXPEADIPEAUcharset_info_st@@@Z 000000014001eb20 f i field.obj
 0001:0001db30       ?get_key_image@Field@@UEAAIPEADIW4imagetype@1@@Z 000000014001eb30 f i field.obj
 0001:0001db60       ?set_key_image@Field@@UEAAXPEADI@Z 000000014001eb60 f i field.obj
 0001:0001db80       ?pack@Field@@UEAAPEADPEADPEBDI@Z 000000014001eb80 f i field.obj
 0001:0001dbd0       ?unpack@Field@@UEAAPEBDPEADPEBD@Z 000000014001ebd0 f i field.obj
 0001:0001dc20       ?pack_key@Field@@UEAAPEADPEADPEBDI@Z 000000014001ec20 f i field.obj
 0001:0001dc30       ?pack_key_from_key_image@Field@@UEAAPEADPEADPEBDI@Z 000000014001ec30 f i field.obj
 0001:0001dc40       ?unpack_key@Field@@UEAAPEBDPEADPEBDI@Z 000000014001ec40 f i field.obj
 0001:0001dc50       ?packed_col_length@Field@@UEAAIPEBDI@Z 000000014001ec50 f i field.obj
 0001:0001dc60       ?max_packed_col_length@Field@@UEAAII@Z 000000014001ec60 f i field.obj
 0001:0001dc70       ?pack_cmp@Field@@UEAAHPEBD0ID@Z 000000014001ec70 f i field.obj
 0001:0001dc80       ?pack_cmp@Field@@UEAAHPEBDID@Z 000000014001ec80 f i field.obj
 0001:0001dca0       ?charset@Field@@UEBAPEAUcharset_info_st@@XZ 000000014001eca0 f i field.obj
 0001:0001dcb0       ?sort_charset@Field@@UEBAPEAUcharset_info_st@@XZ 000000014001ecb0 f i field.obj
 0001:0001dcc0       ?has_charset@Field@@UEBA_NXZ 000000014001ecc0 f i field.obj
 0001:0001dcd0       ?set_charset@Field@@UEAAXPEAUcharset_info_st@@@Z 000000014001ecd0 f i field.obj
 0001:0001dce0       ?derivation@Field@@UEBA?AW4Derivation@@XZ 000000014001ece0 f i field.obj
 0001:0001dcf0       ?set_derivation@Field@@UEAAXW4Derivation@@@Z 000000014001ecf0 f i field.obj
 0001:0001dd00       ?check_overflow@Field@@QEAA_NH@Z 000000014001ed00 f i field.obj
 0001:0001dd10       ?get_geometry_type@Field@@UEAA?AW4geometry_type@1@XZ 000000014001ed10 f i field.obj
 0001:0001dd20       ??_GField@@UEAAPEAXI@Z     000000014001ed20 f i field.obj
 0001:0001dd20       ??_EField@@UEAAPEAXI@Z     000000014001ed20 f i field.obj
 0001:0001dd40       ??1Field_str@@UEAA@XZ      000000014001ed40 f i field.obj
 0001:0001dd50       ??1Field_longstr@@UEAA@XZ  000000014001ed50 f i field.obj
 0001:0001dd60       ??1Field_num@@UEAA@XZ      000000014001ed60 f i field.obj
 0001:0001dd70       ??1Field_real@@UEAA@XZ     000000014001ed70 f i field.obj
 0001:0001dd80       ??1Field_tiny@@UEAA@XZ     000000014001ed80 f i field.obj
 0001:0001dd90       ?pack_length@Field_blob@@UEBAKXZ 000000014001ed90 f i field.obj
 0001:0001ddb0       ?max_data_length@Field_blob@@QEBAKXZ 000000014001edb0 f i field.obj
 0001:0001ddd0       ?get_ptr@Field_blob@@QEAAXPEAPEAD@Z 000000014001edd0 f i field.obj
 0001:0001ddf0       ??1Field_enum@@UEAA@XZ     000000014001edf0 f i field.obj
 0001:0001de00       ??1base_list@@QEAA@XZ      000000014001ee00 f i field.obj
 0001:0001de10       ?set@DTCollation@@QEAAXPEAUcharset_info_st@@W4Derivation@@I@Z 000000014001ee10 f i field.obj
 0001:0001de20       ??2Item@@SAPEAX_K@Z        000000014001ee20 f i field.obj
 0001:0001de30       ??0MBR@@QEAA@XZ            000000014001ee30 f i field.obj
 0001:0001de60       ?query_start@THD@@QEAA_JXZ 000000014001ee60 f i field.obj
 0001:0001de80       ?really_abort_on_warning@THD@@QEAA_NXZ 000000014001ee80 f i field.obj
 0001:0001deb0       ?field_type2index@@YAHW4enum_field_types@@@Z 000000014001eeb0 f i field.obj
 0001:0001ded0       ?field_type_merge@Field@@SA?AW4enum_field_types@@W42@0@Z 000000014001eed0 f   field.obj
 0001:0001df70       ?result_merge_type@Field@@SA?AW4Item_result@@W4enum_field_types@@@Z 000000014001ef70 f   field.obj
 0001:0001df90       ?type_can_have_key_part@Field@@SA_NW4enum_field_types@@@Z 000000014001ef90 f   field.obj
 0001:0001dfc0       ?prepend_zeros@Field_num@@QEAAXPEAVString@@@Z 000000014001efc0 f   field.obj
 0001:0001e050       ?val_int_as_str@Field@@QEAAPEAVString@@PEAV2@D@Z 000000014001f050 f   field.obj
 0001:0001e110       ?offset@Field@@QEAAIXZ     000000014001f110 f   field.obj
 0001:0001e120       ?copy_from_tmp@Field@@QEAAXH@Z 000000014001f120 f   field.obj
 0001:0001e1a0       ?val_decimal@Field@@UEAAPEAVmy_decimal@@PEAV2@@Z 000000014001f1a0 f   field.obj
 0001:0001e1b0       ?add_zerofill_and_unsigned@Field_num@@QEBAXAEAVString@@@Z 000000014001f1b0 f   field.obj
 0001:0001e220       ?make_field@Field@@UEAAXPEAVSend_field@@@Z 000000014001f220 f   field.obj
 0001:0001e340       ?val_decimal@Field_num@@UEAAPEAVmy_decimal@@PEAV2@@Z 000000014001f340 f   field.obj
 0001:0001e3a0       ?make_field@Field_num@@UEAAXPEAVSend_field@@@Z 000000014001f3a0 f   field.obj
 0001:0001e3e0       ?val_decimal@Field_str@@UEAAPEAVmy_decimal@@PEAV2@@Z 000000014001f3e0 f   field.obj
 0001:0001e420       ?fill_cache_field@Field@@QEAAIPEAUst_cache_field@@@Z 000000014001f420 f   field.obj
 0001:0001e500       ?store_time@Field@@UEAAHPEAUst_mysql_time@@W4enum_mysql_timestamp_type@@@Z 000000014001f500 f   field.obj
 0001:0001e570       ?optimize_range@Field@@UEAA_NII@Z 000000014001f570 f   field.obj
 0001:0001e5a0       ?new_key_field@Field@@UEAAPEAV1@PEAUst_mem_root@@PEAUst_table@@PEADPEAEI@Z 000000014001f5a0 f   field.obj
 0001:0001e5f0       ?sql_type@Field_null@@UEBAXAEAVString@@@Z 000000014001f5f0 f   field.obj
 0001:0001e610       ?val_real@Field_decimal@@UEAANXZ 000000014001f610 f   field.obj
 0001:0001e660       ?val_int@Field_decimal@@UEAA_JXZ 000000014001f660 f   field.obj
 0001:0001e6d0       ?val_str@Field_decimal@@UEAAPEAVString@@PEAV2@0@Z 000000014001f6d0 f   field.obj
 0001:0001e740       ?cmp@Field_decimal@@UEAAHPEBD0@Z 000000014001f740 f   field.obj
 0001:0001e880       ?sort_string@Field_decimal@@UEAAXPEADI@Z 000000014001f880 f   field.obj
 0001:0001e950       ?sql_type@Field_decimal@@UEBAXAEAVString@@@Z 000000014001f950 f   field.obj
 0001:0001e9e0       ?set_value_on_overflow@Field_new_decimal@@QEAAXPEAVmy_decimal@@_N@Z 000000014001f9e0 f   field.obj
 0001:0001ea80       ?val_decimal@Field_new_decimal@@UEAAPEAVmy_decimal@@PEAV2@@Z 000000014001fa80 f   field.obj
 0001:0001eac0       ?cmp@Field_new_decimal@@UEAAHPEBD0@Z 000000014001fac0 f   field.obj
 0001:0001eae0       ?sort_string@Field_new_decimal@@UEAAXPEADI@Z 000000014001fae0 f   field.obj
 0001:0001eb00       ?sql_type@Field_new_decimal@@UEBAXAEAVString@@@Z 000000014001fb00 f   field.obj
 0001:0001eb70       ?val_real@Field_tiny@@UEAANXZ 000000014001fb70 f   field.obj
 0001:0001eb90       ?val_int@Field_tiny@@UEAA_JXZ 000000014001fb90 f   field.obj
 0001:0001ebb0       ?val_str@Field_tiny@@UEAAPEAVString@@PEAV2@0@Z 000000014001fbb0 f   field.obj
 0001:0001ec70       ?send_binary@Field_tiny@@UEAA_NPEAVProtocol@@@Z 000000014001fc70 f   field.obj
 0001:0001ec90       ?cmp@Field_tiny@@UEAAHPEBD0@Z 000000014001fc90 f   field.obj
 0001:0001ecd0       ?sort_string@Field_tiny@@UEAAXPEADI@Z 000000014001fcd0 f   field.obj
 0001:0001ecf0       ?sql_type@Field_tiny@@UEBAXAEAVString@@@Z 000000014001fcf0 f   field.obj
 0001:0001ed50       ?val_real@Field_short@@UEAANXZ 000000014001fd50 f   field.obj
 0001:0001ed70       ?val_int@Field_short@@UEAA_JXZ 000000014001fd70 f   field.obj
 0001:0001ed90       ?val_str@Field_short@@UEAAPEAVString@@PEAV2@0@Z 000000014001fd90 f   field.obj
 0001:0001ee60       ?send_binary@Field_short@@UEAA_NPEAVProtocol@@@Z 000000014001fe60 f   field.obj
 0001:0001ee90       ?cmp@Field_short@@UEAAHPEBD0@Z 000000014001fe90 f   field.obj
 0001:0001eed0       ?sort_string@Field_short@@UEAAXPEADI@Z 000000014001fed0 f   field.obj
 0001:0001ef10       ?sql_type@Field_short@@UEBAXAEAVString@@@Z 000000014001ff10 f   field.obj
 0001:0001ef70       ?val_real@Field_medium@@UEAANXZ 000000014001ff70 f   field.obj
 0001:0001efe0       ?val_int@Field_medium@@UEAA_JXZ 000000014001ffe0 f   field.obj
 0001:0001f040       ?val_str@Field_medium@@UEAAPEAVString@@PEAV2@0@Z 0000000140020040 f   field.obj
 0001:0001f140       ?send_binary@Field_medium@@UEAA_NPEAVProtocol@@@Z 0000000140020140 f   field.obj
 0001:0001f170       ?cmp@Field_medium@@UEAAHPEBD0@Z 0000000140020170 f   field.obj
 0001:0001f230       ?sort_string@Field_medium@@UEAAXPEADI@Z 0000000140020230 f   field.obj
 0001:0001f290       ?sql_type@Field_medium@@UEBAXAEAVString@@@Z 0000000140020290 f   field.obj
 0001:0001f2f0       ?val_real@Field_long@@UEAANXZ 00000001400202f0 f   field.obj
 0001:0001f310       ?val_int@Field_long@@UEAA_JXZ 0000000140020310 f   field.obj
 0001:0001f330       ?val_str@Field_long@@UEAAPEAVString@@PEAV2@0@Z 0000000140020330 f   field.obj
 0001:0001f3f0       ?send_binary@Field_long@@UEAA_NPEAVProtocol@@@Z 00000001400203f0 f   field.obj
 0001:0001f420       ?cmp@Field_long@@UEAAHPEBD0@Z 0000000140020420 f   field.obj
 0001:0001f460       ?sort_string@Field_long@@UEAAXPEADI@Z 0000000140020460 f   field.obj
 0001:0001f4c0       ?sql_type@Field_long@@UEBAXAEAVString@@@Z 00000001400204c0 f   field.obj
 0001:0001f520       ?val_real@Field_longlong@@UEAANXZ 0000000140020520 f   field.obj
 0001:0001f550       ?val_int@Field_longlong@@UEAA_JXZ 0000000140020550 f   field.obj
 0001:0001f560       ?val_str@Field_longlong@@UEAAPEAVString@@PEAV2@0@Z 0000000140020560 f   field.obj
 0001:0001f620       ?send_binary@Field_longlong@@UEAA_NPEAVProtocol@@@Z 0000000140020620 f   field.obj
 0001:0001f650       ?cmp@Field_longlong@@UEAAHPEBD0@Z 0000000140020650 f   field.obj
 0001:0001f690       ?sort_string@Field_longlong@@UEAAXPEADI@Z 0000000140020690 f   field.obj
 0001:0001f720       ?sql_type@Field_longlong@@UEBAXAEAVString@@@Z 0000000140020720 f   field.obj
 0001:0001f780       ?store@Field_float@@UEAAH_J_N@Z 0000000140020780 f   field.obj
 0001:0001f7b0       ?val_real@Field_float@@UEAANXZ 00000001400207b0 f   field.obj
 0001:0001f7d0       ?val_int@Field_float@@UEAA_JXZ 00000001400207d0 f   field.obj
 0001:0001f800       ?val_str@Field_float@@UEAAPEAVString@@PEAV2@0@Z 0000000140020800 f   field.obj
 0001:0001f900       ?cmp@Field_float@@UEAAHPEBD0@Z 0000000140020900 f   field.obj
 0001:0001f940       ?sort_string@Field_float@@UEAAXPEADI@Z 0000000140020940 f   field.obj
 0001:0001fa10       ?send_binary@Field_float@@UEAA_NPEAVProtocol@@@Z 0000000140020a10 f   field.obj
 0001:0001fa40       ?sql_type@Field_float@@UEBAXAEAVString@@@Z 0000000140020a40 f   field.obj
 0001:0001fad0       ?store@Field_double@@UEAAH_J_N@Z 0000000140020ad0 f   field.obj
 0001:0001fb00       ?store_decimal@Field_real@@UEAAHPEBVmy_decimal@@@Z 0000000140020b00 f   field.obj
 0001:0001fb40       ?val_real@Field_double@@UEAANXZ 0000000140020b40 f   field.obj
 0001:0001fb60       ?val_decimal@Field_real@@UEAAPEAVmy_decimal@@PEAV2@@Z 0000000140020b60 f   field.obj
 0001:0001fbd0       ?val_str@Field_double@@UEAAPEAVString@@PEAV2@0@Z 0000000140020bd0 f   field.obj
 0001:0001fce0       ?send_binary@Field_double@@UEAA_NPEAVProtocol@@@Z 0000000140020ce0 f   field.obj
 0001:0001fd10       ?cmp@Field_double@@UEAAHPEBD0@Z 0000000140020d10 f   field.obj
 0001:0001fd70       ?sort_string@Field_double@@UEAAXPEADI@Z 0000000140020d70 f   field.obj
 0001:0001fda0       ?sql_type@Field_double@@UEBAXAEAVString@@@Z 0000000140020da0 f   field.obj
 0001:0001fe30       ?get_auto_set_type@Field_timestamp@@QEBA?AW4timestamp_auto_set_type@@XZ 0000000140020e30 f   field.obj
 0001:0001fe70       ?val_int@Field_timestamp@@UEAA_JXZ 0000000140020e70 f   field.obj
 0001:0001ff40       ?get_date@Field_timestamp@@UEAA_NPEAUst_mysql_time@@I@Z 0000000140020f40 f   field.obj
 0001:0001fff0       ?get_time@Field_timestamp@@UEAA_NPEAUst_mysql_time@@@Z 0000000140020ff0 f   field.obj
 0001:00020000       ?send_binary@Field_timestamp@@UEAA_NPEAVProtocol@@@Z 0000000140021000 f   field.obj
 0001:00020040       ?cmp@Field_timestamp@@UEAAHPEBD0@Z 0000000140021040 f   field.obj
 0001:00020060       ?sort_string@Field_timestamp@@UEAAXPEADI@Z 0000000140021060 f   field.obj
 0001:000200a0       ?sql_type@Field_timestamp@@UEBAXAEAVString@@@Z 00000001400210a0 f   field.obj
 0001:000200c0       ?set_time@Field_timestamp@@QEAAXXZ 00000001400210c0 f   field.obj
 0001:00020130       ?val_real@Field_time@@UEAANXZ 0000000140021130 f   field.obj
 0001:00020150       ?val_int@Field_time@@UEAA_JXZ 0000000140021150 f   field.obj
 0001:00020190       ?val_str@Field_time@@UEAAPEAVString@@PEAV2@0@Z 0000000140021190 f   field.obj
 0001:000202c0       ?get_date@Field_time@@UEAA_NPEAUst_mysql_time@@I@Z 00000001400212c0 f   field.obj
 0001:00020420       ?get_time@Field_time@@UEAA_NPEAUst_mysql_time@@@Z 0000000140021420 f   field.obj
 0001:00020500       ?send_binary@Field_time@@UEAA_NPEAVProtocol@@@Z 0000000140021500 f   field.obj
 0001:00020560       ?cmp@Field_time@@UEAAHPEBD0@Z 0000000140021560 f   field.obj
 0001:00020600       ?sort_string@Field_time@@UEAAXPEADI@Z 0000000140021600 f   field.obj
 0001:00020640       ?sql_type@Field_time@@UEBAXAEAVString@@@Z 0000000140021640 f   field.obj
 0001:00020660       ?val_int@Field_year@@UEAA_JXZ 0000000140021660 f   field.obj
 0001:000206b0       ?val_str@Field_year@@UEAAPEAVString@@PEAV2@0@Z 00000001400216b0 f   field.obj
 0001:00020730       ?sql_type@Field_year@@UEBAXAEAVString@@@Z 0000000140021730 f   field.obj
 0001:00020780       ?val_real@Field_date@@UEAANXZ 0000000140021780 f   field.obj
 0001:00020790       ?val_int@Field_date@@UEAA_JXZ 0000000140021790 f   field.obj
 0001:000207a0       ?val_str@Field_date@@UEAAPEAVString@@PEAV2@0@Z 00000001400217a0 f   field.obj
 0001:00020860       ?get_time@Field_date@@UEAA_NPEAUst_mysql_time@@@Z 0000000140021860 f   field.obj
 0001:00020880       ?cmp@Field_date@@UEAAHPEBD0@Z 0000000140021880 f   field.obj
 0001:000208a0       ?sort_string@Field_date@@UEAAXPEADI@Z 00000001400218a0 f   field.obj
 0001:000208e0       ?sql_type@Field_date@@UEBAXAEAVString@@@Z 00000001400218e0 f   field.obj
 0001:00020900       ?val_int@Field_newdate@@UEAA_JXZ 0000000140021900 f   field.obj
 0001:00020930       ?val_str@Field_newdate@@UEAAPEAVString@@PEAV2@0@Z 0000000140021930 f   field.obj
 0001:00020ae0       ?get_date@Field_newdate@@UEAA_NPEAUst_mysql_time@@I@Z 0000000140021ae0 f   field.obj
 0001:00020b50       ?get_time@Field_newdate@@UEAA_NPEAUst_mysql_time@@@Z 0000000140021b50 f   field.obj
 0001:00020b60       ?cmp@Field_newdate@@UEAAHPEBD0@Z 0000000140021b60 f   field.obj
 0001:00020b90       ?sort_string@Field_newdate@@UEAAXPEADI@Z 0000000140021b90 f   field.obj
 0001:00020bc0       ?sql_type@Field_newdate@@UEBAXAEAVString@@@Z 0000000140021bc0 f   field.obj
 0001:00020be0       ?val_int@Field_datetime@@UEAA_JXZ 0000000140021be0 f   field.obj
 0001:00020bf0       ?val_str@Field_datetime@@UEAAPEAVString@@PEAV2@0@Z 0000000140021bf0 f   field.obj
 0001:00020f50       ?get_date@Field_datetime@@UEAA_NPEAUst_mysql_time@@I@Z 0000000140021f50 f   field.obj
 0001:00021090       ?get_time@Field_datetime@@UEAA_NPEAUst_mysql_time@@@Z 0000000140022090 f   field.obj
 0001:000210a0       ?cmp@Field_datetime@@UEAAHPEBD0@Z 00000001400220a0 f   field.obj
 0001:000210c0       ?sort_string@Field_datetime@@UEAAXPEADI@Z 00000001400220c0 f   field.obj
 0001:00021140       ?sql_type@Field_datetime@@UEBAXAEAVString@@@Z 0000000140022140 f   field.obj
 0001:00021300       ?store@Field_str@@UEAAHN@Z 0000000140022300 f   field.obj
 0001:00021630       ?cmp@Field_string@@UEAAHPEBD0@Z 0000000140022630 f   field.obj
 0001:00021720       ?sort_string@Field_string@@UEAAXPEADI@Z 0000000140022720 f   field.obj
 0001:00021750       ?sql_type@Field_string@@UEBAXAEAVString@@@Z 0000000140022750 f   field.obj
 0001:000218e0       ?pack@Field_string@@UEAAPEADPEADPEBDI@Z 00000001400228e0 f   field.obj
 0001:000219c0       ?unpack@Field_string@@UEAAPEBDPEADPEBD@Z 00000001400229c0 f   field.obj
 0001:00021a60       ?pack_cmp@Field_string@@UEAAHPEBD0ID@Z 0000000140022a60 f   field.obj
 0001:00021ad0       ?pack_cmp@Field_string@@UEAAHPEBDID@Z 0000000140022ad0 f   field.obj
 0001:00021b70       ?packed_col_length@Field_string@@UEAAIPEBDI@Z 0000000140022b70 f   field.obj
 0001:00021b90       ?max_packed_col_length@Field_string@@UEAAII@Z 0000000140022b90 f   field.obj
 0001:00021bb0       ?get_key_image@Field_string@@UEAAIPEADIW4imagetype@Field@@@Z 0000000140022bb0 f   field.obj
 0001:00021c80       ?val_real@Field_varstring@@UEAANXZ 0000000140022c80 f   field.obj
 0001:00021ce0       ?val_int@Field_varstring@@UEAA_JXZ 0000000140022ce0 f   field.obj
 0001:00021d50       ?val_decimal@Field_varstring@@UEAAPEAVmy_decimal@@PEAV2@@Z 0000000140022d50 f   field.obj
 0001:00021dd0       ?cmp@Field_varstring@@UEAAHPEBD0@Z 0000000140022dd0 f   field.obj
 0001:00021e40       ?key_cmp@Field_varstring@@UEAAHPEBEI@Z 0000000140022e40 f   field.obj
 0001:00021f10       ?key_cmp@Field_varstring@@UEAAHPEBE0@Z 0000000140022f10 f   field.obj
 0001:00021f50       ?sort_string@Field_varstring@@UEAAXPEADI@Z 0000000140022f50 f   field.obj
 0001:00021ff0       ?key_type@Field_varstring@@UEBA?AW4ha_base_keytype@@XZ 0000000140022ff0 f   field.obj
 0001:00022050       ?sql_type@Field_varstring@@UEBAXAEAVString@@@Z 0000000140023050 f   field.obj
 0001:00022190       ?data_length@Field_varstring@@UEAAKPEBD@Z 0000000140023190 f   field.obj
 0001:000221b0       ?pack@Field_varstring@@UEAAPEADPEADPEBDI@Z 00000001400231b0 f   field.obj
 0001:00022250       ?pack_key@Field_varstring@@UEAAPEADPEADPEBDI@Z 0000000140023250 f   field.obj
 0001:00022340       ?unpack_key@Field_varstring@@UEAAPEBDPEADPEBDI@Z 0000000140023340 f   field.obj
 0001:000223c0       ?pack_key_from_key_image@Field_varstring@@UEAAPEADPEADPEBDI@Z 00000001400233c0 f   field.obj
 0001:00022430       ?unpack@Field_varstring@@UEAAPEBDPEADPEBD@Z 0000000140023430 f   field.obj
 0001:000224b0       ?pack_cmp@Field_varstring@@UEAAHPEBD0ID@Z 00000001400234b0 f   field.obj
 0001:00022520       ?pack_cmp@Field_varstring@@UEAAHPEBDID@Z 0000000140023520 f   field.obj
 0001:00022630       ?packed_col_length@Field_varstring@@UEAAIPEBDI@Z 0000000140023630 f   field.obj
 0001:00022650       ?max_packed_col_length@Field_varstring@@UEAAII@Z 0000000140023650 f   field.obj
 0001:00022670       ?get_key_image@Field_varstring@@UEAAIPEADIW4imagetype@Field@@@Z 0000000140023670 f   field.obj
 0001:00022750       ?cmp_binary@Field_varstring@@UEAAHPEBD0K@Z 0000000140023750 f   field.obj
 0001:000227d0       ?new_key_field@Field_varstring@@UEAAPEAVField@@PEAUst_mem_root@@PEAUst_table@@PEADPEAEI@Z 00000001400237d0 f   field.obj
 0001:00022810       ?store_length@Field_blob@@QEAAXK@Z 0000000140023810 f   field.obj
 0001:00022880       ?get_length@Field_blob@@QEAAKPEBD@Z 0000000140023880 f   field.obj
 0001:000228c0       ?put_length@Field_blob@@QEAAXPEADK@Z 00000001400238c0 f   field.obj
 0001:00022910       ?val_real@Field_blob@@UEAANXZ 0000000140023910 f   field.obj
 0001:000229a0       ?val_int@Field_blob@@UEAA_JXZ 00000001400239a0 f   field.obj
 0001:00022a60       ?val_decimal@Field_blob@@UEAAPEAVmy_decimal@@PEAV2@@Z 0000000140023a60 f   field.obj
 0001:00022af0       ?cmp@Field_blob@@QEAAHPEBDK0K@Z 0000000140023af0 f   field.obj
 0001:00022b20       ?cmp@Field_blob@@UEAAHPEBD0@Z 0000000140023b20 f   field.obj
 0001:00022b70       ?cmp_binary@Field_blob@@UEAAHPEBD0K@Z 0000000140023b70 f   field.obj
 0001:00022bf0       ?get_key_image@Field_blob@@UEAAIPEADIW4imagetype@Field@@@Z 0000000140023bf0 f   field.obj
 0001:00022dc0       ?key_cmp@Field_blob@@UEAAHPEBEI@Z 0000000140023dc0 f   field.obj
 0001:00022e90       ?key_cmp@Field_blob@@UEAAHPEBE0@Z 0000000140023e90 f   field.obj
 0001:00022ec0       ?sort_length@Field_blob@@UEBAKXZ 0000000140023ec0 f   field.obj
 0001:00022f10       ?sql_type@Field_blob@@UEBAXAEAVString@@@Z 0000000140023f10 f   field.obj
 0001:00022fe0       ?unpack@Field_blob@@UEAAPEBDPEADPEBD@Z 0000000140023fe0 f   field.obj
 0001:00023060       ?pack_cmp@Field_blob@@UEAAHPEBD0ID@Z 0000000140024060 f   field.obj
 0001:000230d0       ?pack_cmp@Field_blob@@UEAAHPEBDID@Z 00000001400240d0 f   field.obj
 0001:00023160       ?unpack_key@Field_blob@@UEAAPEBDPEADPEBDI@Z 0000000140024160 f   field.obj
 0001:000231d0       ?pack_key_from_key_image@Field_blob@@UEAAPEADPEADPEBDI@Z 00000001400241d0 f   field.obj
 0001:00023240       ?packed_col_length@Field_blob@@UEAAIPEBDI@Z 0000000140024240 f   field.obj
 0001:00023260       ?max_packed_col_length@Field_blob@@UEAAII@Z 0000000140024260 f   field.obj
 0001:00023280       ?store@Field_geom@@UEAAHN@Z 0000000140024280 f   field.obj
 0001:000232b0       ?store@Field_geom@@UEAAH_J_N@Z 00000001400242b0 f   field.obj
 0001:000232e0       ?store_decimal@Field_geom@@UEAAHPEBVmy_decimal@@@Z 00000001400242e0 f   field.obj
 0001:00023310       ?store@Field_geom@@UEAAHPEBDIPEAUcharset_info_st@@@Z 0000000140024310 f   field.obj
 0001:00023460       ?key_type@Field_enum@@UEBA?AW4ha_base_keytype@@XZ 0000000140024460 f   field.obj
 0001:000234b0       ?store_type@Field_enum@@QEAAX_K@Z 00000001400244b0 f   field.obj
 0001:00023530       ?val_int@Field_enum@@UEAA_JXZ 0000000140024530 f   field.obj
 0001:00023590       ?cmp@Field_enum@@UEAAHPEBD0@Z 0000000140024590 f   field.obj
 0001:000235e0       ?sort_string@Field_enum@@UEAAXPEADI@Z 00000001400245e0 f   field.obj
 0001:00023630       ?eq_def@Field@@UEAA_NPEAV1@@Z 0000000140024630 f   field.obj
 0001:000236f0       ?eq_def@Field_enum@@UEAA_NPEAVField@@@Z 00000001400246f0 f   field.obj
 0001:00023820       ?eq_def@Field_num@@UEAA_NPEAVField@@@Z 0000000140024820 f   field.obj
 0001:000238a0       ??1Field_bit@@UEAA@XZ      00000001400248a0 f i field.obj
 0001:000238b0       ?new_key_field@Field_bit@@UEAAPEAVField@@PEAUst_mem_root@@PEAUst_table@@PEADPEAEI@Z 00000001400248b0 f   field.obj
 0001:00023920       ?store@Field_bit@@UEAAHN@Z 0000000140024920 f   field.obj
 0001:00023940       ?store@Field_bit@@UEAAH_J_N@Z 0000000140024940 f   field.obj
 0001:000239e0       ?val_int@Field_bit@@UEAA_JXZ 00000001400249e0 f   field.obj
 0001:00023c90       ?val_str@Field_bit@@UEAAPEAVString@@PEAV2@0@Z 0000000140024c90 f   field.obj
 0001:00023db0       ?val_decimal@Field_bit@@UEAAPEAVmy_decimal@@PEAV2@@Z 0000000140024db0 f   field.obj
 0001:00023df0       ?key_cmp@Field_bit@@UEAAHPEBEI@Z 0000000140024df0 f   field.obj
 0001:00023e80       ?cmp_offset@Field_bit@@UEAAHI@Z 0000000140024e80 f   field.obj
 0001:00023f30       ?get_key_image@Field_bit@@UEAAIPEADIW4imagetype@Field@@@Z 0000000140024f30 f   field.obj
 0001:00023fd0       ?sql_type@Field_bit@@UEBAXAEAVString@@@Z 0000000140024fd0 f   field.obj
 0001:00024020       ?pack@Field_bit@@UEAAPEADPEADPEBDI@Z 0000000140025020 f   field.obj
 0001:000240e0       ?unpack@Field_bit@@UEAAPEBDPEADPEBD@Z 00000001400250e0 f   field.obj
 0001:000241d0       ?sql_type@Field_bit_as_char@@UEBAXAEAVString@@@Z 00000001400251d0 f   field.obj
 0001:00024220       ?init_for_tmp_table@create_field@@QEAAXW4enum_field_types@@KK_N1@Z 0000000140025220 f   field.obj
 0001:000242a0       ?get_blob_type_from_length@@YA?AW4enum_field_types@@K@Z 00000001400252a0 f   field.obj
 0001:000242e0       ?calc_pack_length@@YAKW4enum_field_types@@K@Z 00000001400252e0 f   field.obj
 0001:000245a0       ?pack_length_to_packflag@@YAII@Z 00000001400255a0 f   field.obj
 0001:000245f0       ?max_display_length@Field_blob@@UEAAKXZ 00000001400255f0 f   field.obj
 0001:00024660       ?set_warning@Field@@QEAA_NW4enum_warning_level@MYSQL_ERROR@@IH@Z 0000000140025660 f   field.obj
 0001:00024710       ?set_datetime_warning@Field@@QEAAXW4enum_warning_level@MYSQL_ERROR@@IPEBDIW4enum_mysql_timestamp_type@@H@Z 0000000140025710 f   field.obj
 0001:000247f0       ?set_datetime_warning@Field@@QEAAXW4enum_warning_level@MYSQL_ERROR@@I_JW4enum_mysql_timestamp_type@@H@Z 00000001400257f0 f   field.obj
 0001:00024900       ?set_datetime_warning@Field@@QEAAXW4enum_warning_level@MYSQL_ERROR@@INW4enum_mysql_timestamp_type@@@Z 0000000140025900 f   field.obj
 0001:00024a10       ??0?$List@VString@@@@QEAA@XZ 0000000140025a10 f i field.obj
 0001:00024a30       ?push_back@?$List@VString@@@@QEAA_NPEAVString@@@Z 0000000140025a30 f i field.obj
 0001:00024ac0       ??E?$List_iterator@VString@@@@QEAAPEAVString@@H@Z 0000000140025ac0 f i field.obj
 0001:00024ae0       ?set_prefix@?$Bitmap@$0EA@@@QEAAXI@Z 0000000140025ae0 f i field.obj
 0001:00024b10       ??1String@@QEAA@XZ         0000000140025b10 f i field.obj
 0001:00024b60       ?set@String@@QEAAXPEBDKPEAUcharset_info_st@@@Z 0000000140025b60 f i field.obj
 0001:00024bf0       ??0base_list_iterator@@QEAA@AEAVbase_list@@@Z 0000000140025bf0 f i field.obj
 0001:00024c10       ??1my_decimal@@QEAA@XZ     0000000140025c10 f i field.obj
 0001:00024c20       ?my_decimal2int@@YAHIPEBVmy_decimal@@DPEA_J@Z 0000000140025c20 f i field.obj
 0001:00024cc0       ?get_length@Field_blob@@QEAAKI@Z 0000000140025cc0 f i field.obj
 0001:00024cd0       ??1Field_blob@@UEAA@XZ     0000000140025cd0 f i field.obj
 0001:00024d50       ??1?$List@VString@@@@QEAA@XZ 0000000140025d50 f i field.obj
 0001:00024d60       ??1Item@@UEAA@XZ           0000000140025d60 f i field.obj
 0001:00024dc0       ??3Item@@SAXPEAX_K@Z       0000000140025dc0 f i field.obj
 0001:00024dd0       ?save_org_in_field@Item@@UEAAXPEAVField@@@Z 0000000140025dd0 f i field.obj
 0001:00024de0       ?save_safe_in_field@Item@@UEAAHPEAVField@@@Z 0000000140025de0 f i field.obj
 0001:00024df0       ?result_type@Item@@UEBA?AW4Item_result@@XZ 0000000140025df0 f i field.obj
 0001:00024e00       ?cast_to_int_type@Item@@UEBA?AW4Item_result@@XZ 0000000140025e00 f i field.obj
 0001:00024e10       ?get_tmp_table_field@Item@@UEAAPEAVField@@XZ 0000000140025e10 f i field.obj
 0001:00024e20       ?tmp_table_field@Item@@UEAAPEAVField@@PEAUst_table@@@Z 0000000140025e20 f i field.obj
 0001:00024e30       ?full_name@Item@@UEBAPEBDXZ 0000000140025e30 f i field.obj
 0001:00024e50       ?val_result@Item@@UEAANXZ  0000000140025e50 f i field.obj
 0001:00024e60       ?val_int_result@Item@@UEAA_JXZ 0000000140025e60 f i field.obj
 0001:00024e70       ?str_result@Item@@UEAAPEAVString@@PEAV2@@Z 0000000140025e70 f i field.obj
 0001:00024e80       ?val_decimal_result@Item@@UEAAPEAVmy_decimal@@PEAV2@@Z 0000000140025e80 f i field.obj
 0001:00024e90       ?val_bool_result@Item@@UEAA_NXZ 0000000140025e90 f i field.obj
 0001:00024ea0       ?is_null_result@Item@@UEAA_NXZ 0000000140025ea0 f i field.obj
 0001:00024eb0       ?used_tables@Item@@UEBA_KXZ 0000000140025eb0 f i field.obj
 0001:00024ec0       ?not_null_tables@Item@@UEBA_KXZ 0000000140025ec0 f i field.obj
 0001:00024ed0       ?basic_const_item@Item@@UEBA_NXZ 0000000140025ed0 f i field.obj
 0001:00024ee0       ?clone_item@Item@@UEAAPEAV1@XZ 0000000140025ee0 f i field.obj
 0001:00024ef0       ?eq_cmp_result@Item@@UEBA?AW4cond_result@1@XZ 0000000140025ef0 f i field.obj
 0001:00024f00       ?const_item@Item@@UEBA_NXZ 0000000140025f00 f i field.obj
 0001:00024f20       ?const_during_execution@Item@@UEBA_NXZ 0000000140025f20 f i field.obj
 0001:00024f50       ?print@Item@@UEAAXPEAVString@@@Z 0000000140025f50 f i field.obj
 0001:00024f80       ?update_used_tables@Item@@UEAAXXZ 0000000140025f80 f i field.obj
 0001:00024f90       ?split_sum_func@Item@@UEAAXPEAVTHD@@PEAPEAV1@AEAV?$List@VItem@@@@@Z 0000000140025f90 f i field.obj
 0001:00024fa0       ?get_date_result@Item@@UEAA_NPEAUst_mysql_time@@I@Z 0000000140025fa0 f i field.obj
 0001:00024fb0       ?is_null@Item@@UEAA_NXZ    0000000140025fb0 f i field.obj
 0001:00024fc0       ?update_null_value@Item@@UEAAXXZ 0000000140025fc0 f i field.obj
 0001:00024fd0       ?top_level_item@Item@@UEAAXXZ 0000000140025fd0 f i field.obj
 0001:00024fe0       ?set_result_field@Item@@UEAAXPEAVField@@@Z 0000000140025fe0 f i field.obj
 0001:00024ff0       ?is_result_field@Item@@UEAA_NXZ 0000000140025ff0 f i field.obj
 0001:00025000       ?is_bool_func@Item@@UEAA_NXZ 0000000140026000 f i field.obj
 0001:00025010       ?save_in_result_field@Item@@UEAAX_N@Z 0000000140026010 f i field.obj
 0001:00025020       ?no_rows_in_result@Item@@UEAAXXZ 0000000140026020 f i field.obj
 0001:00025030       ?copy_or_same@Item@@UEAAPEAV1@PEAVTHD@@@Z 0000000140026030 f i field.obj
 0001:00025040       ?copy_andor_structure@Item@@UEAAPEAV1@PEAVTHD@@@Z 0000000140026040 f i field.obj
 0001:00025050       ?real_item@Item@@UEAAPEAV1@XZ 0000000140026050 f i field.obj
 0001:00025060       ?get_tmp_table_item@Item@@UEAAPEAV1@PEAVTHD@@@Z 0000000140026060 f i field.obj
 0001:00025070       ?compare_collation@Item@@UEAAPEAUcharset_info_st@@XZ 0000000140026070 f i field.obj
 0001:00025080       ?walk@Item@@UEAA_NP81@EAA_NPEAE@Z0@Z 0000000140026080 f i field.obj
 0001:00025090       ?compile@Item@@UEAAPEAV1@P81@EAA_NPEAPEAE@Z0P81@EAAPEAV1@PEAE@Z2@Z 0000000140026090 f i field.obj
 0001:000250f0       ?traverse_cond@Item@@UEAAXP6AXPEBV1@PEAX@Z1W4traverse_order@1@@Z 00000001400260f0 f i field.obj
 0001:00025100       ?remove_dependence_processor@Item@@UEAA_NPEAE@Z 0000000140026100 f i field.obj
 0001:00025110       ?remove_fixed@Item@@UEAA_NPEAE@Z 0000000140026110 f i field.obj
 0001:00025120       ?collect_item_field_processor@Item@@UEAA_NPEAE@Z 0000000140026120 f i field.obj
 0001:00025130       ?find_item_in_field_list_processor@Item@@UEAA_NPEAE@Z 0000000140026130 f i field.obj
 0001:00025140       ?change_context_processor@Item@@UEAA_NPEAE@Z 0000000140026140 f i field.obj
 0001:00025150       ?reset_query_id_processor@Item@@UEAA_NPEAE@Z 0000000140026150 f i field.obj
 0001:00025160       ?is_expensive_processor@Item@@UEAA_NPEAE@Z 0000000140026160 f i field.obj
 0001:00025170       ?subst_argument_checker@Item@@UEAA_NPEAPEAE@Z 0000000140026170 f i field.obj
 0001:00025190       ?equal_fields_propagator@Item@@UEAAPEAV1@PEAE@Z 0000000140026190 f i field.obj
 0001:000251a0       ?set_no_const_sub@Item@@UEAA_NPEAE@Z 00000001400261a0 f i field.obj
 0001:000251b0       ?replace_equal_field@Item@@UEAAPEAV1@PEAE@Z 00000001400261b0 f i field.obj
 0001:000251c0       ?this_item@Item@@UEAAPEAV1@XZ 00000001400261c0 f i field.obj
 0001:000251d0       ?this_item@Item@@UEBAPEBV1@XZ 00000001400261d0 f i field.obj
 0001:000251e0       ?this_item_addr@Item@@UEAAPEAPEAV1@PEAVTHD@@PEAPEAV1@@Z 00000001400261e0 f i field.obj
 0001:000251f0       ?cols@Item@@UEAAIXZ        00000001400261f0 f i field.obj
 0001:00025200       ?element_index@Item@@UEAAPEAV1@I@Z 0000000140026200 f i field.obj
 0001:00025210       ?addr@Item@@UEAAPEAPEAV1@I@Z 0000000140026210 f i field.obj
 0001:00025220       ?null_inside@Item@@UEAA_NXZ 0000000140026220 f i field.obj
 0001:00025230       ?bring_value@Item@@UEAAXXZ 0000000140026230 f i field.obj
 0001:00025240       ?filed_for_view_update@Item@@UEAAPEAVItem_field@@XZ 0000000140026240 f i field.obj
 0001:00025250       ?neg_transformer@Item@@UEAAPEAV1@PEAVTHD@@@Z 0000000140026250 f i field.obj
 0001:00025260       ?update_value_transformer@Item@@UEAAPEAV1@PEAE@Z 0000000140026260 f i field.obj
 0001:00025270       ?is_splocal@Item@@UEAA_NXZ 0000000140026270 f i field.obj
 0001:00025280       ?get_settable_routine_parameter@Item@@UEAAPEAVSettable_routine_parameter@@XZ 0000000140026280 f i field.obj
 0001:00025290       ?result_as_longlong@Item@@UEAA_NXZ 0000000140026290 f i field.obj
 0001:000252a0       ?get_geometry_type@Item@@UEBA?AW4geometry_type@Field@@XZ 00000001400262a0 f i field.obj
 0001:000252b0       ??_EItem@@UEAAPEAXI@Z      00000001400262b0 f i field.obj
 0001:000252b0       ??_GItem@@UEAAPEAXI@Z      00000001400262b0 f i field.obj
 0001:00025310       ??0Item_basic_constant@@QEAA@XZ 0000000140026310 f i field.obj
 0001:00025340       ?cleanup@Item_basic_constant@@UEAAXXZ 0000000140026340 f i field.obj
 0001:00025360       ??1Item_basic_constant@@UEAA@XZ 0000000140026360 f i field.obj
 0001:000253c0       ??_EItem_basic_constant@@UEAAPEAXI@Z 00000001400263c0 f i field.obj
 0001:000253c0       ??_GItem_basic_constant@@UEAAPEAXI@Z 00000001400263c0 f i field.obj
 0001:00025420       ??0Item_string@@QEAA@PEBDIPEAUcharset_info_st@@W4Derivation@@I@Z 0000000140026420 f i field.obj
 0001:00025500       ?type@Item_string@@UEBA?AW4Type@Item@@XZ 0000000140026500 f i field.obj
 0001:00025510       ?val_str@Item_string@@UEAAPEAVString@@PEAV2@@Z 0000000140026510 f i field.obj
 0001:00025520       ?result_type@Item_string@@UEBA?AW4Item_result@@XZ 0000000140026520 f i field.obj
 0001:00025530       ?field_type@Item_string@@UEBA?AW4enum_field_types@@XZ 0000000140026530 f i field.obj
 0001:00025540       ?basic_const_item@Item_string@@UEBA_NXZ 0000000140026540 f i field.obj
 0001:00025550       ??0Item_string@@QEAA@PEBD0IPEAUcharset_info_st@@W4Derivation@@I@Z 0000000140026550 f i field.obj
 0001:00025630       ?clone_item@Item_string@@UEAAPEAVItem@@XZ 0000000140026630 f i field.obj
 0001:00025750       ??1Item_string@@UEAA@XZ    0000000140026750 f i field.obj
 0001:000257b0       ?check_int@Field_num@@QEAAHPEAUcharset_info_st@@PEBDH1H@Z 00000001400267b0 f   field.obj
 0001:00025960       ?get_int@Field_num@@QEAA_NPEAUcharset_info_st@@PEBDIPEA_J_K_J4@Z 0000000140026960 f   field.obj
 0001:00025aa0       ?warn_if_overflow@Field@@QEAAHH@Z 0000000140026aa0 f   field.obj
 0001:00025b00       ?send_binary@Field@@UEAA_NPEAVProtocol@@@Z 0000000140026b00 f   field.obj
 0001:00025c00       ?convert_decimal2longlong@Field@@QEAA_JPEBVmy_decimal@@_NPEAH@Z 0000000140026c00 f   field.obj
 0001:00025dd0       ?store_decimal@Field_num@@UEAAHPEBVmy_decimal@@@Z 0000000140026dd0 f   field.obj
 0001:00025e30       ?store_decimal@Field_str@@UEAAHPEBVmy_decimal@@@Z 0000000140026e30 f   field.obj
 0001:00025e90       ?get_date@Field@@UEAA_NPEAUst_mysql_time@@I@Z 0000000140026e90 f   field.obj
 0001:00025fa0       ?get_time@Field@@UEAA_NPEAUst_mysql_time@@@Z 0000000140026fa0 f   field.obj
 0001:000260b0       ?overflow@Field_decimal@@QEAAX_N@Z 00000001400270b0 f   field.obj
 0001:000261e0       ?store@Field_decimal@@UEAAHPEBDIPEAUcharset_info_st@@@Z 00000001400271e0 f   field.obj
 0001:000269e0       ?store@Field_decimal@@UEAAHN@Z 00000001400279e0 f   field.obj
 0001:00026bb0       ?store@Field_decimal@@UEAAH_J_N@Z 0000000140027bb0 f   field.obj
 0001:00026d40       ?store_value@Field_new_decimal@@QEAA_NPEBVmy_decimal@@@Z 0000000140027d40 f   field.obj
 0001:00026e50       ?store@Field_new_decimal@@UEAAHPEBDIPEAUcharset_info_st@@@Z 0000000140027e50 f   field.obj
 0001:00027170       ?store@Field_new_decimal@@UEAAHN@Z 0000000140028170 f   field.obj
 0001:00027310       ?store@Field_new_decimal@@UEAAH_J_N@Z 0000000140028310 f   field.obj
 0001:00027420       ?store_decimal@Field_new_decimal@@UEAAHPEBVmy_decimal@@@Z 0000000140028420 f   field.obj
 0001:00027440       ?store_time@Field_new_decimal@@UEAAHPEAUst_mysql_time@@W4enum_mysql_timestamp_type@@@Z 0000000140028440 f   field.obj
 0001:00027490       ?val_real@Field_new_decimal@@UEAANXZ 0000000140028490 f   field.obj
 0001:000274e0       ?val_int@Field_new_decimal@@UEAA_JXZ 00000001400284e0 f   field.obj
 0001:00027590       ?val_str@Field_new_decimal@@UEAAPEAVString@@PEAV2@0@Z 0000000140028590 f   field.obj
 0001:00027630       ?store@Field_tiny@@UEAAHPEBDIPEAUcharset_info_st@@@Z 0000000140028630 f   field.obj
 0001:000276a0       ?store@Field_tiny@@UEAAHN@Z 00000001400286a0 f   field.obj
 0001:00027770       ?store@Field_tiny@@UEAAH_J_N@Z 0000000140028770 f   field.obj
 0001:00027820       ?store@Field_short@@UEAAHPEBDIPEAUcharset_info_st@@@Z 0000000140028820 f   field.obj
 0001:00027890       ?store@Field_short@@UEAAHN@Z 0000000140028890 f   field.obj
 0001:00027960       ?store@Field_short@@UEAAH_J_N@Z 0000000140028960 f   field.obj
 0001:00027a20       ?store@Field_medium@@UEAAHPEBDIPEAUcharset_info_st@@@Z 0000000140028a20 f   field.obj
 0001:00027ab0       ?store@Field_medium@@UEAAHN@Z 0000000140028ab0 f   field.obj
 0001:00027c20       ?store@Field_medium@@UEAAH_J_N@Z 0000000140028c20 f   field.obj
 0001:00027d70       ?store@Field_long@@UEAAHPEBDIPEAUcharset_info_st@@@Z 0000000140028d70 f   field.obj
 0001:00027de0       ?store@Field_long@@UEAAHN@Z 0000000140028de0 f   field.obj
 0001:00027ed0       ?store@Field_long@@UEAAH_J_N@Z 0000000140028ed0 f   field.obj
 0001:00027f90       ?store@Field_longlong@@UEAAHPEBDIPEAUcharset_info_st@@@Z 0000000140028f90 f   field.obj
 0001:000280a0       ?store@Field_longlong@@UEAAHN@Z 00000001400290a0 f   field.obj
 0001:00028240       ?store@Field_longlong@@UEAAH_J_N@Z 0000000140029240 f   field.obj
 0001:000282c0       ?truncate@Field_real@@QEAAHPEANN@Z 00000001400292c0 f   field.obj
 0001:000284d0       ?val_int@Field_double@@UEAA_JXZ 00000001400294d0 f   field.obj
 0001:000286a0       ?store@Field_timestamp@@UEAAHPEBDIPEAUcharset_info_st@@@Z 00000001400296a0 f   field.obj
 0001:00028850       ?store@Field_timestamp@@UEAAH_J_N@Z 0000000140029850 f   field.obj
 0001:00028a00       ?val_real@Field_timestamp@@UEAANXZ 0000000140029a00 f   field.obj
 0001:00028a20       ?val_str@Field_timestamp@@UEAAPEAVString@@PEAV2@0@Z 0000000140029a20 f   field.obj
 0001:00028ce0       ?store@Field_time@@UEAAHPEBDIPEAUcharset_info_st@@@Z 0000000140029ce0 f   field.obj
 0001:00028e70       ?store@Field_time@@UEAAHN@Z 0000000140029e70 f   field.obj
 0001:00028fc0       ?store@Field_time@@UEAAH_J_N@Z 0000000140029fc0 f   field.obj
 0001:000290e0       ?store@Field_year@@UEAAHPEBDIPEAUcharset_info_st@@@Z 000000014002a0e0 f   field.obj
 0001:00029280       ?store@Field_year@@UEAAH_J_N@Z 000000014002a280 f   field.obj
 0001:00029340       ?send_binary@Field_year@@UEAA_NPEAVProtocol@@@Z 000000014002a340 f   field.obj
 0001:00029370       ?val_real@Field_year@@UEAANXZ 000000014002a370 f   field.obj
 0001:00029390       ?store@Field_date@@UEAAHPEBDIPEAUcharset_info_st@@@Z 000000014002a390 f   field.obj
 0001:000294c0       ?store@Field_date@@UEAAH_J_N@Z 000000014002a4c0 f   field.obj
 0001:00029620       ?send_binary@Field_date@@UEAA_NPEAVProtocol@@@Z 000000014002a620 f   field.obj
 0001:000296c0       ?store@Field_newdate@@UEAAHPEBDIPEAUcharset_info_st@@@Z 000000014002a6c0 f   field.obj
 0001:00029840       ?store@Field_newdate@@UEAAH_J_N@Z 000000014002a840 f   field.obj
 0001:000299a0       ?store_time@Field_newdate@@UEAAHPEAUst_mysql_time@@W4enum_mysql_timestamp_type@@@Z 000000014002a9a0 f   field.obj
 0001:00029c60       ?send_binary@Field_newdate@@UEAA_NPEAVProtocol@@@Z 000000014002ac60 f   field.obj
 0001:00029ca0       ?val_real@Field_newdate@@UEAANXZ 000000014002aca0 f   field.obj
 0001:00029cc0       ?store@Field_datetime@@UEAAHPEBDIPEAUcharset_info_st@@@Z 000000014002acc0 f   field.obj
 0001:00029df0       ?store@Field_datetime@@UEAAH_J_N@Z 000000014002adf0 f   field.obj
 0001:00029f00       ?store_time@Field_datetime@@UEAAHPEAUst_mysql_time@@W4enum_mysql_timestamp_type@@@Z 000000014002af00 f   field.obj
 0001:0002a0f0       ?send_binary@Field_datetime@@UEAA_NPEAVProtocol@@@Z 000000014002b0f0 f   field.obj
 0001:0002a130       ?val_real@Field_datetime@@UEAANXZ 000000014002b130 f   field.obj
 0001:0002a150       ?report_if_important_data@Field_longstr@@IEAAHPEBD0_N@Z 000000014002b150 f   field.obj
 0001:0002a260       ?store@Field_string@@UEAAHPEBDIPEAUcharset_info_st@@@Z 000000014002b260 f   field.obj
 0001:0002a380       ?store@Field_string@@UEAAH_J_N@Z 000000014002b380 f   field.obj
 0001:0002a440       ?store_decimal@Field_longstr@@UEAAHPEBVmy_decimal@@@Z 000000014002b440 f   field.obj
 0001:0002a530       ?val_real@Field_string@@UEAANXZ 000000014002b530 f   field.obj
 0001:0002a780       ?val_int@Field_string@@UEAA_JXZ 000000014002b780 f   field.obj
 0001:0002a9c0       ?val_str@Field_string@@UEAAPEAVString@@PEAV2@0@Z 000000014002b9c0 f   field.obj
 0001:0002aa80       ?val_decimal@Field_string@@UEAAPEAVmy_decimal@@PEAV2@@Z 000000014002ba80 f   field.obj
 0001:0002ac40       ?store@Field_varstring@@UEAAHPEBDIPEAUcharset_info_st@@@Z 000000014002bc40 f   field.obj
 0001:0002ad50       ?store@Field_varstring@@UEAAH_J_N@Z 000000014002bd50 f   field.obj
 0001:0002adf0       ?val_str@Field_varstring@@UEAAPEAVString@@PEAV2@0@Z 000000014002bdf0 f   field.obj
 0001:0002aea0       ?set_key_image@Field_varstring@@UEAAXPEADI@Z 000000014002bea0 f   field.obj
 0001:0002aec0       ?store@Field_blob@@UEAAHPEBDIPEAUcharset_info_st@@@Z 000000014002bec0 f   field.obj
 0001:0002b2a0       ?store@Field_blob@@UEAAHN@Z 000000014002c2a0 f   field.obj
 0001:0002b330       ?store@Field_blob@@UEAAH_J_N@Z 000000014002c330 f   field.obj
 0001:0002b3c0       ?val_str@Field_blob@@UEAAPEAVString@@PEAV2@0@Z 000000014002c3c0 f   field.obj
 0001:0002b4d0       ?set_key_image@Field_blob@@UEAAXPEADI@Z 000000014002c4d0 f   field.obj
 0001:0002b4f0       ?sort_string@Field_blob@@UEAAXPEADI@Z 000000014002c4f0 f   field.obj
 0001:0002b600       ?pack@Field_blob@@UEAAPEADPEADPEBDI@Z 000000014002c600 f   field.obj
 0001:0002b6d0       ?pack_key@Field_blob@@UEAAPEADPEADPEBDI@Z 000000014002c6d0 f   field.obj
 0001:0002b7d0       ?sql_type@Field_geom@@UEBAXAEAVString@@@Z 000000014002c7d0 f   field.obj
 0001:0002ba40       ?store@Field_enum@@UEAAHPEBDIPEAUcharset_info_st@@@Z 000000014002ca40 f   field.obj
 0001:0002bc80       ?store@Field_enum@@UEAAH_J_N@Z 000000014002cc80 f   field.obj
 0001:0002bd20       ?val_real@Field_enum@@UEAANXZ 000000014002cd20 f   field.obj
 0001:0002bd40       ?val_str@Field_enum@@UEAAPEAVString@@PEAV2@0@Z 000000014002cd40 f   field.obj
 0001:0002be40       ?sql_type@Field_enum@@UEBAXAEAVString@@@Z 000000014002ce40 f   field.obj
 0001:0002c080       ?store@Field_set@@UEAAHPEBDIPEAUcharset_info_st@@@Z 000000014002d080 f   field.obj
 0001:0002c2c0       ?store@Field_set@@UEAAH_J_N@Z 000000014002d2c0 f   field.obj
 0001:0002c350       ?val_str@Field_set@@UEAAPEAVString@@PEAV2@0@Z 000000014002d350 f   field.obj
 0001:0002c4c0       ?sql_type@Field_set@@UEBAXAEAVString@@@Z 000000014002d4c0 f   field.obj
 0001:0002c700       ?store@Field_bit@@UEAAHPEBDIPEAUcharset_info_st@@@Z 000000014002d700 f   field.obj
 0001:0002cac0       ?store_decimal@Field_bit@@UEAAHPEBVmy_decimal@@@Z 000000014002dac0 f   field.obj
 0001:0002cb20       ?val_real@Field_bit@@UEAANXZ 000000014002db20 f   field.obj
 0001:0002cb40       ?store@Field_bit_as_char@@UEAAHPEBDIPEAUcharset_info_st@@@Z 000000014002db40 f   field.obj
 0001:0002ccb0       ?create_length_to_internal_length@create_field@@QEAAXXZ 000000014002dcb0 f   field.obj
 0001:0002cf40       ??0create_field@@QEAA@PEAVField@@0@Z 000000014002df40 f   field.obj
 0001:0002d490       ??0?$List_iterator@VString@@@@QEAA@AEAV?$List@VString@@@@@Z 000000014002e490 f i field.obj
 0001:0002d4b0       ??0?$Bitmap@$0EA@@@QEAA@I@Z 000000014002e4b0 f i field.obj
 0001:0002d4f0       ?init@?$Bitmap@$0EA@@@QEAAXI@Z 000000014002e4f0 f i field.obj
 0001:0002d520       ??_GItem_string@@UEAAPEAXI@Z 000000014002e520 f i field.obj
 0001:0002d520       ??_EItem_string@@UEAAPEAXI@Z 000000014002e520 f i field.obj
 0001:0002d580       ??0Field@@QEAA@PEADKPEAEEW4utype@0@PEBDPEAUst_table@@@Z 000000014002e580 f   field.obj
 0001:0002d630       ??0Field_str@@QEAA@PEADKPEAEEW4utype@Field@@PEBDPEAUst_table@@PEAUcharset_info_st@@@Z 000000014002e630 f   field.obj
 0001:0002d6c0       ?result_type@Field_str@@UEBA?AW4Item_result@@XZ 000000014002e6c0 f i field.obj
 0001:0002d6d0       ?decimals@Field_str@@UEBAIXZ 000000014002e6d0 f i field.obj
 0001:0002d6e0       ?size_of@Field_str@@UEBAIXZ 000000014002e6e0 f i field.obj
 0001:0002d6f0       ?charset@Field_str@@UEBAPEAUcharset_info_st@@XZ 000000014002e6f0 f i field.obj
 0001:0002d700       ?set_charset@Field_str@@UEAAXPEAUcharset_info_st@@@Z 000000014002e700 f i field.obj
 0001:0002d710       ?derivation@Field_str@@UEBA?AW4Derivation@@XZ 000000014002e710 f i field.obj
 0001:0002d720       ?set_derivation@Field_str@@UEAAXW4Derivation@@@Z 000000014002e720 f i field.obj
 0001:0002d730       ?binary@Field_str@@UEBA_NXZ 000000014002e730 f i field.obj
 0001:0002d750       ?max_display_length@Field_str@@UEAAKXZ 000000014002e750 f i field.obj
 0001:0002d760       ??_GField_str@@UEAAPEAXI@Z 000000014002e760 f i field.obj
 0001:0002d760       ??_EField_str@@UEAAPEAXI@Z 000000014002e760 f i field.obj
 0001:0002d780       ?new_field@Field@@UEAAPEAV1@PEAUst_mem_root@@PEAUst_table@@_N@Z 000000014002e780 f   field.obj
 0001:0002d840       ?reset@Field_decimal@@UEAAHXZ 000000014002e840 f   field.obj
 0001:0002d870       ?reset@Field_new_decimal@@UEAAHXZ 000000014002e870 f   field.obj
 0001:0002d890       ?store@Field_float@@UEAAHN@Z 000000014002e890 f   field.obj
 0001:0002d8e0       ?store@Field_double@@UEAAHN@Z 000000014002e8e0 f   field.obj
 0001:0002d930       ??0Field_timestamp@@QEAA@PEADKPEAEEW4utype@Field@@PEBDPEAUst_table@@PEAUcharset_info_st@@@Z 000000014002e930 f   field.obj
 0001:0002d9e0       ?type@Field_timestamp@@UEBA?AW4enum_field_types@@XZ 000000014002e9e0 f i field.obj
 0001:0002d9f0       ?key_type@Field_timestamp@@UEBA?AW4ha_base_keytype@@XZ 000000014002e9f0 f i field.obj
 0001:0002da00       ?cmp_type@Field_timestamp@@UEBA?AW4Item_result@@XZ 000000014002ea00 f i field.obj
 0001:0002da10       ?reset@Field_timestamp@@UEAAHXZ 000000014002ea10 f i field.obj
 0001:0002da40       ?pack_length@Field_timestamp@@UEBAKXZ 000000014002ea40 f i field.obj
 0001:0002da50       ?can_be_compared_as_longlong@Field_timestamp@@UEBA_NXZ 000000014002ea50 f i field.obj
 0001:0002da60       ?zero_pack@Field_timestamp@@UEBA_NXZ 000000014002ea60 f i field.obj
 0001:0002da70       ??1Field_timestamp@@UEAA@XZ 000000014002ea70 f i field.obj
 0001:0002da80       ?set_default@Field_timestamp@@UEAAXXZ 000000014002ea80 f i field.obj
 0001:0002db30       ??_GField_timestamp@@UEAAPEAXI@Z 000000014002eb30 f i field.obj
 0001:0002db30       ??_EField_timestamp@@UEAAPEAXI@Z 000000014002eb30 f i field.obj
 0001:0002db50       ??0Field_timestamp@@QEAA@_NPEBDPEAUst_table@@PEAUcharset_info_st@@@Z 000000014002eb50 f   field.obj
 0001:0002dc00       ?store@Field_timestamp@@UEAAHN@Z 000000014002ec00 f   field.obj
 0001:0002dc90       ?store_time@Field_time@@UEAAHPEAUst_mysql_time@@W4enum_mysql_timestamp_type@@@Z 000000014002ec90 f   field.obj
 0001:0002dce0       ?store@Field_year@@UEAAHN@Z 000000014002ece0 f   field.obj
 0001:0002dd30       ?store@Field_date@@UEAAHN@Z 000000014002ed30 f   field.obj
 0001:0002ddf0       ?store@Field_newdate@@UEAAHN@Z 000000014002edf0 f   field.obj
 0001:0002de90       ?store@Field_datetime@@UEAAHN@Z 000000014002ee90 f   field.obj
 0001:0002df20       ?new_field@Field_varstring@@UEAAPEAVField@@PEAUst_mem_root@@PEAUst_table@@_N@Z 000000014002ef20 f   field.obj
 0001:0002df50       ?store@Field_enum@@UEAAHN@Z 000000014002ef50 f   field.obj
 0001:0002df60       ?new_field@Field_enum@@UEAAPEAVField@@PEAUst_mem_root@@PEAUst_table@@_N@Z 000000014002ef60 f   field.obj
 0001:0002dfc0       ??0Field_bit@@QEAA@PEADKPEAEE1EW4utype@Field@@PEBDPEAUst_table@@@Z 000000014002efc0 f   field.obj
 0001:0002e070       ?type@Field_bit@@UEBA?AW4enum_field_types@@XZ 000000014002f070 f i field.obj
 0001:0002e080       ?key_type@Field_bit@@UEBA?AW4ha_base_keytype@@XZ 000000014002f080 f i field.obj
 0001:0002e090       ?key_length@Field_bit@@UEBAKXZ 000000014002f090 f i field.obj
 0001:0002e0a0       ?max_display_length@Field_bit@@UEAAKXZ 000000014002f0a0 f i field.obj
 0001:0002e0b0       ?size_of@Field_bit@@UEBAIXZ 000000014002f0b0 f i field.obj
 0001:0002e0c0       ?result_type@Field_bit@@UEBA?AW4Item_result@@XZ 000000014002f0c0 f i field.obj
 0001:0002e0d0       ?reset@Field_bit@@UEAAHXZ  000000014002f0d0 f i field.obj
 0001:0002e100       ?key_cmp@Field_bit@@UEAAHPEBE0@Z 000000014002f100 f i field.obj
 0001:0002e120       ?cmp_binary_offset@Field_bit@@UEAAHI@Z 000000014002f120 f i field.obj
 0001:0002e130       ?get_image@Field_bit@@UEAAXPEADIPEAUcharset_info_st@@@Z 000000014002f130 f i field.obj
 0001:0002e140       ?sort_string@Field_bit@@UEAAXPEADI@Z 000000014002f140 f i field.obj
 0001:0002e150       ?pack_length@Field_bit@@UEBAKXZ 000000014002f150 f i field.obj
 0001:0002e160       ?pack_length_in_rec@Field_bit@@UEBAKXZ 000000014002f160 f i field.obj
 0001:0002e170       ?move_field@Field_bit@@UEAAX_J@Z 000000014002f170 f i field.obj
 0001:0002e190       ?eq@Field_bit@@UEAA_NPEAVField@@@Z 000000014002f190 f i field.obj
 0001:0002e240       ?cmp@Field_bit@@UEAAHPEBD0@Z 000000014002f240 f i field.obj
 0001:0002e270       ??_GField_bit@@UEAAPEAXI@Z 000000014002f270 f i field.obj
 0001:0002e270       ??_EField_bit@@UEAAPEAXI@Z 000000014002f270 f i field.obj
 0001:0002e290       ?set_image@Field_bit@@UEAAXPEADIPEAUcharset_info_st@@@Z 000000014002f290 f i field.obj
 0001:0002e2a0       ?set_key_image@Field_bit@@UEAAXPEADI@Z 000000014002f2a0 f i field.obj
 0001:0002e2b0       ??0Field_bit_as_char@@QEAA@PEADKPEAEEW4utype@Field@@PEBDPEAUst_table@@@Z 000000014002f2b0 f   field.obj
 0001:0002e350       ?key_type@Field_bit_as_char@@UEBA?AW4ha_base_keytype@@XZ 000000014002f350 f i field.obj
 0001:0002e360       ?size_of@Field_bit_as_char@@UEBAIXZ 000000014002f360 f i field.obj
 0001:0002e370       ??1Field_bit_as_char@@UEAA@XZ 000000014002f370 f i field.obj
 0001:0002e380       ?store@Field_bit_as_char@@UEAAHN@Z 000000014002f380 f i field.obj
 0001:0002e390       ?store@Field_bit_as_char@@UEAAH_J_N@Z 000000014002f390 f i field.obj
 0001:0002e3a0       ??_GField_bit_as_char@@UEAAPEAXI@Z 000000014002f3a0 f i field.obj
 0001:0002e3a0       ??_EField_bit_as_char@@UEAAPEAXI@Z 000000014002f3a0 f i field.obj
 0001:0002e3c0       ?init@create_field@@QEAA_NPEAVTHD@@PEADW4enum_field_types@@11IPEAVItem@@3PEAUst_lex_string@@1PEAV?$List@VString@@@@PEAUcharset_info_st@@I@Z 000000014002f3c0 f   field.obj
 0001:0002f0f0       ??0Field_longstr@@QEAA@PEADKPEAEEW4utype@Field@@PEBDPEAUst_table@@PEAUcharset_info_st@@@Z 00000001400300f0 f i field.obj
 0001:0002f160       ??_EField_longstr@@UEAAPEAXI@Z 0000000140030160 f i field.obj
 0001:0002f160       ??_GField_longstr@@UEAAPEAXI@Z 0000000140030160 f i field.obj
 0001:0002f180       ??0Field_null@@QEAA@PEADKW4utype@Field@@PEBDPEAUst_table@@PEAUcharset_info_st@@@Z 0000000140030180 f i field.obj
 0001:0002f1f0       ?type@Field_null@@UEBA?AW4enum_field_types@@XZ 00000001400301f0 f i field.obj
 0001:0002f200       ?store@Field_null@@UEAAHPEBDIPEAUcharset_info_st@@@Z 0000000140030200 f i field.obj
 0001:0002f210       ?store@Field_null@@UEAAHN@Z 0000000140030210 f i field.obj
 0001:0002f220       ?store@Field_null@@UEAAH_J_N@Z 0000000140030220 f i field.obj
 0001:0002f230       ?store_decimal@Field_null@@UEAAHPEBVmy_decimal@@@Z 0000000140030230 f i field.obj
 0001:0002f240       ?reset@Field_null@@UEAAHXZ 0000000140030240 f i field.obj
 0001:0002f250       ?val_real@Field_null@@UEAANXZ 0000000140030250 f i field.obj
 0001:0002f260       ?val_int@Field_null@@UEAA_JXZ 0000000140030260 f i field.obj
 0001:0002f270       ?val_decimal@Field_null@@UEAAPEAVmy_decimal@@PEAV2@@Z 0000000140030270 f i field.obj
 0001:0002f280       ?val_str@Field_null@@UEAAPEAVString@@PEAV2@0@Z 0000000140030280 f i field.obj
 0001:0002f290       ?cmp@Field_null@@UEAAHPEBD0@Z 0000000140030290 f i field.obj
 0001:0002f2a0       ?sort_string@Field_null@@UEAAXPEADI@Z 00000001400302a0 f i field.obj
 0001:0002f2b0       ?pack_length@Field_null@@UEBAKXZ 00000001400302b0 f i field.obj
 0001:0002f2c0       ?size_of@Field_null@@UEBAIXZ 00000001400302c0 f i field.obj
 0001:0002f2d0       ?max_display_length@Field_null@@UEAAKXZ 00000001400302d0 f i field.obj
 0001:0002f2e0       ??1Field_null@@UEAA@XZ     00000001400302e0 f i field.obj
 0001:0002f2f0       ??_EField_null@@UEAAPEAXI@Z 00000001400302f0 f i field.obj
 0001:0002f2f0       ??_GField_null@@UEAAPEAXI@Z 00000001400302f0 f i field.obj
 0001:0002f310       ??0Field_date@@QEAA@PEADPEAEEW4utype@Field@@PEBDPEAUst_table@@PEAUcharset_info_st@@@Z 0000000140030310 f i field.obj
 0001:0002f390       ?type@Field_date@@UEBA?AW4enum_field_types@@XZ 0000000140030390 f i field.obj
 0001:0002f3a0       ?key_type@Field_date@@UEBA?AW4ha_base_keytype@@XZ 00000001400303a0 f i field.obj
 0001:0002f3b0       ?cmp_type@Field_date@@UEBA?AW4Item_result@@XZ 00000001400303b0 f i field.obj
 0001:0002f3c0       ?reset@Field_date@@UEAAHXZ 00000001400303c0 f i field.obj
 0001:0002f3f0       ?pack_length@Field_date@@UEBAKXZ 00000001400303f0 f i field.obj
 0001:0002f400       ?can_be_compared_as_longlong@Field_date@@UEBA_NXZ 0000000140030400 f i field.obj
 0001:0002f410       ?zero_pack@Field_date@@UEBA_NXZ 0000000140030410 f i field.obj
 0001:0002f420       ??1Field_date@@UEAA@XZ     0000000140030420 f i field.obj
 0001:0002f430       ??_EField_date@@UEAAPEAXI@Z 0000000140030430 f i field.obj
 0001:0002f430       ??_GField_date@@UEAAPEAXI@Z 0000000140030430 f i field.obj
 0001:0002f450       ??0Field_newdate@@QEAA@PEADPEAEEW4utype@Field@@PEBDPEAUst_table@@PEAUcharset_info_st@@@Z 0000000140030450 f i field.obj
 0001:0002f4d0       ?type@Field_newdate@@UEBA?AW4enum_field_types@@XZ 00000001400304d0 f i field.obj
 0001:0002f4e0       ?real_type@Field_newdate@@UEBA?AW4enum_field_types@@XZ 00000001400304e0 f i field.obj
 0001:0002f4f0       ?key_type@Field_newdate@@UEBA?AW4ha_base_keytype@@XZ 00000001400304f0 f i field.obj
 0001:0002f500       ?cmp_type@Field_newdate@@UEBA?AW4Item_result@@XZ 0000000140030500 f i field.obj
 0001:0002f510       ?reset@Field_newdate@@UEAAHXZ 0000000140030510 f i field.obj
 0001:0002f530       ?pack_length@Field_newdate@@UEBAKXZ 0000000140030530 f i field.obj
 0001:0002f540       ?can_be_compared_as_longlong@Field_newdate@@UEBA_NXZ 0000000140030540 f i field.obj
 0001:0002f550       ?zero_pack@Field_newdate@@UEBA_NXZ 0000000140030550 f i field.obj
 0001:0002f560       ??1Field_newdate@@UEAA@XZ  0000000140030560 f i field.obj
 0001:0002f570       ??_EField_newdate@@UEAAPEAXI@Z 0000000140030570 f i field.obj
 0001:0002f570       ??_GField_newdate@@UEAAPEAXI@Z 0000000140030570 f i field.obj
 0001:0002f590       ??0Field_time@@QEAA@PEADPEAEEW4utype@Field@@PEBDPEAUst_table@@PEAUcharset_info_st@@@Z 0000000140030590 f i field.obj
 0001:0002f610       ?type@Field_time@@UEBA?AW4enum_field_types@@XZ 0000000140030610 f i field.obj
 0001:0002f620       ?key_type@Field_time@@UEBA?AW4ha_base_keytype@@XZ 0000000140030620 f i field.obj
 0001:0002f630       ?cmp_type@Field_time@@UEBA?AW4Item_result@@XZ 0000000140030630 f i field.obj
 0001:0002f640       ?reset@Field_time@@UEAAHXZ 0000000140030640 f i field.obj
 0001:0002f660       ?pack_length@Field_time@@UEBAKXZ 0000000140030660 f i field.obj
 0001:0002f670       ?can_be_compared_as_longlong@Field_time@@UEBA_NXZ 0000000140030670 f i field.obj
 0001:0002f680       ?zero_pack@Field_time@@UEBA_NXZ 0000000140030680 f i field.obj
 0001:0002f690       ??1Field_time@@UEAA@XZ     0000000140030690 f i field.obj
 0001:0002f6a0       ??_EField_time@@UEAAPEAXI@Z 00000001400306a0 f i field.obj
 0001:0002f6a0       ??_GField_time@@UEAAPEAXI@Z 00000001400306a0 f i field.obj
 0001:0002f6c0       ??0Field_datetime@@QEAA@PEADPEAEEW4utype@Field@@PEBDPEAUst_table@@PEAUcharset_info_st@@@Z 00000001400306c0 f i field.obj
 0001:0002f740       ?type@Field_datetime@@UEBA?AW4enum_field_types@@XZ 0000000140030740 f i field.obj
 0001:0002f750       ?key_type@Field_datetime@@UEBA?AW4ha_base_keytype@@XZ 0000000140030750 f i field.obj
 0001:0002f760       ?cmp_type@Field_datetime@@UEBA?AW4Item_result@@XZ 0000000140030760 f i field.obj
 0001:0002f770       ?decimals@Field_datetime@@UEBAIXZ 0000000140030770 f i field.obj
 0001:0002f780       ?reset@Field_datetime@@UEAAHXZ 0000000140030780 f i field.obj
 0001:0002f7e0       ?pack_length@Field_datetime@@UEBAKXZ 00000001400307e0 f i field.obj
 0001:0002f7f0       ?can_be_compared_as_longlong@Field_datetime@@UEBA_NXZ 00000001400307f0 f i field.obj
 0001:0002f800       ?zero_pack@Field_datetime@@UEBA_NXZ 0000000140030800 f i field.obj
 0001:0002f810       ??1Field_datetime@@UEAA@XZ 0000000140030810 f i field.obj
 0001:0002f820       ??_EField_datetime@@UEAAPEAXI@Z 0000000140030820 f i field.obj
 0001:0002f820       ??_GField_datetime@@UEAAPEAXI@Z 0000000140030820 f i field.obj
 0001:0002f840       ??0Field_string@@QEAA@PEADKPEAEEW4utype@Field@@PEBDPEAUst_table@@PEAUcharset_info_st@@@Z 0000000140030840 f i field.obj
 0001:0002f8c0       ?type@Field_string@@UEBA?AW4enum_field_types@@XZ 00000001400308c0 f i field.obj
 0001:0002f910       ?key_type@Field_string@@UEBA?AW4ha_base_keytype@@XZ 0000000140030910 f i field.obj
 0001:0002f940       ?zero_pack@Field_string@@UEBA_NXZ 0000000140030940 f i field.obj
 0001:0002f950       ?reset@Field_string@@UEAAHXZ 0000000140030950 f i field.obj
 0001:0002f9e0       ?size_of@Field_string@@UEBAIXZ 00000001400309e0 f i field.obj
 0001:0002f9f0       ?real_type@Field_string@@UEBA?AW4enum_field_types@@XZ 00000001400309f0 f i field.obj
 0001:0002fa00       ?has_charset@Field_string@@UEBA_NXZ 0000000140030a00 f i field.obj
 0001:0002fa30       ??1Field_string@@UEAA@XZ   0000000140030a30 f i field.obj
 0001:0002fa40       ?store@Field_string@@UEAAHN@Z 0000000140030a40 f i field.obj
 0001:0002fa50       ??_EField_string@@UEAAPEAXI@Z 0000000140030a50 f i field.obj
 0001:0002fa50       ??_GField_string@@UEAAPEAXI@Z 0000000140030a50 f i field.obj
 0001:0002fa70       ??0Field_varstring@@QEAA@PEADKIPEAEEW4utype@Field@@PEBDPEAUst_table@@PEAUcharset_info_st@@@Z 0000000140030a70 f i field.obj
 0001:0002fb10       ?type@Field_varstring@@UEBA?AW4enum_field_types@@XZ 0000000140030b10 f i field.obj
 0001:0002fb20       ?zero_pack@Field_varstring@@UEBA_NXZ 0000000140030b20 f i field.obj
 0001:0002fb30       ?reset@Field_varstring@@UEAAHXZ 0000000140030b30 f i field.obj
 0001:0002fb60       ?pack_length@Field_varstring@@UEBAKXZ 0000000140030b60 f i field.obj
 0001:0002fb70       ?key_length@Field_varstring@@UEBAKXZ 0000000140030b70 f i field.obj
 0001:0002fb80       ?sort_length@Field_varstring@@UEBAKXZ 0000000140030b80 f i field.obj
 0001:0002fbb0       ?size_of@Field_varstring@@UEBAIXZ 0000000140030bb0 f i field.obj
 0001:0002fbc0       ?real_type@Field_varstring@@UEBA?AW4enum_field_types@@XZ 0000000140030bc0 f i field.obj
 0001:0002fbd0       ?has_charset@Field_varstring@@UEBA_NXZ 0000000140030bd0 f i field.obj
 0001:0002fc00       ??1Field_varstring@@UEAA@XZ 0000000140030c00 f i field.obj
 0001:0002fc10       ?store@Field_varstring@@UEAAHN@Z 0000000140030c10 f i field.obj
 0001:0002fc20       ??_EField_varstring@@UEAAPEAXI@Z 0000000140030c20 f i field.obj
 0001:0002fc20       ??_GField_varstring@@UEAAPEAXI@Z 0000000140030c20 f i field.obj
 0001:0002fc40       ??0Field_varstring@@QEAA@K_NPEBDPEAUst_table@@PEAUcharset_info_st@@@Z 0000000140030c40 f i field.obj
 0001:0002fcf0       ??0Field_enum@@QEAA@PEADKPEAEEW4utype@Field@@PEBDPEAUst_table@@IPEAUst_typelib@@PEAUcharset_info_st@@@Z 0000000140030cf0 f i field.obj
 0001:0002fd90       ?type@Field_enum@@UEBA?AW4enum_field_types@@XZ 0000000140030d90 f i field.obj
 0001:0002fda0       ?cmp_type@Field_enum@@UEBA?AW4Item_result@@XZ 0000000140030da0 f i field.obj
 0001:0002fdb0       ?cast_to_int_type@Field_enum@@UEBA?AW4Item_result@@XZ 0000000140030db0 f i field.obj
 0001:0002fdc0       ?reset@Field_enum@@UEAAHXZ 0000000140030dc0 f i field.obj
 0001:0002fdf0       ?pack_length@Field_enum@@UEBAKXZ 0000000140030df0 f i field.obj
 0001:0002fe00       ?size_of@Field_enum@@UEBAIXZ 0000000140030e00 f i field.obj
 0001:0002fe10       ?real_type@Field_enum@@UEBA?AW4enum_field_types@@XZ 0000000140030e10 f i field.obj
 0001:0002fe20       ?zero_pack@Field_enum@@UEBA_NXZ 0000000140030e20 f i field.obj
 0001:0002fe30       ?optimize_range@Field_enum@@UEAA_NII@Z 0000000140030e30 f i field.obj
 0001:0002fe40       ?has_charset@Field_enum@@UEBA_NXZ 0000000140030e40 f i field.obj
 0001:0002fe50       ?sort_charset@Field_enum@@UEBAPEAUcharset_info_st@@XZ 0000000140030e50 f i field.obj
 0001:0002fe60       ??_GField_enum@@UEAAPEAXI@Z 0000000140030e60 f i field.obj
 0001:0002fe60       ??_EField_enum@@UEAAPEAXI@Z 0000000140030e60 f i field.obj
 0001:0002fe80       ??0Field_set@@QEAA@PEADKPEAEEW4utype@Field@@PEBDPEAUst_table@@KPEAUst_typelib@@PEAUcharset_info_st@@@Z 0000000140030e80 f i field.obj
 0001:0002ff30       ?zero_pack@Field_set@@UEBA_NXZ 0000000140030f30 f i field.obj
 0001:0002ff40       ?real_type@Field_set@@UEBA?AW4enum_field_types@@XZ 0000000140030f40 f i field.obj
 0001:0002ff50       ?has_charset@Field_set@@UEBA_NXZ 0000000140030f50 f i field.obj
 0001:0002ff60       ??1Field_set@@UEAA@XZ      0000000140030f60 f i field.obj
 0001:0002ff70       ??_GField_set@@UEAAPEAXI@Z 0000000140030f70 f i field.obj
 0001:0002ff70       ??_EField_set@@UEAAPEAXI@Z 0000000140030f70 f i field.obj
 0001:0002ff90       ?store@Field_set@@UEAAHN@Z 0000000140030f90 f i field.obj
 0001:0002ffa0       ??0Field_num@@QEAA@PEADKPEAEEW4utype@Field@@PEBDPEAUst_table@@E_N5@Z 0000000140030fa0 f   field.obj
 0001:00030040       ?result_type@Field_num@@UEBA?AW4Item_result@@XZ 0000000140031040 f i field.obj
 0001:00030050       ?decimals@Field_num@@UEBAIXZ 0000000140031050 f i field.obj
 0001:00030060       ?size_of@Field_num@@UEBAIXZ 0000000140031060 f i field.obj
 0001:00030070       ??_EField_num@@UEAAPEAXI@Z 0000000140031070 f i field.obj
 0001:00030070       ??_GField_num@@UEAAPEAXI@Z 0000000140031070 f i field.obj
 0001:00030090       ??0Field_new_decimal@@QEAA@PEADKPEAEEW4utype@Field@@PEBDPEAUst_table@@E_N5@Z 0000000140031090 f   field.obj
 0001:000301a0       ?type@Field_new_decimal@@UEBA?AW4enum_field_types@@XZ 00000001400311a0 f i field.obj
 0001:000301b0       ?key_type@Field_new_decimal@@UEBA?AW4ha_base_keytype@@XZ 00000001400311b0 f i field.obj
 0001:000301c0       ?result_type@Field_new_decimal@@UEBA?AW4Item_result@@XZ 00000001400311c0 f i field.obj
 0001:000301d0       ?zero_pack@Field_new_decimal@@UEBA_NXZ 00000001400311d0 f i field.obj
 0001:000301e0       ?max_display_length@Field_new_decimal@@UEAAKXZ 00000001400311e0 f i field.obj
 0001:000301f0       ?size_of@Field_new_decimal@@UEBAIXZ 00000001400311f0 f i field.obj
 0001:00030200       ?pack_length@Field_new_decimal@@UEBAKXZ 0000000140031200 f i field.obj
 0001:00030210       ??1Field_new_decimal@@UEAA@XZ 0000000140031210 f i field.obj
 0001:00030220       ??_GField_new_decimal@@UEAAPEAXI@Z 0000000140031220 f i field.obj
 0001:00030220       ??_EField_new_decimal@@UEAAPEAXI@Z 0000000140031220 f i field.obj
 0001:00030240       ??0Field_new_decimal@@QEAA@K_NPEBDPEAUst_table@@E0@Z 0000000140031240 f   field.obj
 0001:00030360       ?store@Field_float@@UEAAHPEBDIPEAUcharset_info_st@@@Z 0000000140031360 f   field.obj
 0001:00030450       ?store@Field_double@@UEAAHPEBDIPEAUcharset_info_st@@@Z 0000000140031450 f   field.obj
 0001:00030540       ?new_field@Field_string@@UEAAPEAVField@@PEAUst_mem_root@@PEAUst_table@@_N@Z 0000000140031540 f   field.obj
 0001:000306c0       ??0Field_blob@@QEAA@PEADPEAEEW4utype@Field@@PEBDPEAUst_table@@IPEAUcharset_info_st@@@Z 00000001400316c0 f   field.obj
 0001:000307c0       ?type@Field_blob@@UEBA?AW4enum_field_types@@XZ 00000001400317c0 f i field.obj
 0001:000307d0       ?key_type@Field_blob@@UEBA?AW4ha_base_keytype@@XZ 00000001400317d0 f i field.obj
 0001:00030800       ?key_length@Field_blob@@UEBAKXZ 0000000140031800 f i field.obj
 0001:00030810       ?reset@Field_blob@@UEAAHXZ 0000000140031810 f i field.obj
 0001:00030840       ?reset_fields@Field_blob@@UEAAXXZ 0000000140031840 f i field.obj
 0001:00030870       ?free@Field_blob@@UEAAXXZ  0000000140031870 f i field.obj
 0001:000308d0       ?size_of@Field_blob@@UEBAIXZ 00000001400318d0 f i field.obj
 0001:000308e0       ?has_charset@Field_blob@@UEBA_NXZ 00000001400318e0 f i field.obj
 0001:00030910       ??_GField_blob@@UEAAPEAXI@Z 0000000140031910 f i field.obj
 0001:00030910       ??_EField_blob@@UEAAPEAXI@Z 0000000140031910 f i field.obj
 0001:00030980       ??0Field_real@@QEAA@PEADKPEAEEW4utype@Field@@PEBDPEAUst_table@@E_N5@Z 0000000140031980 f i field.obj
 0001:00030a20       ?max_display_length@Field_real@@UEAAKXZ 0000000140031a20 f i field.obj
 0001:00030a30       ?size_of@Field_real@@UEBAIXZ 0000000140031a30 f i field.obj
 0001:00030a40       ??_GField_real@@UEAAPEAXI@Z 0000000140031a40 f i field.obj
 0001:00030a40       ??_EField_real@@UEAAPEAXI@Z 0000000140031a40 f i field.obj
 0001:00030a60       ??0Field_decimal@@QEAA@PEADKPEAEEW4utype@Field@@PEBDPEAUst_table@@E_N5@Z 0000000140031a60 f i field.obj
 0001:00030b00       ?type@Field_decimal@@UEBA?AW4enum_field_types@@XZ 0000000140031b00 f i field.obj
 0001:00030b10       ?key_type@Field_decimal@@UEBA?AW4ha_base_keytype@@XZ 0000000140031b10 f i field.obj
 0001:00030b30       ?zero_pack@Field_decimal@@UEBA_NXZ 0000000140031b30 f i field.obj
 0001:00030b40       ??1Field_decimal@@UEAA@XZ  0000000140031b40 f i field.obj
 0001:00030b50       ??_EField_decimal@@UEAAPEAXI@Z 0000000140031b50 f i field.obj
 0001:00030b50       ??_GField_decimal@@UEAAPEAXI@Z 0000000140031b50 f i field.obj
 0001:00030b70       ??0Field_tiny@@QEAA@PEADKPEAEEW4utype@Field@@PEBDPEAUst_table@@_N5@Z 0000000140031b70 f i field.obj
 0001:00030c00       ?result_type@Field_tiny@@UEBA?AW4Item_result@@XZ 0000000140031c00 f i field.obj
 0001:00030c10       ?type@Field_tiny@@UEBA?AW4enum_field_types@@XZ 0000000140031c10 f i field.obj
 0001:00030c20       ?key_type@Field_tiny@@UEBA?AW4ha_base_keytype@@XZ 0000000140031c20 f i field.obj
 0001:00030c40       ?reset@Field_tiny@@UEAAHXZ 0000000140031c40 f i field.obj
 0001:00030c50       ?pack_length@Field_tiny@@UEBAKXZ 0000000140031c50 f i field.obj
 0001:00030c60       ?max_display_length@Field_tiny@@UEAAKXZ 0000000140031c60 f i field.obj
 0001:00030c70       ??_EField_tiny@@UEAAPEAXI@Z 0000000140031c70 f i field.obj
 0001:00030c70       ??_GField_tiny@@UEAAPEAXI@Z 0000000140031c70 f i field.obj
 0001:00030c90       ??0Field_short@@QEAA@PEADKPEAEEW4utype@Field@@PEBDPEAUst_table@@_N5@Z 0000000140031c90 f i field.obj
 0001:00030d20       ?result_type@Field_short@@UEBA?AW4Item_result@@XZ 0000000140031d20 f i field.obj
 0001:00030d30       ?type@Field_short@@UEBA?AW4enum_field_types@@XZ 0000000140031d30 f i field.obj
 0001:00030d40       ?key_type@Field_short@@UEBA?AW4ha_base_keytype@@XZ 0000000140031d40 f i field.obj
 0001:00030d60       ?reset@Field_short@@UEAAHXZ 0000000140031d60 f i field.obj
 0001:00030d80       ?pack_length@Field_short@@UEBAKXZ 0000000140031d80 f i field.obj
 0001:00030d90       ?max_display_length@Field_short@@UEAAKXZ 0000000140031d90 f i field.obj
 0001:00030da0       ??1Field_short@@UEAA@XZ    0000000140031da0 f i field.obj
 0001:00030db0       ??_GField_short@@UEAAPEAXI@Z 0000000140031db0 f i field.obj
 0001:00030db0       ??_EField_short@@UEAAPEAXI@Z 0000000140031db0 f i field.obj
 0001:00030dd0       ??0Field_medium@@QEAA@PEADKPEAEEW4utype@Field@@PEBDPEAUst_table@@_N5@Z 0000000140031dd0 f i field.obj
 0001:00030e60       ?result_type@Field_medium@@UEBA?AW4Item_result@@XZ 0000000140031e60 f i field.obj
 0001:00030e70       ?type@Field_medium@@UEBA?AW4enum_field_types@@XZ 0000000140031e70 f i field.obj
 0001:00030e80       ?key_type@Field_medium@@UEBA?AW4ha_base_keytype@@XZ 0000000140031e80 f i field.obj
 0001:00030e90       ?reset@Field_medium@@UEAAHXZ 0000000140031e90 f i field.obj
 0001:00030eb0       ?pack_length@Field_medium@@UEBAKXZ 0000000140031eb0 f i field.obj
 0001:00030ec0       ?max_display_length@Field_medium@@UEAAKXZ 0000000140031ec0 f i field.obj
 0001:00030ed0       ??1Field_medium@@UEAA@XZ   0000000140031ed0 f i field.obj
 0001:00030ee0       ??_GField_medium@@UEAAPEAXI@Z 0000000140031ee0 f i field.obj
 0001:00030ee0       ??_EField_medium@@UEAAPEAXI@Z 0000000140031ee0 f i field.obj
 0001:00030f00       ??0Field_long@@QEAA@PEADKPEAEEW4utype@Field@@PEBDPEAUst_table@@_N5@Z 0000000140031f00 f i field.obj
 0001:00030f90       ?result_type@Field_long@@UEBA?AW4Item_result@@XZ 0000000140031f90 f i field.obj
 0001:00030fa0       ?type@Field_long@@UEBA?AW4enum_field_types@@XZ 0000000140031fa0 f i field.obj
 0001:00030fb0       ?key_type@Field_long@@UEBA?AW4ha_base_keytype@@XZ 0000000140031fb0 f i field.obj
 0001:00030fd0       ?reset@Field_long@@UEAAHXZ 0000000140031fd0 f i field.obj
 0001:00031000       ?pack_length@Field_long@@UEBAKXZ 0000000140032000 f i field.obj
 0001:00031010       ?max_display_length@Field_long@@UEAAKXZ 0000000140032010 f i field.obj
 0001:00031020       ??1Field_long@@UEAA@XZ     0000000140032020 f i field.obj
 0001:00031030       ??_EField_long@@UEAAPEAXI@Z 0000000140032030 f i field.obj
 0001:00031030       ??_GField_long@@UEAAPEAXI@Z 0000000140032030 f i field.obj
 0001:00031050       ??0Field_longlong@@QEAA@PEADKPEAEEW4utype@Field@@PEBDPEAUst_table@@_N5@Z 0000000140032050 f i field.obj
 0001:000310e0       ?result_type@Field_longlong@@UEBA?AW4Item_result@@XZ 00000001400320e0 f i field.obj
 0001:000310f0       ?type@Field_longlong@@UEBA?AW4enum_field_types@@XZ 00000001400320f0 f i field.obj
 0001:00031100       ?key_type@Field_longlong@@UEBA?AW4ha_base_keytype@@XZ 0000000140032100 f i field.obj
 0001:00031110       ?reset@Field_longlong@@UEAAHXZ 0000000140032110 f i field.obj
 0001:00031170       ?pack_length@Field_longlong@@UEBAKXZ 0000000140032170 f i field.obj
 0001:00031180       ?can_be_compared_as_longlong@Field_longlong@@UEBA_NXZ 0000000140032180 f i field.obj
 0001:00031190       ?max_display_length@Field_longlong@@UEAAKXZ 0000000140032190 f i field.obj
 0001:000311a0       ??1Field_longlong@@UEAA@XZ 00000001400321a0 f i field.obj
 0001:000311b0       ??_EField_longlong@@UEAAPEAXI@Z 00000001400321b0 f i field.obj
 0001:000311b0       ??_GField_longlong@@UEAAPEAXI@Z 00000001400321b0 f i field.obj
 0001:000311d0       ??0Field_float@@QEAA@PEADKPEAEEW4utype@Field@@PEBDPEAUst_table@@E_N5@Z 00000001400321d0 f i field.obj
 0001:00031270       ?type@Field_float@@UEBA?AW4enum_field_types@@XZ 0000000140032270 f i field.obj
 0001:00031280       ?key_type@Field_float@@UEBA?AW4ha_base_keytype@@XZ 0000000140032280 f i field.obj
 0001:00031290       ?reset@Field_float@@UEAAHXZ 0000000140032290 f i field.obj
 0001:000312a0       ?pack_length@Field_float@@UEBAKXZ 00000001400322a0 f i field.obj
 0001:000312b0       ??1Field_float@@UEAA@XZ    00000001400322b0 f i field.obj
 0001:000312c0       ??_EField_float@@UEAAPEAXI@Z 00000001400322c0 f i field.obj
 0001:000312c0       ??_GField_float@@UEAAPEAXI@Z 00000001400322c0 f i field.obj
 0001:000312e0       ??0Field_double@@QEAA@PEADKPEAEEW4utype@Field@@PEBDPEAUst_table@@E_N5@Z 00000001400322e0 f i field.obj
 0001:00031380       ?type@Field_double@@UEBA?AW4enum_field_types@@XZ 0000000140032380 f i field.obj
 0001:00031390       ?key_type@Field_double@@UEBA?AW4ha_base_keytype@@XZ 0000000140032390 f i field.obj
 0001:000313a0       ?reset@Field_double@@UEAAHXZ 00000001400323a0 f i field.obj
 0001:000313b0       ?pack_length@Field_double@@UEBAKXZ 00000001400323b0 f i field.obj
 0001:000313c0       ??1Field_double@@UEAA@XZ   00000001400323c0 f i field.obj
 0001:000313d0       ??_EField_double@@UEAAPEAXI@Z 00000001400323d0 f i field.obj
 0001:000313d0       ??_GField_double@@UEAAPEAXI@Z 00000001400323d0 f i field.obj
 0001:000313f0       ??0Field_year@@QEAA@PEADKPEAEEW4utype@Field@@PEBDPEAUst_table@@@Z 00000001400323f0 f i field.obj
 0001:00031470       ?type@Field_year@@UEBA?AW4enum_field_types@@XZ 0000000140032470 f i field.obj
 0001:00031480       ?can_be_compared_as_longlong@Field_year@@UEBA_NXZ 0000000140032480 f i field.obj
 0001:00031490       ??1Field_year@@UEAA@XZ     0000000140032490 f i field.obj
 0001:000314a0       ??_EField_year@@UEAAPEAXI@Z 00000001400324a0 f i field.obj
 0001:000314a0       ??_GField_year@@UEAAPEAXI@Z 00000001400324a0 f i field.obj
 0001:000314c0       ??0Field_geom@@QEAA@PEADPEAEIW4utype@Field@@PEBDPEAUst_table@@IW4geometry_type@2@@Z 00000001400324c0 f i field.obj
 0001:00031550       ?key_type@Field_geom@@UEBA?AW4ha_base_keytype@@XZ 0000000140032550 f i field.obj
 0001:00031560       ?type@Field_geom@@UEBA?AW4enum_field_types@@XZ 0000000140032560 f i field.obj
 0001:00031570       ?size_of@Field_geom@@UEBAIXZ 0000000140032570 f i field.obj
 0001:00031580       ?reset@Field_geom@@UEAAHXZ 0000000140032580 f i field.obj
 0001:000315d0       ?get_geometry_type@Field_geom@@UEAA?AW4geometry_type@Field@@XZ 00000001400325d0 f i field.obj
 0001:000315e0       ??1Field_geom@@UEAA@XZ     00000001400325e0 f i field.obj
 0001:00031660       ??_EField_geom@@UEAAPEAXI@Z 0000000140032660 f i field.obj
 0001:00031660       ??_GField_geom@@UEAAPEAXI@Z 0000000140032660 f i field.obj
 0001:000316d0       ?make_field@@YAPEAVField@@PEADKPEAEEIW4enum_field_types@@PEAUcharset_info_st@@W4geometry_type@1@W4utype@1@PEAUst_typelib@@PEBDPEAUst_table@@@Z 00000001400326d0 f   field.obj
 0001:00032750       init_dbghelp_functions     0000000140033750 f   stacktrace.obj
 0001:000328f0       set_exception_pointers     00000001400338f0 f   stacktrace.obj
 0001:00032ab0       print_stacktrace           0000000140033ab0 f   stacktrace.obj
 0001:00032ed0       write_core                 0000000140033ed0 f   stacktrace.obj
 0001:000331a0       safe_print_str             00000001400341a0 f   stacktrace.obj
 0001:00033240       ?set_quick@String@@QEAAXPEADKPEAUcharset_info_st@@@Z 0000000140034240 f i field_conv.obj
 0001:00033260       ?is_alloced@String@@QEAA_NXZ 0000000140034260 f i field_conv.obj
 0001:00033270       ?real_maybe_null@Field@@QEAA_NXZ 0000000140034270 f i field_conv.obj
 0001:00033560       ?set_field_to_null@@YAHPEAVField@@@Z 0000000140034560 f   field_conv.obj
 0001:00033620       ?set_field_to_null_with_conversions@@YAHPEAVField@@_N@Z 0000000140034620 f   field_conv.obj
 0001:00034280       ?set@Copy_field@@QEAAXPEADPEAVField@@@Z 0000000140035280 f   field_conv.obj
 0001:000344e0       ?get_copy_func@Copy_field@@AEAAP6AXPEAV1@@ZPEAVField@@1@Z 00000001400354e0 f   field_conv.obj
 0001:00034b00       ?field_conv@@YAHPEAVField@@0@Z 0000000140035b00 f   field_conv.obj
 0001:000350b0       ?set@Copy_field@@QEAAXPEAVField@@0_N@Z 00000001400360b0 f   field_conv.obj
 0001:000352a0       ?ha_rnd_init@handler@@QEAAH_N@Z 00000001400362a0 f i filesort.obj
 0001:000352c0       ?ha_rnd_end@handler@@QEAAHXZ 00000001400362c0 f i filesort.obj
 0001:000352e0       ?is_null@Field@@QEAA_NI@Z  00000001400362e0 f i filesort.obj
 0001:00035320       ?is_uncacheable@Item_subselect@@QEBA_NXZ 0000000140036320 f i filesort.obj
 0001:00035350       ?skip_record@SQL_SELECT@@QEAA_NXZ 0000000140036350 f i filesort.obj
 0001:00035390       ?filesort_free_buffers@@YAXPEAUst_table@@_N@Z 0000000140036390 f   filesort.obj
 0001:00035900       ?read_to_buffer@@YAIPEAUst_io_cache@@PEAUst_buffpek@@I@Z 0000000140036900 f   filesort.obj
 0001:000359b0       ?reuse_freed_buff@@YAXPEAUst_queue@@PEAUst_buffpek@@I@Z 00000001400369b0 f   filesort.obj
 0001:00035a70       ?merge_buffers@@YAHPEAUst_sort_param@@PEAUst_io_cache@@1PEAEPEAUst_buffpek@@33H@Z 0000000140036a70 f   filesort.obj
 0001:00036730       ?change_double_for_sort@@YAXNPEAE@Z 0000000140037730 f   filesort.obj
 0001:00036ed0       ?merge_many_buff@@YAHPEAUst_sort_param@@PEAEPEAUst_buffpek@@PEAIPEAUst_io_cache@@@Z 0000000140037ed0 f   filesort.obj
 0001:00037730       ?filesort@@YA_KPEAVTHD@@PEAUst_table@@PEAUst_sort_field@@IPEAVSQL_SELECT@@_KPEA_K@Z 0000000140038730 f   filesort.obj
 0001:00037f40       ?skip_space@Gis_read_stream@@QEAAXXZ 0000000140038f40 f i gstream.obj
 0001:00037f90       ?get_next_toc_type@Gis_read_stream@@QEAA?AW4enum_tok_types@1@XZ 0000000140038f90 f   gstream.obj
 0001:00038050       ?get_next_word@Gis_read_stream@@QEAA_NPEAUst_lex_string@@@Z 0000000140039050 f   gstream.obj
 0001:00038120       ?set_error_msg@Gis_read_stream@@QEAAXPEBD@Z 0000000140039120 f   gstream.obj
 0001:00038190       ?get_next_number@Gis_read_stream@@QEAA_NPEAN@Z 0000000140039190 f   gstream.obj
 0001:00038290       ?check_next_symbol@Gis_read_stream@@QEAA_ND@Z 0000000140039290 f   gstream.obj
 0001:00038360       ??0handler@@QEAA@PEBUhandlerton@@PEAUst_table@@@Z 0000000140039360 f i ha_blackhole.obj
 0001:00038420       ??3Sql_alloc@@SAXPEAX_K@Z  0000000140039420 f i ha_blackhole.obj
 0001:00038430       ?index_init@handler@@MEAAHI@Z 0000000140039430 f i ha_blackhole.obj
 0001:00038440       ?index_end@handler@@MEAAHXZ 0000000140039440 f i ha_blackhole.obj
 0001:00038450       ?rnd_end@handler@@MEAAHXZ  0000000140039450 f i ha_blackhole.obj
 0001:00038460       ?external_lock@handler@@MEAAHPEAVTHD@@H@Z 0000000140039460 f i ha_blackhole.obj
 0001:00038470       ??1handler@@UEAA@XZ        0000000140039470 f i ha_blackhole.obj
 0001:00038480       ?scan_time@handler@@UEAANXZ 0000000140039480 f i ha_blackhole.obj
 0001:000384b0       ?read_time@handler@@UEAANII_K@Z 00000001400394b0 f i ha_blackhole.obj
 0001:000384d0       ?keys_to_use_for_scanning@handler@@UEAAPEBV?$Bitmap@$0EA@@@XZ 00000001400394d0 f i ha_blackhole.obj
 0001:000384e0       ?has_transactions@handler@@UEAA_NXZ 00000001400394e0 f i ha_blackhole.obj
 0001:000384f0       ?extra_rec_buf_length@handler@@UEAAIXZ 00000001400394f0 f i ha_blackhole.obj
 0001:00038500       ?estimate_rows_upper_bound@handler@@UEAA_KXZ 0000000140039500 f i ha_blackhole.obj
 0001:00038510       ?get_row_type@handler@@UEBA?AW4row_type@@XZ 0000000140039510 f i ha_blackhole.obj
 0001:00038520       ?index_type@handler@@UEAAPEBDI@Z 0000000140039520 f i ha_blackhole.obj
 0001:00038530       ?write_row@handler@@UEAAHPEAE@Z 0000000140039530 f i ha_blackhole.obj
 0001:00038540       ?update_row@handler@@UEAAHPEBEPEAE@Z 0000000140039540 f i ha_blackhole.obj
 0001:00038550       ?delete_row@handler@@UEAAHPEBE@Z 0000000140039550 f i ha_blackhole.obj
 0001:00038560       ?index_read@handler@@UEAAHPEAEPEBEIW4ha_rkey_function@@@Z 0000000140039560 f i ha_blackhole.obj
 0001:00038570       ?index_next@handler@@UEAAHPEAE@Z 0000000140039570 f i ha_blackhole.obj
 0001:00038580       ?index_prev@handler@@UEAAHPEAE@Z 0000000140039580 f i ha_blackhole.obj
 0001:00038590       ?index_first@handler@@UEAAHPEAE@Z 0000000140039590 f i ha_blackhole.obj
 0001:000385a0       ?index_last@handler@@UEAAHPEAE@Z 00000001400395a0 f i ha_blackhole.obj
 0001:000385b0       ?index_read_last@handler@@UEAAHPEAEPEBEI@Z 00000001400395b0 f i ha_blackhole.obj
 0001:000385d0       ?ft_init@handler@@UEAAHXZ  00000001400395d0 f i ha_blackhole.obj
 0001:000385e0       ?ft_init_ext@handler@@UEAAPEAUst_ft_info@@IIPEAVString@@@Z 00000001400395e0 f i ha_blackhole.obj
 0001:000385f0       ?ft_read@handler@@UEAAHPEAE@Z 00000001400395f0 f i ha_blackhole.obj
 0001:00038600       ?restart_rnd_next@handler@@UEAAHPEAE0@Z 0000000140039600 f i ha_blackhole.obj
 0001:00038610       ?rnd_same@handler@@UEAAHPEAEI@Z 0000000140039610 f i ha_blackhole.obj
 0001:00038620       ?records_in_range@handler@@UEAA_KIPEAUst_key_range@@0@Z 0000000140039620 f i ha_blackhole.obj
 0001:00038630       ?extra@handler@@UEAAHW4ha_extra_function@@@Z 0000000140039630 f i ha_blackhole.obj
 0001:00038640       ?extra_opt@handler@@UEAAHW4ha_extra_function@@K@Z 0000000140039640 f i ha_blackhole.obj
 0001:00038650       ?reset@handler@@UEAAHXZ    0000000140039650 f i ha_blackhole.obj
 0001:00038670       ?unlock_row@handler@@UEAAXXZ 0000000140039670 f i ha_blackhole.obj
 0001:00038680       ?start_stmt@handler@@UEAAHPEAVTHD@@W4thr_lock_type@@@Z 0000000140039680 f i ha_blackhole.obj
 0001:00038690       ?delete_all_rows@handler@@UEAAHXZ 0000000140039690 f i ha_blackhole.obj
 0001:000386b0       ?reset_auto_increment@handler@@UEAAH_K@Z 00000001400396b0 f i ha_blackhole.obj
 0001:000386c0       ?update_create_info@handler@@UEAAXPEAUst_ha_create_information@@@Z 00000001400396c0 f i ha_blackhole.obj
 0001:000386d0       ?check@handler@@MEAAHPEAVTHD@@PEAUst_ha_check_opt@@@Z 00000001400396d0 f i ha_blackhole.obj
 0001:000386e0       ?check_for_upgrade@handler@@MEAAHPEAUst_ha_check_opt@@@Z 00000001400396e0 f i ha_blackhole.obj
 0001:000386f0       ?backup@handler@@UEAAHPEAVTHD@@PEAUst_ha_check_opt@@@Z 00000001400396f0 f i ha_blackhole.obj
 0001:00038700       ?restore@handler@@UEAAHPEAVTHD@@PEAUst_ha_check_opt@@@Z 0000000140039700 f i ha_blackhole.obj
 0001:00038710       ?repair@handler@@MEAAHPEAVTHD@@PEAUst_ha_check_opt@@@Z 0000000140039710 f i ha_blackhole.obj
 0001:00038720       ?optimize@handler@@UEAAHPEAVTHD@@PEAUst_ha_check_opt@@@Z 0000000140039720 f i ha_blackhole.obj
 0001:00038730       ?analyze@handler@@UEAAHPEAVTHD@@PEAUst_ha_check_opt@@@Z 0000000140039730 f i ha_blackhole.obj
 0001:00038740       ?assign_to_keycache@handler@@UEAAHPEAVTHD@@PEAUst_ha_check_opt@@@Z 0000000140039740 f i ha_blackhole.obj
 0001:00038750       ?preload_keys@handler@@UEAAHPEAVTHD@@PEAUst_ha_check_opt@@@Z 0000000140039750 f i ha_blackhole.obj
 0001:00038760       ?check_and_repair@handler@@UEAA_NPEAVTHD@@@Z 0000000140039760 f i ha_blackhole.obj
 0001:00038770       ?dump@handler@@UEAAHPEAVTHD@@H@Z 0000000140039770 f i ha_blackhole.obj
 0001:00038780       ?disable_indexes@handler@@UEAAHI@Z 0000000140039780 f i ha_blackhole.obj
 0001:00038790       ?enable_indexes@handler@@UEAAHI@Z 0000000140039790 f i ha_blackhole.obj
 0001:000387a0       ?indexes_are_disabled@handler@@UEAAHXZ 00000001400397a0 f i ha_blackhole.obj
 0001:000387b0       ?start_bulk_insert@handler@@UEAAX_K@Z 00000001400397b0 f i ha_blackhole.obj
 0001:000387c0       ?end_bulk_insert@handler@@UEAAHXZ 00000001400397c0 f i ha_blackhole.obj
 0001:000387d0       ?discard_or_import_tablespace@handler@@UEAAHD@Z 00000001400397d0 f i ha_blackhole.obj
 0001:000387e0       ?net_read_dump@handler@@UEAAHPEAUst_net@@@Z 00000001400397e0 f i ha_blackhole.obj
 0001:000387f0       ?update_table_comment@handler@@UEAAPEADPEBD@Z 00000001400397f0 f i ha_blackhole.obj
 0001:00038800       ?append_create_info@handler@@UEAAXPEAVString@@@Z 0000000140039800 f i ha_blackhole.obj
 0001:00038810       ?get_foreign_key_create_info@handler@@UEAAPEADXZ 0000000140039810 f i ha_blackhole.obj
 0001:00038820       ?can_switch_engines@handler@@UEAA_NXZ 0000000140039820 f i ha_blackhole.obj
 0001:00038830       ?get_foreign_key_list@handler@@UEAAHPEAVTHD@@PEAV?$List@Ust_foreign_key_info@@@@@Z 0000000140039830 f i ha_blackhole.obj
 0001:00038840       ?referenced_by_foreign_key@handler@@UEAAIXZ 0000000140039840 f i ha_blackhole.obj
 0001:00038850       ?init_table_handle_for_HANDLER@handler@@UEAAXXZ 0000000140039850 f i ha_blackhole.obj
 0001:00038860       ?free_foreign_key_create_info@handler@@UEAAXPEAD@Z 0000000140039860 f i ha_blackhole.obj
 0001:00038870       ?index_ddl_flags@handler@@UEBAKPEAUst_key@@@Z 0000000140039870 f i ha_blackhole.obj
 0001:00038880       ?add_index@handler@@UEAAHPEAUst_table@@PEAUst_key@@I@Z 0000000140039880 f i ha_blackhole.obj
 0001:00038890       ?drop_index@handler@@UEAAHPEAUst_table@@PEAII@Z 0000000140039890 f i ha_blackhole.obj
 0001:000388a0       ?max_supported_record_length@handler@@UEBAIXZ 00000001400398a0 f i ha_blackhole.obj
 0001:000388b0       ?max_supported_keys@handler@@UEBAIXZ 00000001400398b0 f i ha_blackhole.obj
 0001:000388c0       ?max_supported_key_parts@handler@@UEBAIXZ 00000001400398c0 f i ha_blackhole.obj
 0001:000388d0       ?max_supported_key_length@handler@@UEBAIXZ 00000001400398d0 f i ha_blackhole.obj
 0001:000388e0       ?max_supported_key_part_length@handler@@UEBAIXZ 00000001400398e0 f i ha_blackhole.obj
 0001:000388f0       ?min_record_length@handler@@UEBAII@Z 00000001400398f0 f i ha_blackhole.obj
 0001:00038900       ?low_byte_first@handler@@UEBA_NXZ 0000000140039900 f i ha_blackhole.obj
 0001:00038910       ?checksum@handler@@UEBAIXZ 0000000140039910 f i ha_blackhole.obj
 0001:00038920       ?is_crashed@handler@@UEBA_NXZ 0000000140039920 f i ha_blackhole.obj
 0001:00038930       ?auto_repair@handler@@UEBA_NXZ 0000000140039930 f i ha_blackhole.obj
 0001:00038940       ?lock_count@handler@@UEBAIXZ 0000000140039940 f i ha_blackhole.obj
 0001:00038950       ?table_cache_type@handler@@UEAAEXZ 0000000140039950 f i ha_blackhole.obj
 0001:00038960       ?register_query_cache_table@handler@@UEAADPEAVTHD@@PEADIPEAP6AD01IPEA_K@Z2@Z 0000000140039960 f i ha_blackhole.obj
 0001:00038980       ?primary_key_is_clustered@handler@@UEAA_NXZ 0000000140039980 f i ha_blackhole.obj
 0001:00038990       ?cmp_ref@handler@@UEAAHPEBE0@Z 0000000140039990 f i ha_blackhole.obj
 0001:000389b0       ?cond_push@handler@@UEAAPEBVItem@@PEBV2@@Z 00000001400399b0 f i ha_blackhole.obj
 0001:000389c0       ?cond_pop@handler@@UEAAXXZ 00000001400399c0 f i ha_blackhole.obj
 0001:000389d0       ??_Ehandler@@UEAAPEAXI@Z   00000001400399d0 f i ha_blackhole.obj
 0001:000389d0       ??_Ghandler@@UEAAPEAXI@Z   00000001400399d0 f i ha_blackhole.obj
 0001:000389f0       ??0ha_blackhole@@QEAA@PEAUst_table@@@Z 00000001400399f0 f   ha_blackhole.obj
 0001:00038ac0       ??1ha_blackhole@@UEAA@XZ   0000000140039ac0 f i ha_blackhole.obj
 0001:00038ad0       ?table_type@ha_blackhole@@UEBAPEBDXZ 0000000140039ad0 f i ha_blackhole.obj
 0001:00038ae0       ?table_flags@ha_blackhole@@UEBAKXZ 0000000140039ae0 f i ha_blackhole.obj
 0001:00038af0       ?index_flags@ha_blackhole@@UEBAKII_N@Z 0000000140039af0 f i ha_blackhole.obj
 0001:00038b20       ?max_supported_keys@ha_blackhole@@UEBAIXZ 0000000140039b20 f i ha_blackhole.obj
 0001:00038b30       ?max_supported_key_length@ha_blackhole@@UEBAIXZ 0000000140039b30 f i ha_blackhole.obj
 0001:00038b40       ?max_supported_key_part_length@ha_blackhole@@UEBAIXZ 0000000140039b40 f i ha_blackhole.obj
 0001:00038b50       ??_Gha_blackhole@@UEAAPEAXI@Z 0000000140039b50 f i ha_blackhole.obj
 0001:00038b50       ??_Eha_blackhole@@UEAAPEAXI@Z 0000000140039b50 f i ha_blackhole.obj
 0001:00038b70       ?bas_ext@ha_blackhole@@UEBAPEAPEBDXZ 0000000140039b70 f   ha_blackhole.obj
 0001:00038b80       ?create@ha_blackhole@@UEAAHPEBDPEAUst_table@@PEAUst_ha_create_information@@@Z 0000000140039b80 f   ha_blackhole.obj
 0001:00038b90       ?index_type@ha_blackhole@@UEAAPEBDI@Z 0000000140039b90 f   ha_blackhole.obj
 0001:00038bf0       ?write_row@ha_blackhole@@UEAAHPEAE@Z 0000000140039bf0 f   ha_blackhole.obj
 0001:00038c10       ?rnd_init@ha_blackhole@@UEAAH_N@Z 0000000140039c10 f   ha_blackhole.obj
 0001:00038c20       ?rnd_next@ha_blackhole@@UEAAHPEAE@Z 0000000140039c20 f   ha_blackhole.obj
 0001:00038c30       ?rnd_pos@ha_blackhole@@UEAAHPEAE0@Z 0000000140039c30 f   ha_blackhole.obj
 0001:00038c40       ?position@ha_blackhole@@UEAAXPEBE@Z 0000000140039c40 f   ha_blackhole.obj
 0001:00038c50       ?info@ha_blackhole@@UEAAHI@Z 0000000140039c50 f   ha_blackhole.obj
 0001:00038c90       ?external_lock@ha_blackhole@@UEAAHPEAVTHD@@H@Z 0000000140039c90 f   ha_blackhole.obj
 0001:00038ca0       ?store_lock@ha_blackhole@@UEAAPEAPEAUst_thr_lock_data@@PEAVTHD@@PEAPEAU2@W4thr_lock_type@@@Z 0000000140039ca0 f   ha_blackhole.obj
 0001:00038d10       ?index_read@ha_blackhole@@UEAAHPEAEPEBEIW4ha_rkey_function@@@Z 0000000140039d10 f   ha_blackhole.obj
 0001:00038d20       ?index_read_idx@ha_blackhole@@UEAAHPEAEIPEBEIW4ha_rkey_function@@@Z 0000000140039d20 f   ha_blackhole.obj
 0001:00038d30       ?index_read_last@ha_blackhole@@UEAAHPEAEPEBEI@Z 0000000140039d30 f   ha_blackhole.obj
 0001:00038d40       ?index_next@ha_blackhole@@UEAAHPEAE@Z 0000000140039d40 f   ha_blackhole.obj
 0001:00038d50       ?index_prev@ha_blackhole@@UEAAHPEAE@Z 0000000140039d50 f   ha_blackhole.obj
 0001:00038d60       ?index_first@ha_blackhole@@UEAAHPEAE@Z 0000000140039d60 f   ha_blackhole.obj
 0001:00038d70       ?index_last@ha_blackhole@@UEAAHPEAE@Z 0000000140039d70 f   ha_blackhole.obj
 0001:00038f30       ?blackhole_db_init@@YA_NXZ 0000000140039f30 f   ha_blackhole.obj
 0001:00038fe0       ?blackhole_db_end@@YA_NXZ  0000000140039fe0 f   ha_blackhole.obj
 0001:00039030       ?open@ha_blackhole@@UEAAHPEBDHI@Z 000000014003a030 f   ha_blackhole.obj
 0001:00039090       ?close@ha_blackhole@@UEAAHXZ 000000014003a090 f   ha_blackhole.obj
 0001:000390b0       ??0st_ha_check_opt@@QEAA@XZ 000000014003a0b0 f i ha_archive.obj
 0001:000390c0       ?set_ptr@Field_blob@@QEAAXKPEAD@Z 000000014003a0c0 f i ha_archive.obj
 0001:00039110       ?archive_db_init@@YA_NXZ   000000014003a110 f   ha_archive.obj
 0001:00039210       ?archive_db_end@@YA_NXZ    000000014003a210 f   ha_archive.obj
 0001:00039250       ?read_data_header@ha_archive@@QEAAHPEAX@Z 000000014003a250 f   ha_archive.obj
 0001:000392e0       ?write_data_header@ha_archive@@QEAAHPEAX@Z 000000014003a2e0 f   ha_archive.obj
 0001:00039330       ?read_meta_file@ha_archive@@QEAAHHPEA_K@Z 000000014003a330 f   ha_archive.obj
 0001:000393e0       ?write_meta_file@ha_archive@@QEAAHH_K_N@Z 000000014003a3e0 f   ha_archive.obj
 0001:000394a0       ?get_share@ha_archive@@QEAAPEAUst_archive_share@@PEBDPEAH@Z 000000014003a4a0 f   ha_archive.obj
 0001:00039790       ?free_share@ha_archive@@QEAAHXZ 000000014003a790 f   ha_archive.obj
 0001:00039900       ?init_archive_writer@ha_archive@@QEAAHXZ 000000014003a900 f   ha_archive.obj
 0001:000399d0       ?bas_ext@ha_archive@@UEBAPEAPEBDXZ 000000014003a9d0 f   ha_archive.obj
 0001:000399e0       ?open@ha_archive@@UEAAHPEBDHI@Z 000000014003a9e0 f   ha_archive.obj
 0001:00039b40       ?close@ha_archive@@UEAAHXZ 000000014003ab40 f   ha_archive.obj
 0001:00039b90       ?create@ha_archive@@UEAAHPEBDPEAUst_table@@PEAUst_ha_create_information@@@Z 000000014003ab90 f   ha_archive.obj
 0001:00039d70       ?real_write_row@ha_archive@@QEAAHPEAEPEAX@Z 000000014003ad70 f   ha_archive.obj
 0001:00039fb0       ?write_row@ha_archive@@UEAAHPEAE@Z 000000014003afb0 f   ha_archive.obj
 0001:0003a100       ?rnd_init@ha_archive@@UEAAH_N@Z 000000014003b100 f   ha_archive.obj
 0001:0003a1f0       ?get_row@ha_archive@@QEAAHPEAXPEAE@Z 000000014003b1f0 f   ha_archive.obj
 0001:0003a3d0       ?rnd_next@ha_archive@@UEAAHPEAE@Z 000000014003b3d0 f   ha_archive.obj
 0001:0003a4a0       ?position@ha_archive@@UEAAXPEBE@Z 000000014003b4a0 f   ha_archive.obj
 0001:0003a4c0       ?rnd_pos@ha_archive@@UEAAHPEAE0@Z 000000014003b4c0 f   ha_archive.obj
 0001:0003a540       ?repair@ha_archive@@UEAAHPEAVTHD@@PEAUst_ha_check_opt@@@Z 000000014003b540 f   ha_archive.obj
 0001:0003a590       ?optimize@ha_archive@@UEAAHPEAVTHD@@PEAUst_ha_check_opt@@@Z 000000014003b590 f   ha_archive.obj
 0001:0003a920       ?store_lock@ha_archive@@UEAAPEAPEAUst_thr_lock_data@@PEAVTHD@@PEAPEAU2@W4thr_lock_type@@@Z 000000014003b920 f   ha_archive.obj
 0001:0003a9c0       ?info@ha_archive@@UEAAHI@Z 000000014003b9c0 f   ha_archive.obj
 0001:0003aa90       ?start_bulk_insert@ha_archive@@UEAAX_K@Z 000000014003ba90 f   ha_archive.obj
 0001:0003aab0       ?end_bulk_insert@ha_archive@@UEAAHXZ 000000014003bab0 f   ha_archive.obj
 0001:0003aad0       ?delete_all_rows@ha_archive@@UEAAHXZ 000000014003bad0 f   ha_archive.obj
 0001:0003aae0       ?is_crashed@ha_archive@@UEBA_NXZ 000000014003bae0 f   ha_archive.obj
 0001:0003ab00       ?check@ha_archive@@UEAAHPEAVTHD@@PEAUst_ha_check_opt@@@Z 000000014003bb00 f   ha_archive.obj
 0001:0003ac70       ?check_and_repair@ha_archive@@UEAA_NPEAVTHD@@@Z 000000014003bc70 f   ha_archive.obj
 0001:0003acc0       ?set@String@@QEAAXPEADKPEAUcharset_info_st@@@Z 000000014003bcc0 f i ha_archive.obj
 0001:0003ad50       ??0ha_archive@@QEAA@PEAUst_table@@@Z 000000014003bd50 f   ha_archive.obj
 0001:0003af10       ?table_type@ha_archive@@UEBAPEBDXZ 000000014003bf10 f i ha_archive.obj
 0001:0003af20       ?index_type@ha_archive@@UEAAPEBDI@Z 000000014003bf20 f i ha_archive.obj
 0001:0003af30       ?table_flags@ha_archive@@UEBAKXZ 000000014003bf30 f i ha_archive.obj
 0001:0003af40       ?index_flags@ha_archive@@UEBAKII_N@Z 000000014003bf40 f i ha_archive.obj
 0001:0003af50       ?auto_repair@ha_archive@@UEBA_NXZ 000000014003bf50 f i ha_archive.obj
 0001:0003af60       ?get_row_type@ha_archive@@UEBA?AW4row_type@@XZ 000000014003bf60 f i ha_archive.obj
 0001:0003af70       ??1ha_archive@@UEAA@XZ     000000014003bf70 f i ha_archive.obj
 0001:0003b000       ??_Gha_archive@@UEAAPEAXI@Z 000000014003c000 f i ha_archive.obj
 0001:0003b000       ??_Eha_archive@@UEAAPEAXI@Z 000000014003c000 f i ha_archive.obj
 0001:0003b080       ??0?$Bitmap@$0EA@@@QEAA@XZ 000000014003c080 f i ha_heap.obj
 0001:0003b090       ?set_bit@?$Bitmap@$0EA@@@QEAAXI@Z 000000014003c090 f i ha_heap.obj
 0001:0003b0b0       ?clear_all@?$Bitmap@$0EA@@@QEAAXXZ 000000014003c0b0 f i ha_heap.obj
 0001:0003b0c0       ??0st_sql_list@@QEAA@XZ    000000014003c0c0 f i ha_heap.obj
 0001:0003b0d0       ??0ha_heap@@QEAA@PEAUst_table@@@Z 000000014003c0d0 f   ha_heap.obj
 0001:0003b1b0       ??1ha_heap@@UEAA@XZ        000000014003c1b0 f i ha_heap.obj
 0001:0003b1c0       ?table_type@ha_heap@@UEBAPEBDXZ 000000014003c1c0 f i ha_heap.obj
 0001:0003b1f0       ?index_type@ha_heap@@UEAAPEBDI@Z 000000014003c1f0 f i ha_heap.obj
 0001:0003b230       ?get_row_type@ha_heap@@UEBA?AW4row_type@@XZ 000000014003c230 f i ha_heap.obj
 0001:0003b240       ?table_flags@ha_heap@@UEBAKXZ 000000014003c240 f i ha_heap.obj
 0001:0003b250       ?index_flags@ha_heap@@UEBAKII_N@Z 000000014003c250 f i ha_heap.obj
 0001:0003b280       ?keys_to_use_for_scanning@ha_heap@@UEAAPEBV?$Bitmap@$0EA@@@XZ 000000014003c280 f i ha_heap.obj
 0001:0003b290       ?max_supported_keys@ha_heap@@UEBAIXZ 000000014003c290 f i ha_heap.obj
 0001:0003b2a0       ?max_supported_key_part_length@ha_heap@@UEBAIXZ 000000014003c2a0 f i ha_heap.obj
 0001:0003b2b0       ?scan_time@ha_heap@@UEAANXZ 000000014003c2b0 f i ha_heap.obj
 0001:0003b2f0       ?read_time@ha_heap@@UEAANII_K@Z 000000014003c2f0 f i ha_heap.obj
 0001:0003b320       ?cmp_ref@ha_heap@@UEAAHPEBE0@Z 000000014003c320 f i ha_heap.obj
 0001:0003b340       ??_Eha_heap@@UEAAPEAXI@Z   000000014003c340 f i ha_heap.obj
 0001:0003b340       ??_Gha_heap@@UEAAPEAXI@Z   000000014003c340 f i ha_heap.obj
 0001:0003b360       ?bas_ext@ha_heap@@UEBAPEAPEBDXZ 000000014003c360 f   ha_heap.obj
 0001:0003b370       ??0st_ha_create_information@@QEAA@XZ 000000014003c370 f i ha_heap.obj
 0001:0003b380       ?close@ha_heap@@UEAAHXZ    000000014003c380 f   ha_heap.obj
 0001:0003b390       ?clone@ha_heap@@UEAAPEAVhandler@@PEAUst_mem_root@@@Z 000000014003c390 f   ha_heap.obj
 0001:0003b420       ?set_keys_for_scanning@ha_heap@@QEAAXXZ 000000014003c420 f   ha_heap.obj
 0001:0003b4a0       ?update_key_stats@ha_heap@@AEAAXXZ 000000014003c4a0 f   ha_heap.obj
 0001:0003b5f0       ?write_row@ha_heap@@UEAAHPEAE@Z 000000014003c5f0 f   ha_heap.obj
 0001:0003b6c0       ?update_row@ha_heap@@UEAAHPEBEPEAE@Z 000000014003c6c0 f   ha_heap.obj
 0001:0003b780       ?delete_row@ha_heap@@UEAAHPEBE@Z 000000014003c780 f   ha_heap.obj
 0001:0003b810       ?index_read@ha_heap@@UEAAHPEAEPEBEIW4ha_rkey_function@@@Z 000000014003c810 f   ha_heap.obj
 0001:0003b880       ?index_read_last@ha_heap@@UEAAHPEAEPEBEI@Z 000000014003c880 f   ha_heap.obj
 0001:0003b8f0       ?index_read_idx@ha_heap@@UEAAHPEAEIPEBEIW4ha_rkey_function@@@Z 000000014003c8f0 f   ha_heap.obj
 0001:0003b960       ?index_next@ha_heap@@UEAAHPEAE@Z 000000014003c960 f   ha_heap.obj
 0001:0003b9c0       ?index_prev@ha_heap@@UEAAHPEAE@Z 000000014003c9c0 f   ha_heap.obj
 0001:0003ba20       ?index_first@ha_heap@@UEAAHPEAE@Z 000000014003ca20 f   ha_heap.obj
 0001:0003ba80       ?index_last@ha_heap@@UEAAHPEAE@Z 000000014003ca80 f   ha_heap.obj
 0001:0003bae0       ?rnd_init@ha_heap@@UEAAH_N@Z 000000014003cae0 f   ha_heap.obj
 0001:0003bb00       ?rnd_next@ha_heap@@UEAAHPEAE@Z 000000014003cb00 f   ha_heap.obj
 0001:0003bb60       ?rnd_pos@ha_heap@@UEAAHPEAE0@Z 000000014003cb60 f   ha_heap.obj
 0001:0003bbc0       ?position@ha_heap@@UEAAXPEBE@Z 000000014003cbc0 f   ha_heap.obj
 0001:0003bbf0       ?info@ha_heap@@UEAAHI@Z    000000014003cbf0 f   ha_heap.obj
 0001:0003bcd0       ?extra@ha_heap@@UEAAHW4ha_extra_function@@@Z 000000014003ccd0 f   ha_heap.obj
 0001:0003bce0       ?delete_all_rows@ha_heap@@UEAAHXZ 000000014003cce0 f   ha_heap.obj
 0001:0003bd30       ?external_lock@ha_heap@@UEAAHPEAVTHD@@H@Z 000000014003cd30 f   ha_heap.obj
 0001:0003bd40       ?disable_indexes@ha_heap@@UEAAHI@Z 000000014003cd40 f   ha_heap.obj
 0001:0003bd90       ?enable_indexes@ha_heap@@UEAAHI@Z 000000014003cd90 f   ha_heap.obj
 0001:0003bde0       ?indexes_are_disabled@ha_heap@@UEAAHXZ 000000014003cde0 f   ha_heap.obj
 0001:0003bdf0       ?store_lock@ha_heap@@UEAAPEAPEAUst_thr_lock_data@@PEAVTHD@@PEAPEAU2@W4thr_lock_type@@@Z 000000014003cdf0 f   ha_heap.obj
 0001:0003be30       ?delete_table@ha_heap@@UEAAHPEBD@Z 000000014003ce30 f   ha_heap.obj
 0001:0003beb0       ?rename_table@ha_heap@@UEAAHPEBD0@Z 000000014003ceb0 f   ha_heap.obj
 0001:0003bec0       ?records_in_range@ha_heap@@UEAA_KIPEAUst_key_range@@0@Z 000000014003cec0 f   ha_heap.obj
 0001:0003bf50       ?create@ha_heap@@UEAAHPEBDPEAUst_table@@PEAUst_ha_create_information@@@Z 000000014003cf50 f   ha_heap.obj
 0001:0003c460       ?update_create_info@ha_heap@@UEAAXPEAUst_ha_create_information@@@Z 000000014003d460 f   ha_heap.obj
 0001:0003c4b0       ?get_auto_increment@ha_heap@@UEAA_KXZ 000000014003d4b0 f   ha_heap.obj
 0001:0003c4e0       ?open@ha_heap@@UEAAHPEBDHI@Z 000000014003d4e0 f   ha_heap.obj
 0001:0003c5f0       ?intersect@?$Bitmap@$0EA@@@QEAAXAEAV1@@Z 000000014003d5f0 f i ha_myisam.obj
 0001:0003c600       ?intersect_extended@?$Bitmap@$0EA@@@QEAAX_K@Z 000000014003d600 f i ha_myisam.obj
 0001:0003c610       ?is_clear_all@?$Bitmap@$0EA@@@QEBADXZ 000000014003d610 f i ha_myisam.obj
 0001:0003c620       ?is_set_all@?$Bitmap@$0EA@@@QEBADXZ 000000014003d620 f i ha_myisam.obj
 0001:0003c630       ?to_ulonglong@?$Bitmap@$0EA@@@QEBA_KXZ 000000014003d630 f i ha_myisam.obj
 0001:0003c640       ?val_int_offset@Field@@QEAA_JI@Z 000000014003d640 f i ha_myisam.obj
 0001:0003c680       ?clear_error@THD@@QEAAXXZ  000000014003d680 f i ha_myisam.obj
 0001:0003c6b0       ?vio_ok@THD@@QEBA_NXZ      000000014003d6b0 f i ha_myisam.obj
 0001:0003c890       ?table2myisam@@YAHPEAUst_table@@PEAPEAUst_mi_keydef@@PEAPEAUst_columndef@@PEAI@Z 000000014003d890 f   ha_myisam.obj
 0001:0003cfd0       ?check_definition@@YAHPEAUst_mi_keydef@@PEAUst_columndef@@II01II_N@Z 000000014003dfd0 f   ha_myisam.obj
 0001:0003d260       killed_ptr                 000000014003e260 f   ha_myisam.obj
 0001:0003d280       mi_check_print_error       000000014003e280 f   ha_myisam.obj
 0001:0003d2d0       mi_check_print_info        000000014003e2d0 f   ha_myisam.obj
 0001:0003d310       mi_check_print_warning     000000014003e310 f   ha_myisam.obj
 0001:0003d360       ??0ha_myisam@@QEAA@PEAUst_table@@@Z 000000014003e360 f   ha_myisam.obj
 0001:0003d440       ??1ha_myisam@@UEAA@XZ      000000014003e440 f i ha_myisam.obj
 0001:0003d450       ?table_type@ha_myisam@@UEBAPEBDXZ 000000014003e450 f i ha_myisam.obj
 0001:0003d460       ?table_flags@ha_myisam@@UEBAKXZ 000000014003e460 f i ha_myisam.obj
 0001:0003d470       ?index_flags@ha_myisam@@UEBAKII_N@Z 000000014003e470 f i ha_myisam.obj
 0001:0003d4a0       ?max_supported_keys@ha_myisam@@UEBAIXZ 000000014003e4a0 f i ha_myisam.obj
 0001:0003d4b0       ?max_supported_key_length@ha_myisam@@UEBAIXZ 000000014003e4b0 f i ha_myisam.obj
 0001:0003d4c0       ?max_supported_key_part_length@ha_myisam@@UEBAIXZ 000000014003e4c0 f i ha_myisam.obj
 0001:0003d4d0       ?ft_init@ha_myisam@@UEAAHXZ 000000014003e4d0 f i ha_myisam.obj
 0001:0003d510       ?ft_init_ext@ha_myisam@@UEAAPEAUst_ft_info@@IIPEAVString@@@Z 000000014003e510 f i ha_myisam.obj
 0001:0003d560       ?auto_repair@ha_myisam@@UEBA_NXZ 000000014003e560 f i ha_myisam.obj
 0001:0003d570       ??_Eha_myisam@@UEAAPEAXI@Z 000000014003e570 f i ha_myisam.obj
 0001:0003d570       ??_Gha_myisam@@UEAAPEAXI@Z 000000014003e570 f i ha_myisam.obj
 0001:0003d590       ?clone@ha_myisam@@UEAAPEAVhandler@@PEAUst_mem_root@@@Z 000000014003e590 f   ha_myisam.obj
 0001:0003d5d0       ?bas_ext@ha_myisam@@UEBAPEAPEBDXZ 000000014003e5d0 f   ha_myisam.obj
 0001:0003d5e0       ?index_type@ha_myisam@@UEAAPEBDI@Z 000000014003e5e0 f   ha_myisam.obj
 0001:0003d640       ?net_read_dump@ha_myisam@@UEAAHPEAUst_net@@@Z 000000014003e640 f   ha_myisam.obj
 0001:0003d700       ?dump@ha_myisam@@UEAAHPEAVTHD@@H@Z 000000014003e700 f   ha_myisam.obj
 0001:0003d8b0       ?open@ha_myisam@@UEAAHPEBDHI@Z 000000014003e8b0 f   ha_myisam.obj
 0001:0003d9c0       ?close@ha_myisam@@UEAAHXZ  000000014003e9c0 f   ha_myisam.obj
 0001:0003d9e0       ?write_row@ha_myisam@@UEAAHPEAE@Z 000000014003e9e0 f   ha_myisam.obj
 0001:0003da70       ?check@ha_myisam@@UEAAHPEAVTHD@@PEAUst_ha_check_opt@@@Z 000000014003ea70 f   ha_myisam.obj
 0001:0003df00       ?analyze@ha_myisam@@UEAAHPEAVTHD@@PEAUst_ha_check_opt@@@Z 000000014003ef00 f   ha_myisam.obj
 0001:0003e0b0       ?restore@ha_myisam@@UEAAHPEAVTHD@@PEAUst_ha_check_opt@@@Z 000000014003f0b0 f   ha_myisam.obj
 0001:0003e280       ?backup@ha_myisam@@UEAAHPEAVTHD@@PEAUst_ha_check_opt@@@Z 000000014003f280 f   ha_myisam.obj
 0001:0003e4f0       ?repair@ha_myisam@@AEAAHPEAVTHD@@AEAUst_mi_check_param@@_N@Z 000000014003f4f0 f   ha_myisam.obj
 0001:0003ecf0       ?assign_to_keycache@ha_myisam@@UEAAHPEAVTHD@@PEAUst_ha_check_opt@@@Z 000000014003fcf0 f   ha_myisam.obj
 0001:0003ee60       ?preload_keys@ha_myisam@@UEAAHPEAVTHD@@PEAUst_ha_check_opt@@@Z 000000014003fe60 f   ha_myisam.obj
 0001:0003f030       ?disable_indexes@ha_myisam@@UEAAHI@Z 0000000140040030 f   ha_myisam.obj
 0001:0003f0b0       ?enable_indexes@ha_myisam@@UEAAHI@Z 00000001400400b0 f   ha_myisam.obj
 0001:0003f370       ?indexes_are_disabled@ha_myisam@@UEAAHXZ 0000000140040370 f   ha_myisam.obj
 0001:0003f380       ?start_bulk_insert@ha_myisam@@UEAAX_K@Z 0000000140040380 f   ha_myisam.obj
 0001:0003f4f0       ?end_bulk_insert@ha_myisam@@UEAAHXZ 00000001400404f0 f   ha_myisam.obj
 0001:0003f560       ?check_and_repair@ha_myisam@@UEAA_NPEAVTHD@@@Z 0000000140040560 f   ha_myisam.obj
 0001:0003f720       ?is_crashed@ha_myisam@@UEBA_NXZ 0000000140040720 f   ha_myisam.obj
 0001:0003f760       ?update_row@ha_myisam@@UEAAHPEBEPEAE@Z 0000000140040760 f   ha_myisam.obj
 0001:0003f7e0       ?delete_row@ha_myisam@@UEAAHPEBE@Z 00000001400407e0 f   ha_myisam.obj
 0001:0003f810       ?index_read@ha_myisam@@UEAAHPEAEPEBEIW4ha_rkey_function@@@Z 0000000140040810 f   ha_myisam.obj
 0001:0003f880       ?index_read_idx@ha_myisam@@UEAAHPEAEIPEBEIW4ha_rkey_function@@@Z 0000000140040880 f   ha_myisam.obj
 0001:0003f8f0       ?index_read_last@ha_myisam@@UEAAHPEAEPEBEI@Z 00000001400408f0 f   ha_myisam.obj
 0001:0003f960       ?index_next@ha_myisam@@UEAAHPEAE@Z 0000000140040960 f   ha_myisam.obj
 0001:0003f9c0       ?index_prev@ha_myisam@@UEAAHPEAE@Z 00000001400409c0 f   ha_myisam.obj
 0001:0003fa20       ?index_first@ha_myisam@@UEAAHPEAE@Z 0000000140040a20 f   ha_myisam.obj
 0001:0003fa80       ?index_last@ha_myisam@@UEAAHPEAE@Z 0000000140040a80 f   ha_myisam.obj
 0001:0003fae0       ?index_next_same@ha_myisam@@UEAAHPEAEPEBEI@Z 0000000140040ae0 f   ha_myisam.obj
 0001:0003fb50       ?rnd_init@ha_myisam@@UEAAH_N@Z 0000000140040b50 f   ha_myisam.obj
 0001:0003fb80       ?rnd_next@ha_myisam@@UEAAHPEAE@Z 0000000140040b80 f   ha_myisam.obj
 0001:0003fbe0       ?restart_rnd_next@ha_myisam@@UEAAHPEAE0@Z 0000000140040be0 f   ha_myisam.obj
 0001:0003fbf0       ?rnd_pos@ha_myisam@@UEAAHPEAE0@Z 0000000140040bf0 f   ha_myisam.obj
 0001:0003fc70       ?position@ha_myisam@@UEAAXPEBE@Z 0000000140040c70 f   ha_myisam.obj
 0001:0003fcb0       ?extra@ha_myisam@@UEAAHW4ha_extra_function@@@Z 0000000140040cb0 f   ha_myisam.obj
 0001:0003fce0       ?extra_opt@ha_myisam@@UEAAHW4ha_extra_function@@K@Z 0000000140040ce0 f   ha_myisam.obj
 0001:0003fd30       ?delete_all_rows@ha_myisam@@UEAAHXZ 0000000140040d30 f   ha_myisam.obj
 0001:0003fd40       ?delete_table@ha_myisam@@UEAAHPEBD@Z 0000000140040d40 f   ha_myisam.obj
 0001:0003fd50       ?external_lock@ha_myisam@@UEAAHPEAVTHD@@H@Z 0000000140040d50 f   ha_myisam.obj
 0001:0003fd80       ?store_lock@ha_myisam@@UEAAPEAPEAUst_thr_lock_data@@PEAVTHD@@PEAPEAU2@W4thr_lock_type@@@Z 0000000140040d80 f   ha_myisam.obj
 0001:0003fdc0       ?create@ha_myisam@@UEAAHPEBDPEAUst_table@@PEAUst_ha_create_information@@@Z 0000000140040dc0 f   ha_myisam.obj
 0001:00040010       ?rename_table@ha_myisam@@UEAAHPEBD0@Z 0000000140041010 f   ha_myisam.obj
 0001:00040020       ?records_in_range@ha_myisam@@UEAA_KIPEAUst_key_range@@0@Z 0000000140041020 f   ha_myisam.obj
 0001:00040030       ?ft_read@ha_myisam@@UEAAHPEAE@Z 0000000140041030 f   ha_myisam.obj
 0001:000400a0       ?checksum@ha_myisam@@UEBAIXZ 00000001400410a0 f   ha_myisam.obj
 0001:000400c0       ?register_query_cache_table@ha_myisam@@UEAADPEAVTHD@@PEADIPEAP6AD01IPEA_K@Z2@Z 00000001400410c0 f   ha_myisam.obj
 0001:00040110       ?repair@ha_myisam@@UEAAHPEAVTHD@@PEAUst_ha_check_opt@@@Z 0000000140041110 f   ha_myisam.obj
 0001:000403b0       ?optimize@ha_myisam@@UEAAHPEAVTHD@@PEAUst_ha_check_opt@@@Z 00000001400413b0 f   ha_myisam.obj
 0001:000404f0       ?info@ha_myisam@@UEAAHI@Z  00000001400414f0 f   ha_myisam.obj
 0001:00040870       ?update_create_info@ha_myisam@@UEAAXPEAUst_ha_create_information@@@Z 0000000140041870 f   ha_myisam.obj
 0001:00040900       ?get_auto_increment@ha_myisam@@UEAA_KXZ 0000000140041900 f   ha_myisam.obj
 0001:00040aa0       ?alloc@Query_arena@@QEAAPEADI@Z 0000000140041aa0 f i ha_myisammrg.obj
 0001:00040ab0       ?calloc@Query_arena@@QEAAPEADI@Z 0000000140041ab0 f i ha_myisammrg.obj
 0001:00040b00       ?strmake@Query_arena@@QEAAPEADPEBDI@Z 0000000140041b00 f i ha_myisammrg.obj
 0001:00040b10       ??0ha_myisammrg@@QEAA@PEAUst_table@@@Z 0000000140041b10 f   ha_myisammrg.obj
 0001:00040be0       ??1ha_myisammrg@@UEAA@XZ   0000000140041be0 f i ha_myisammrg.obj
 0001:00040bf0       ?table_type@ha_myisammrg@@UEBAPEBDXZ 0000000140041bf0 f i ha_myisammrg.obj
 0001:00040c00       ?table_flags@ha_myisammrg@@UEBAKXZ 0000000140041c00 f i ha_myisammrg.obj
 0001:00040c10       ?index_flags@ha_myisammrg@@UEBAKII_N@Z 0000000140041c10 f i ha_myisammrg.obj
 0001:00040c40       ?max_supported_keys@ha_myisammrg@@UEBAIXZ 0000000140041c40 f i ha_myisammrg.obj
 0001:00040c50       ?max_supported_key_length@ha_myisammrg@@UEBAIXZ 0000000140041c50 f i ha_myisammrg.obj
 0001:00040c60       ?max_supported_key_part_length@ha_myisammrg@@UEBAIXZ 0000000140041c60 f i ha_myisammrg.obj
 0001:00040c70       ?scan_time@ha_myisammrg@@UEAANXZ 0000000140041c70 f i ha_myisammrg.obj
 0001:00040cb0       ??_Eha_myisammrg@@UEAAPEAXI@Z 0000000140041cb0 f i ha_myisammrg.obj
 0001:00040cb0       ??_Gha_myisammrg@@UEAAPEAXI@Z 0000000140041cb0 f i ha_myisammrg.obj
 0001:00040cd0       ?bas_ext@ha_myisammrg@@UEBAPEAPEBDXZ 0000000140041cd0 f   ha_myisammrg.obj
 0001:00040ce0       ?index_type@ha_myisammrg@@UEAAPEBDI@Z 0000000140041ce0 f   ha_myisammrg.obj
 0001:00040d40       ?close@ha_myisammrg@@UEAAHXZ 0000000140041d40 f   ha_myisammrg.obj
 0001:00040d50       ?write_row@ha_myisammrg@@UEAAHPEAE@Z 0000000140041d50 f   ha_myisammrg.obj
 0001:00040e10       ?update_row@ha_myisammrg@@UEAAHPEBEPEAE@Z 0000000140041e10 f   ha_myisammrg.obj
 0001:00040e90       ?delete_row@ha_myisammrg@@UEAAHPEBE@Z 0000000140041e90 f   ha_myisammrg.obj
 0001:00040ec0       ?index_read@ha_myisammrg@@UEAAHPEAEPEBEIW4ha_rkey_function@@@Z 0000000140041ec0 f   ha_myisammrg.obj
 0001:00040f30       ?index_read_idx@ha_myisammrg@@UEAAHPEAEIPEBEIW4ha_rkey_function@@@Z 0000000140041f30 f   ha_myisammrg.obj
 0001:00040fa0       ?index_read_last@ha_myisammrg@@UEAAHPEAEPEBEI@Z 0000000140041fa0 f   ha_myisammrg.obj
 0001:00041010       ?index_next@ha_myisammrg@@UEAAHPEAE@Z 0000000140042010 f   ha_myisammrg.obj
 0001:00041070       ?index_prev@ha_myisammrg@@UEAAHPEAE@Z 0000000140042070 f   ha_myisammrg.obj
 0001:000410d0       ?index_first@ha_myisammrg@@UEAAHPEAE@Z 00000001400420d0 f   ha_myisammrg.obj
 0001:00041130       ?index_last@ha_myisammrg@@UEAAHPEAE@Z 0000000140042130 f   ha_myisammrg.obj
 0001:00041190       ?index_next_same@ha_myisammrg@@UEAAHPEAEPEBEI@Z 0000000140042190 f   ha_myisammrg.obj
 0001:00041200       ?rnd_init@ha_myisammrg@@UEAAH_N@Z 0000000140042200 f   ha_myisammrg.obj
 0001:00041220       ?rnd_next@ha_myisammrg@@UEAAHPEAE@Z 0000000140042220 f   ha_myisammrg.obj
 0001:00041280       ?rnd_pos@ha_myisammrg@@UEAAHPEAE0@Z 0000000140042280 f   ha_myisammrg.obj
 0001:00041300       ?position@ha_myisammrg@@UEAAXPEBE@Z 0000000140042300 f   ha_myisammrg.obj
 0001:00041340       ?records_in_range@ha_myisammrg@@UEAA_KIPEAUst_key_range@@0@Z 0000000140042340 f   ha_myisammrg.obj
 0001:00041350       ?extra@ha_myisammrg@@UEAAHW4ha_extra_function@@@Z 0000000140042350 f   ha_myisammrg.obj
 0001:00041380       ?extra_opt@ha_myisammrg@@UEAAHW4ha_extra_function@@K@Z 0000000140042380 f   ha_myisammrg.obj
 0001:000413d0       ?external_lock@ha_myisammrg@@UEAAHPEAVTHD@@H@Z 00000001400423d0 f   ha_myisammrg.obj
 0001:000413f0       ?lock_count@ha_myisammrg@@UEBAIXZ 00000001400423f0 f   ha_myisammrg.obj
 0001:00041400       ?store_lock@ha_myisammrg@@UEAAPEAPEAUst_thr_lock_data@@PEAVTHD@@PEAPEAU2@W4thr_lock_type@@@Z 0000000140042400 f   ha_myisammrg.obj
 0001:00041550       ?update_create_info@ha_myisammrg@@UEAAXPEAUst_ha_create_information@@@Z 0000000140042550 f   ha_myisammrg.obj
 0001:00041730       ?create@ha_myisammrg@@UEAAHPEBDPEAUst_table@@PEAUst_ha_create_information@@@Z 0000000140042730 f   ha_myisammrg.obj
 0001:00041980       ?append_create_info@ha_myisammrg@@UEAAXPEAVString@@@Z 0000000140042980 f   ha_myisammrg.obj
 0001:00041c60       ?check@ha_myisammrg@@UEAAHPEAVTHD@@PEAUst_ha_check_opt@@@Z 0000000140042c60 f   ha_myisammrg.obj
 0001:00041c70       myrg_print_wrong_table     0000000140042c70 f   ha_myisammrg.obj
 0001:00041d90       ?open@ha_myisammrg@@UEAAHPEBDHI@Z 0000000140042d90 f   ha_myisammrg.obj
 0001:00042070       ?info@ha_myisammrg@@UEAAHI@Z 0000000140043070 f   ha_myisammrg.obj
 0001:000421e0       ?store@Protocol@@QEAA_N_K@Z 00000001400431e0 f i ha_innodb.obj
 0001:000421f0       ??1?$List@VItem@@@@QEAA@XZ 00000001400431f0 f i ha_innodb.obj
 0001:00042200       ?get_log_fname@MYSQL_LOG@@QEAAPEADXZ 0000000140043200 f i ha_innodb.obj
 0001:00042210       ?get_log_file@MYSQL_LOG@@QEAAPEAUst_io_cache@@XZ 0000000140043210 f i ha_innodb.obj
 0001:00042220       ??1?$List@Ust_lex_string@@@@QEAA@XZ 0000000140043220 f i ha_innodb.obj
 0001:00042230       ?memdup@Query_arena@@QEAAPEADPEBDI@Z 0000000140043230 f i ha_innodb.obj
 0001:00042240       ?charset@THD@@QEAAPEAUcharset_info_st@@XZ 0000000140043240 f i ha_innodb.obj
 0001:00042250       ?innodb_srv_conc_enter_innodb@@YAXPEAUtrx_struct@@@Z 0000000140043250 f i ha_innodb.obj
 0001:00042270       ?innodb_srv_conc_exit_innodb@@YAXPEAUtrx_struct@@@Z 0000000140043270 f i ha_innodb.obj
 0001:00042290       ?innobase_release_stat_resources@@YAXPEAUtrx_struct@@@Z 0000000140043290 f i ha_innodb.obj
 0001:000422d0       ?innobase_release_temporary_latches@@YAXPEAVTHD@@@Z 00000001400432d0 f   ha_innodb.obj
 0001:00042340       ?innobase_active_small@@YAXXZ 0000000140043340 f i ha_innodb.obj
 0001:00042500       innobase_mysql_print_thd   0000000140043500 f   ha_innodb.obj
 0001:00042720       innobase_get_cset_width    0000000140043720 f   ha_innodb.obj
 0001:00042810       innobase_strcasecmp        0000000140043810 f   ha_innodb.obj
 0001:00042840       innobase_casedn_str        0000000140043840 f   ha_innodb.obj
 0001:00042860       innobase_mysql_tmpfile     0000000140043860 f   ha_innodb.obj
 0001:00042ab0       ??0ha_innobase@@QEAA@PEAUst_table@@@Z 0000000140043ab0 f   ha_innodb.obj
 0001:00042b90       ??1ha_innobase@@UEAA@XZ    0000000140043b90 f i ha_innodb.obj
 0001:00042ba0       ?table_type@ha_innobase@@UEBAPEBDXZ 0000000140043ba0 f i ha_innodb.obj
 0001:00042bb0       ?index_type@ha_innobase@@UEAAPEBDI@Z 0000000140043bb0 f i ha_innodb.obj
 0001:00042bc0       ?table_flags@ha_innobase@@UEBAKXZ 0000000140043bc0 f i ha_innodb.obj
 0001:00042bd0       ?index_flags@ha_innobase@@UEBAKII_N@Z 0000000140043bd0 f i ha_innodb.obj
 0001:00042be0       ?max_supported_keys@ha_innobase@@UEBAIXZ 0000000140043be0 f i ha_innodb.obj
 0001:00042bf0       ?max_supported_key_length@ha_innobase@@UEBAIXZ 0000000140043bf0 f i ha_innodb.obj
 0001:00042c00       ?keys_to_use_for_scanning@ha_innobase@@UEAAPEBV?$Bitmap@$0EA@@@XZ 0000000140043c00 f i ha_innodb.obj
 0001:00042c10       ?has_transactions@ha_innobase@@UEAA_NXZ 0000000140043c10 f i ha_innodb.obj
 0001:00042c20       ?table_cache_type@ha_innobase@@UEAAEXZ 0000000140043c20 f i ha_innodb.obj
 0001:00042c30       ?primary_key_is_clustered@ha_innobase@@UEAA_NXZ 0000000140043c30 f i ha_innodb.obj
 0001:00042c40       ??_Eha_innobase@@UEAAPEAXI@Z 0000000140043c40 f i ha_innodb.obj
 0001:00042c40       ??_Gha_innobase@@UEAAPEAXI@Z 0000000140043c40 f i ha_innodb.obj
 0001:00042c60       ?update_thd@ha_innobase@@AEAAHPEAVTHD@@@Z 0000000140043c60 f i ha_innodb.obj
 0001:00042cd0       ?innobase_register_stmt@@YAXPEAVTHD@@@Z 0000000140043cd0 f i ha_innodb.obj
 0001:00042cf0       ?innobase_register_trx_and_stmt@@YAXPEAVTHD@@@Z 0000000140043cf0 f i ha_innodb.obj
 0001:00042d40       ?innobase_query_caching_of_table_permitted@@YADPEAVTHD@@PEADIPEA_K@Z 0000000140043d40 f   ha_innodb.obj
 0001:00042fc0       innobase_invalidate_query_cache 0000000140043fc0 f   ha_innodb.obj
 0001:00042ff0       mysql_get_identifier_quote_char 0000000140043ff0 f   ha_innodb.obj
 0001:00043010       trx_is_interrupted         0000000140044010 f   ha_innodb.obj
 0001:00043050       innobase_current_thd       0000000140044050 f   ha_innodb.obj
 0001:00043080       ?init_table_handle_for_HANDLER@ha_innobase@@UEAAXXZ 0000000140044080 f   ha_innodb.obj
 0001:00043220       ?innobase_end@@YA_NXZ      0000000140044220 f   ha_innodb.obj
 0001:000432e0       ?innobase_flush_logs@@YA_NXZ 00000001400442e0 f   ha_innodb.obj
 0001:00043300       ?innobase_commit_low@@YAXPEAUtrx_struct@@@Z 0000000140044300 f   ha_innodb.obj
 0001:00043390       ?innobase_start_trx_and_assign_read_view@@YAHPEAVTHD@@@Z 0000000140044390 f   ha_innodb.obj
 0001:000436a0       ?innobase_report_binlog_offset_and_commit@@YAHPEAVTHD@@PEAXPEAD_K@Z 00000001400446a0 f   ha_innodb.obj
 0001:000437a0       ?innobase_commit_complete@@YAHPEAVTHD@@@Z 00000001400447a0 f   ha_innodb.obj
 0001:000438d0       ?innobase_rollback_trx@@YAHPEAUtrx_struct@@@Z 00000001400448d0 f   ha_innodb.obj
 0001:00043c50       ?get_row_type@ha_innobase@@UEBA?AW4row_type@@XZ 0000000140044c50 f   ha_innodb.obj
 0001:00043c80       ?bas_ext@ha_innobase@@UEBAPEAPEBDXZ 0000000140044c80 f   ha_innodb.obj
 0001:00043d80       ?max_supported_key_part_length@ha_innobase@@UEBAIXZ 0000000140044d80 f   ha_innodb.obj
 0001:00043d90       ?get_field_offset@@YAIPEAUst_table@@PEAVField@@@Z 0000000140044d90 f i ha_innodb.obj
 0001:00043da0       ?field_in_record_is_null@@YAIPEAUst_table@@PEAVField@@PEAD@Z 0000000140044da0 f i ha_innodb.obj
 0001:00043dd0       innobase_mysql_cmp         0000000140044dd0 f   ha_innodb.obj
 0001:00043f70       ?get_innobase_type_from_mysql_type@@YA_KPEA_KPEAVField@@@Z 0000000140044f70 f i ha_innodb.obj
 0001:00044250       ?innobase_write_to_2_little_endian@@YAXPEAE_K@Z 0000000140045250 f i ha_innodb.obj
 0001:00044300       ?innobase_read_from_2_little_endian@@YAIPEBE@Z 0000000140045300 f i ha_innodb.obj
 0001:00044320       ?store_key_val_for_row@ha_innobase@@AEAAIIPEADIPEBE@Z 0000000140045320 f   ha_innodb.obj
 0001:000452f0       ?update_row@ha_innobase@@UEAAHPEBEPEAE@Z 00000001400462f0 f   ha_innodb.obj
 0001:00045530       ?delete_row@ha_innobase@@UEAAHPEBE@Z 0000000140046530 f   ha_innodb.obj
 0001:00045690       ?unlock_row@ha_innobase@@UEAAXXZ 0000000140046690 f   ha_innodb.obj
 0001:00045780       ?index_end@ha_innobase@@UEAAHXZ 0000000140046780 f   ha_innodb.obj
 0001:00045790       ?convert_search_mode_to_innobase@@YA_KW4ha_rkey_function@@@Z 0000000140046790 f i ha_innodb.obj
 0001:00045870       ?index_read@ha_innobase@@UEAAHPEAEPEBEIW4ha_rkey_function@@@Z 0000000140046870 f   ha_innodb.obj
 0001:00045ba0       ?index_read_last@ha_innobase@@UEAAHPEAEPEBEI@Z 0000000140046ba0 f   ha_innodb.obj
 0001:00045bc0       ?change_active_index@ha_innobase@@AEAAHI@Z 0000000140046bc0 f   ha_innodb.obj
 0001:00045d20       ?index_read_idx@ha_innobase@@UEAAHPEAEIPEBEIW4ha_rkey_function@@@Z 0000000140046d20 f   ha_innodb.obj
 0001:00045db0       ?general_fetch@ha_innobase@@AEAAHPEAEII@Z 0000000140046db0 f   ha_innodb.obj
 0001:00045ed0       ?index_next@ha_innobase@@UEAAHPEAE@Z 0000000140046ed0 f   ha_innodb.obj
 0001:00045f10       ?index_next_same@ha_innobase@@UEAAHPEAEPEBEI@Z 0000000140046f10 f   ha_innodb.obj
 0001:00045f60       ?index_prev@ha_innobase@@UEAAHPEAE@Z 0000000140046f60 f   ha_innodb.obj
 0001:00045fa0       ?index_first@ha_innobase@@UEAAHPEAE@Z 0000000140046fa0 f   ha_innodb.obj
 0001:00046010       ?index_last@ha_innobase@@UEAAHPEAE@Z 0000000140047010 f   ha_innodb.obj
 0001:00046080       ?rnd_init@ha_innobase@@UEAAH_N@Z 0000000140047080 f   ha_innodb.obj
 0001:000460d0       ?rnd_end@ha_innobase@@UEAAHXZ 00000001400470d0 f   ha_innodb.obj
 0001:000460e0       ?rnd_next@ha_innobase@@UEAAHPEAE@Z 00000001400470e0 f   ha_innodb.obj
 0001:00046170       ?rnd_pos@ha_innobase@@UEAAHPEAE0@Z 0000000140047170 f   ha_innodb.obj
 0001:00046250       ?position@ha_innobase@@UEAAXPEBE@Z 0000000140047250 f   ha_innodb.obj
 0001:00046a20       ?discard_or_import_tablespace@ha_innobase@@UEAAHD@Z 0000000140047a20 f   ha_innodb.obj
 0001:00046bc0       ?delete_all_rows@ha_innobase@@UEAAHXZ 0000000140047bc0 f   ha_innodb.obj
 0001:00046c50       ?delete_table@ha_innobase@@UEAAHPEBD@Z 0000000140047c50 f   ha_innodb.obj
 0001:00046de0       ?innobase_drop_database@@YAHPEAD@Z 0000000140047de0 f   ha_innodb.obj
 0001:00046f60       ?rename_table@ha_innobase@@UEAAHPEBD0@Z 0000000140047f60 f   ha_innodb.obj
 0001:000470d0       ?records_in_range@ha_innobase@@UEAA_KIPEAUst_key_range@@0@Z 00000001400480d0 f   ha_innodb.obj
 0001:000474a0       ?estimate_rows_upper_bound@ha_innobase@@UEAA_KXZ 00000001400484a0 f   ha_innodb.obj
 0001:00047590       ?scan_time@ha_innobase@@UEAANXZ 0000000140048590 f   ha_innodb.obj
 0001:000475c0       ?read_time@ha_innobase@@UEAANII_K@Z 00000001400485c0 f   ha_innodb.obj
 0001:000476e0       ?analyze@ha_innobase@@UEAAHPEAVTHD@@PEAUst_ha_check_opt@@@Z 00000001400486e0 f   ha_innodb.obj
 0001:00047700       ?optimize@ha_innobase@@UEAAHPEAVTHD@@PEAUst_ha_check_opt@@@Z 0000000140048700 f   ha_innodb.obj
 0001:00047710       ?check@ha_innobase@@UEAAHPEAVTHD@@PEAUst_ha_check_opt@@@Z 0000000140048710 f   ha_innodb.obj
 0001:000478c0       ?update_table_comment@ha_innobase@@UEAAPEADPEBD@Z 00000001400488c0 f   ha_innodb.obj
 0001:00047ae0       ?get_foreign_key_create_info@ha_innobase@@UEAAPEADXZ 0000000140048ae0 f   ha_innodb.obj
 0001:00047cf0       ??1st_foreign_key_info@@QEAA@XZ 0000000140048cf0 f i ha_innodb.obj
 0001:00047d00       ?can_switch_engines@ha_innobase@@UEAA_NXZ 0000000140048d00 f   ha_innodb.obj
 0001:00047d90       ?referenced_by_foreign_key@ha_innobase@@UEAAIXZ 0000000140048d90 f   ha_innodb.obj
 0001:00047dc0       ?free_foreign_key_create_info@ha_innobase@@UEAAXPEAD@Z 0000000140048dc0 f   ha_innodb.obj
 0001:00047de0       ?extra@ha_innobase@@UEAAHW4ha_extra_function@@@Z 0000000140048de0 f   ha_innodb.obj
 0001:00047f50       ?start_stmt@ha_innobase@@UEAAHPEAVTHD@@W4thr_lock_type@@@Z 0000000140048f50 f   ha_innodb.obj
 0001:000480d0       ?innobase_map_isolation_level@@YA_KW4enum_tx_isolation@@@Z 00000001400490d0 f i ha_innodb.obj
 0001:000481c0       ?external_lock@ha_innobase@@UEAAHPEAVTHD@@H@Z 00000001400491c0 f   ha_innodb.obj
 0001:000484d0       ?transactional_table_lock@ha_innobase@@QEAAHPEAVTHD@@H@Z 00000001400494d0 f   ha_innodb.obj
 0001:00048740       ?innodb_export_status@@YAXXZ 0000000140049740 f   ha_innodb.obj
 0001:00048930       ?store_lock@ha_innobase@@UEAAPEAPEAUst_thr_lock_data@@PEAVTHD@@PEAPEAU2@W4thr_lock_type@@@Z 0000000140049930 f   ha_innodb.obj
 0001:00048b40       ?innobase_read_and_init_auto_inc@ha_innobase@@AEAAHPEA_J@Z 0000000140049b40 f   ha_innodb.obj
 0001:00048f10       ?get_auto_increment@ha_innobase@@UEAA_KXZ 0000000140049f10 f   ha_innodb.obj
 0001:00048f70       ?reset_auto_increment@ha_innobase@@UEAAH_K@Z 0000000140049f70 f   ha_innodb.obj
 0001:00048ff0       ?get_error_message@ha_innobase@@UEAA_NHPEAVString@@@Z 0000000140049ff0 f   ha_innodb.obj
 0001:00049070       ?cmp_ref@ha_innobase@@UEAAHPEBE0@Z 000000014004a070 f   ha_innodb.obj
 0001:000491f0       ?get_mysql_bin_log_name@ha_innobase@@SAPEADXZ 000000014004a1f0 f   ha_innodb.obj
 0001:00049200       ?get_mysql_bin_log_pos@ha_innobase@@SA_KXZ 000000014004a200 f   ha_innodb.obj
 0001:00049210       innobase_get_at_most_n_mbchars 000000014004a210 f   ha_innodb.obj
 0001:000492c0       innobase_query_is_update   000000014004a2c0 f   ha_innodb.obj
 0001:00049330       ?innobase_xa_prepare@@YAHPEAVTHD@@_N@Z 000000014004a330 f   ha_innodb.obj
 0001:00049480       ?innobase_xa_recover@@YAHPEAUxid_t@@I@Z 000000014004a480 f   ha_innodb.obj
 0001:000494a0       ?innobase_commit_by_xid@@YAHPEAUxid_t@@@Z 000000014004a4a0 f   ha_innodb.obj
 0001:000494d0       ?innobase_rollback_by_xid@@YAHPEAUxid_t@@@Z 000000014004a4d0 f   ha_innodb.obj
 0001:00049500       ?innobase_create_cursor_view@@YAPEAXXZ 000000014004a500 f   ha_innodb.obj
 0001:00049540       ?innobase_close_cursor_view@@YAXPEAX@Z 000000014004a540 f   ha_innodb.obj
 0001:00049590       ?innobase_set_cursor_view@@YAXPEAX@Z 000000014004a590 f   ha_innodb.obj
 0001:000496c0       ??0?$List@Ust_lex_string@@@@QEAA@XZ 000000014004a6c0 f i ha_innodb.obj
 0001:000496e0       ?push_back@?$List@Ust_lex_string@@@@QEAA_NPEAUst_lex_string@@@Z 000000014004a6e0 f i ha_innodb.obj
 0001:00049770       ??0?$List@VItem@@@@QEAA@XZ 000000014004a770 f i ha_innodb.obj
 0001:00049790       ?push_back@?$List@VItem@@@@QEAA_NPEAVItem@@@Z 000000014004a790 f i ha_innodb.obj
 0001:00049820       ?push_back@?$List@Ust_foreign_key_info@@@@QEAA_NPEAUst_foreign_key_info@@@Z 000000014004a820 f i ha_innodb.obj
 0001:000498b0       ??0Item_empty_string@@QEAA@PEBDIPEAUcharset_info_st@@@Z 000000014004a8b0 f i ha_innodb.obj
 0001:000499d0       ??1Item_empty_string@@UEAA@XZ 000000014004a9d0 f i ha_innodb.obj
 0001:00049a30       ?register_query_cache_table@ha_innobase@@UEAADPEAVTHD@@PEADIPEAP6AD01IPEA_K@Z2@Z 000000014004aa30 f i ha_innodb.obj
 0001:00049a80       ?innobase_init@@YA_NXZ     000000014004aa80 f   ha_innodb.obj
 0001:0004a170       ?open@ha_innobase@@UEAAHPEBDHI@Z 000000014004b170 f   ha_innodb.obj
 0001:0004a550       ?close@ha_innobase@@UEAAHXZ 000000014004b550 f   ha_innodb.obj
 0001:0004a5d0       ?write_row@ha_innobase@@UEAAHPEAE@Z 000000014004b5d0 f   ha_innodb.obj
 0001:0004aae0       ?index_init@ha_innobase@@UEAAHI@Z 000000014004bae0 f   ha_innodb.obj
 0001:0004aaf0       ?create@ha_innobase@@UEAAHPEBDPEAUst_table@@PEAUst_ha_create_information@@@Z 000000014004baf0 f   ha_innodb.obj
 0001:0004aee0       ?info@ha_innobase@@UEAAHI@Z 000000014004bee0 f   ha_innodb.obj
 0001:0004b4a0       ??0st_foreign_key_info@@QEAA@XZ 000000014004c4a0 f i ha_innodb.obj
 0001:0004b4e0       ?innodb_show_status@@YA_NPEAVTHD@@@Z 000000014004c4e0 f   ha_innodb.obj
 0001:0004b990       ?innodb_mutex_show_status@@YA_NPEAVTHD@@@Z 000000014004c990 f   ha_innodb.obj
 0001:0004bd00       ??_GItem_empty_string@@UEAAPEAXI@Z 000000014004cd00 f i ha_innodb.obj
 0001:0004bd00       ??_EItem_empty_string@@UEAAPEAXI@Z 000000014004cd00 f i ha_innodb.obj
 0001:0004bd60       ?update_create_info@ha_innobase@@UEAAXPEAUst_ha_create_information@@@Z 000000014004cd60 f   ha_innodb.obj
 0001:0004bda0       ?get_foreign_key_list@ha_innobase@@UEAAHPEAVTHD@@PEAV?$List@Ust_foreign_key_info@@@@@Z 000000014004cda0 f   ha_innodb.obj
 0001:0004c2d0       ?strchr@@YAPEADPEADH@Z     000000014004d2d0 f i ha_federated.obj
 0001:0004c2e0       ?strstr@@YAPEADPEADPEBD@Z  000000014004d2e0 f i ha_federated.obj
 0001:0004c2f0       ?reserve@String@@QEAAHK@Z  000000014004d2f0 f i ha_federated.obj
 0001:0004c310       ?val_str@Field@@QEAAPEAVString@@PEAV2@PEAD@Z 000000014004d310 f i ha_federated.obj
 0001:0004c360       ?insert_id@THD@@QEAAX_K@Z  000000014004d360 f i ha_federated.obj
 0001:0004c390       ?federated_db_init@@YA_NXZ 000000014004d390 f   ha_federated.obj
 0001:0004c440       ?federated_db_end@@YA_NXZ  000000014004d440 f   ha_federated.obj
 0001:0004c9b0       ??0ha_federated@@QEAA@PEAUst_table@@@Z 000000014004d9b0 f   ha_federated.obj
 0001:0004caa0       ??1ha_federated@@UEAA@XZ   000000014004daa0 f i ha_federated.obj
 0001:0004cab0       ?table_type@ha_federated@@UEBAPEBDXZ 000000014004dab0 f i ha_federated.obj
 0001:0004cac0       ?index_type@ha_federated@@UEAAPEBDI@Z 000000014004dac0 f i ha_federated.obj
 0001:0004cad0       ?table_flags@ha_federated@@UEBAKXZ 000000014004dad0 f i ha_federated.obj
 0001:0004cae0       ?index_flags@ha_federated@@UEBAKII_N@Z 000000014004dae0 f i ha_federated.obj
 0001:0004caf0       ?max_supported_record_length@ha_federated@@UEBAIXZ 000000014004daf0 f i ha_federated.obj
 0001:0004cb00       ?max_supported_keys@ha_federated@@UEBAIXZ 000000014004db00 f i ha_federated.obj
 0001:0004cb10       ?max_supported_key_parts@ha_federated@@UEBAIXZ 000000014004db10 f i ha_federated.obj
 0001:0004cb20       ?max_supported_key_length@ha_federated@@UEBAIXZ 000000014004db20 f i ha_federated.obj
 0001:0004cb30       ?max_supported_key_part_length@ha_federated@@UEBAIXZ 000000014004db30 f i ha_federated.obj
 0001:0004cb40       ?scan_time@ha_federated@@UEAANXZ 000000014004db40 f i ha_federated.obj
 0001:0004cb70       ?read_time@ha_federated@@UEAANII_K@Z 000000014004db70 f i ha_federated.obj
 0001:0004cba0       ?keys_to_use_for_scanning@ha_federated@@UEAAPEBV?$Bitmap@$0EA@@@XZ 000000014004dba0 f i ha_federated.obj
 0001:0004cbb0       ?table_cache_type@ha_federated@@UEAAEXZ 000000014004dbb0 f i ha_federated.obj
 0001:0004cbc0       ??_Eha_federated@@UEAAPEAXI@Z 000000014004dbc0 f i ha_federated.obj
 0001:0004cbc0       ??_Gha_federated@@UEAAPEAXI@Z 000000014004dbc0 f i ha_federated.obj
 0001:0004cbe0       ?convert_row_to_internal_format@ha_federated@@AEAAIPEAEPEAPEADPEAUst_mysql_res@@@Z 000000014004dbe0 f   ha_federated.obj
 0001:0004ce10       ?records_in_range@ha_federated@@UEAA_KIPEAUst_key_range@@0@Z 000000014004de10 f   ha_federated.obj
 0001:0004ce20       ?bas_ext@ha_federated@@UEBAPEAPEBDXZ 000000014004de20 f   ha_federated.obj
 0001:0004ce30       ?close@ha_federated@@UEAAHXZ 000000014004de30 f   ha_federated.obj
 0001:0004ce90       ?estimate_rows_upper_bound@ha_federated@@UEAA_KXZ 000000014004de90 f   ha_federated.obj
 0001:0004cea0       ?index_init@ha_federated@@UEAAHI@Z 000000014004dea0 f   ha_federated.obj
 0001:0004ceb0       ?read_range_next@ha_federated@@UEAAHXZ 000000014004deb0 f   ha_federated.obj
 0001:0004ced0       ?rnd_end@ha_federated@@UEAAHXZ 000000014004ded0 f   ha_federated.obj
 0001:0004cee0       ?index_end@ha_federated@@UEAAHXZ 000000014004dee0 f   ha_federated.obj
 0001:0004cf30       ?read_next@ha_federated@@AEAAHPEAEPEAUst_mysql_res@@@Z 000000014004df30 f   ha_federated.obj
 0001:0004cfd0       ?position@ha_federated@@UEAAXPEBE@Z 000000014004dfd0 f   ha_federated.obj
 0001:0004d020       ?rnd_pos@ha_federated@@UEAAHPEAE0@Z 000000014004e020 f   ha_federated.obj
 0001:0004d0e0       ?extra@ha_federated@@UEAAHW4ha_extra_function@@@Z 000000014004e0e0 f   ha_federated.obj
 0001:0004d1c0       ?store_lock@ha_federated@@UEAAPEAPEAUst_thr_lock_data@@PEAVTHD@@PEAPEAU2@W4thr_lock_type@@@Z 000000014004e1c0 f   ha_federated.obj
 0001:0004d230       ?create@ha_federated@@UEAAHPEBDPEAUst_table@@PEAUst_ha_create_information@@@Z 000000014004e230 f   ha_federated.obj
 0001:0004d270       ?stash_remote_error@ha_federated@@AEAAHXZ 000000014004e270 f   ha_federated.obj
 0001:0004d310       ?get_error_message@ha_federated@@UEAA_NHPEAVString@@@Z 000000014004e310 f   ha_federated.obj
 0001:0004d670       ?create_where_from_key@ha_federated@@AEAA_NPEAVString@@PEAUst_key@@PEBUst_key_range@@2_N@Z 000000014004e670 f   ha_federated.obj
 0001:0004e0c0       ?open@ha_federated@@UEAAHPEBDHI@Z 000000014004f0c0 f   ha_federated.obj
 0001:0004e170       ?append_stmt_insert@ha_federated@@AEAA_NPEAVString@@@Z 000000014004f170 f   ha_federated.obj
 0001:0004e3a0       ?index_next@ha_federated@@UEAAHPEAE@Z 000000014004f3a0 f   ha_federated.obj
 0001:0004e3d0       ?rnd_next@ha_federated@@UEAAHPEAE@Z 000000014004f3d0 f   ha_federated.obj
 0001:0004e3f0       ?real_connect@ha_federated@@AEAAHXZ 000000014004f3f0 f   ha_federated.obj
 0001:0004e740       ?real_query@ha_federated@@AEAAHPEBDI@Z 000000014004f740 f   ha_federated.obj
 0001:0004e7b0       ?start_bulk_insert@ha_federated@@UEAAX_K@Z 000000014004f7b0 f   ha_federated.obj
 0001:0004e850       ?optimize@ha_federated@@UEAAHPEAVTHD@@PEAUst_ha_check_opt@@@Z 000000014004f850 f   ha_federated.obj
 0001:0004e990       ?repair@ha_federated@@UEAAHPEAVTHD@@PEAUst_ha_check_opt@@@Z 000000014004f990 f   ha_federated.obj
 0001:0004eb30       ?update_row@ha_federated@@UEAAHPEBEPEAE@Z 000000014004fb30 f   ha_federated.obj
 0001:0004f1d0       ?delete_row@ha_federated@@UEAAHPEBE@Z 00000001400501d0 f   ha_federated.obj
 0001:0004f5e0       ?index_read_idx_with_result_set@ha_federated@@AEAAHPEAEIPEBEIW4ha_rkey_function@@PEAPEAUst_mysql_res@@@Z 00000001400505e0 f   ha_federated.obj
 0001:0004f8e0       ?read_range_first@ha_federated@@UEAAHPEBUst_key_range@@0_N1@Z 00000001400508e0 f   ha_federated.obj
 0001:0004faa0       ?rnd_init@ha_federated@@UEAAH_N@Z 0000000140050aa0 f   ha_federated.obj
 0001:0004fb50       ?info@ha_federated@@UEAAHI@Z 0000000140050b50 f   ha_federated.obj
 0001:0004fe90       ?delete_all_rows@ha_federated@@UEAAHXZ 0000000140050e90 f   ha_federated.obj
 0001:0004ffe0       ?update_auto_increment@ha_federated@@QEAAXXZ 0000000140050fe0 f   ha_federated.obj
 0001:00050050       ?index_read@ha_federated@@UEAAHPEAEPEBEIW4ha_rkey_function@@@Z 0000000140051050 f   ha_federated.obj
 0001:000500f0       ?index_read_idx@ha_federated@@UEAAHPEAEIPEBEIW4ha_rkey_function@@@Z 00000001400510f0 f   ha_federated.obj
 0001:00050140       ?write_row@ha_federated@@UEAAHPEAE@Z 0000000140051140 f   ha_federated.obj
 0001:00050670       ?end_bulk_insert@ha_federated@@UEAAHXZ 0000000140051670 f   ha_federated.obj
 0001:00050710       ?is_empty@String@@QEAA_NXZ 0000000140051710 f i handler.obj
 0001:00050720       ?c_ptr_safe@String@@QEAAPEADXZ 0000000140051720 f i handler.obj
 0001:00050770       ??2Sql_alloc@@SAPEAX_KPEAUst_mem_root@@@Z 0000000140051770 f i handler.obj
 0001:00050780       ?next_fast@base_list_iterator@@QEAAPEAXXZ 0000000140051780 f i handler.obj
 0001:000507a0       ?rewind@base_list_iterator@@QEAAXXZ 00000001400517a0 f i handler.obj
 0001:000507b0       ?set@xid_t@@QEAAXJJPEBD@Z  00000001400517b0 f i handler.obj
 0001:000507e0       ?is_null@xid_t@@QEAA_NXZ   00000001400517e0 f i handler.obj
 0001:000507f0       ?null@xid_t@@QEAAXXZ       00000001400517f0 f i handler.obj
 0001:00050800       ?quick_get_my_xid@xid_t@@QEAA_KXZ 0000000140051800 f i handler.obj
 0001:00050810       ?get_my_xid@xid_t@@QEAA_KXZ 0000000140051810 f i handler.obj
 0001:00050850       ?ha_index_init@handler@@QEAAHI@Z 0000000140051850 f i handler.obj
 0001:00050870       ?ha_index_end@handler@@QEAAHXZ 0000000140051870 f i handler.obj
 0001:00050890       ??0st_table_share@@QEAA@XZ 0000000140051890 f i handler.obj
 0001:000508a0       ?cleanup@st_transactions@THD@@QEAAXXZ 00000001400518a0 f i handler.obj
 0001:000508d0       ?ha_resolve_by_name@@YA?AW4db_type@@PEBDI@Z 00000001400518d0 f   handler.obj
 0001:00050aa0       ?ha_get_storage_engine@@YAPEBDW4db_type@@@Z 0000000140051aa0 f   handler.obj
 0001:00050af0       ?ha_check_storage_engine_flag@@YA_NW4db_type@@K@Z 0000000140051af0 f   handler.obj
 0001:00050b40       ?ha_storage_engine_is_enabled@@YADW4db_type@@@Z 0000000140051b40 f   handler.obj
 0001:00050b80       ?ha_checktype@@YA?AW4db_type@@PEAVTHD@@W41@_N2@Z 0000000140051b80 f   handler.obj
 0001:00050c20       ?get_new_handler@@YAPEAVhandler@@PEAUst_table@@PEAUst_mem_root@@W4db_type@@@Z 0000000140051c20 f   handler.obj
 0001:00051300       ?ha_init@@YAHXZ            0000000140052300 f   handler.obj
 0001:00051400       ?ha_panic@@YAHW4ha_panic_function@@@Z 0000000140052400 f   handler.obj
 0001:000514c0       ?ha_drop_database@@YAXPEAD@Z 00000001400524c0 f   handler.obj
 0001:000514e0       ?ha_close_connection@@YAXPEAVTHD@@@Z 00000001400524e0 f   handler.obj
 0001:00051540       ?ha_commit_one_phase@@YAHPEAVTHD@@_N@Z 0000000140052540 f   handler.obj
 0001:000516b0       ?ha_rollback_trans@@YAHPEAVTHD@@_N@Z 00000001400526b0 f   handler.obj
 0001:000518c0       ?ha_commit_or_rollback_by_xid@@YAHPEAUxid_t@@_N@Z 00000001400528c0 f   handler.obj
 0001:00051980       ?ha_recover@@YAHPEAUst_hash@@@Z 0000000140052980 f   handler.obj
 0001:00051cc0       ?ha_release_temporary_latches@@YAHPEAVTHD@@@Z 0000000140052cc0 f   handler.obj
 0001:00051ce0       ?ha_update_statistics@@YAHXZ 0000000140052ce0 f   handler.obj
 0001:00051d00       ?ha_rollback_to_savepoint@@YAHPEAVTHD@@PEAUst_savepoint@@@Z 0000000140052d00 f   handler.obj
 0001:00051e60       ?ha_savepoint@@YAHPEAVTHD@@PEAUst_savepoint@@@Z 0000000140052e60 f   handler.obj
 0001:00051f60       ?ha_release_savepoint@@YAHPEAVTHD@@PEAUst_savepoint@@@Z 0000000140052f60 f   handler.obj
 0001:00052040       ?ha_start_consistent_snapshot@@YAHPEAVTHD@@@Z 0000000140053040 f   handler.obj
 0001:00052090       ?ha_flush_logs@@YA_NXZ     0000000140053090 f   handler.obj
 0001:000520d0       ?ha_open@handler@@QEAAHPEBDHH@Z 00000001400530d0 f   handler.obj
 0001:00052240       ?read_first_row@handler@@UEAAHPEAEI@Z 0000000140053240 f   handler.obj
 0001:00052390       ?next_insert_id@@YA_K_KPEAUsystem_variables@@@Z 0000000140053390 f i handler.obj
 0001:000523c0       ?adjust_next_insert_id_after_explicit_value@handler@@QEAAX_K@Z 00000001400533c0 f   handler.obj
 0001:00052440       ?prev_insert_id@@YA_K_KPEAUsystem_variables@@@Z 0000000140053440 f i handler.obj
 0001:00052480       ?update_auto_increment@handler@@QEAAHXZ 0000000140053480 f   handler.obj
 0001:00052780       ?restore_auto_increment@handler@@UEAAXXZ 0000000140053780 f   handler.obj
 0001:000527c0       ?get_auto_increment@handler@@UEAA_KXZ 00000001400537c0 f   handler.obj
 0001:00052950       ?get_error_message@handler@@UEAA_NHPEAVString@@@Z 0000000140053950 f   handler.obj
 0001:00052960       ?check_collation_compatibility@handler@@QEAAHXZ 0000000140053960 f   handler.obj
 0001:00052a80       ?ha_check_for_upgrade@handler@@QEAAHPEAUst_ha_check_opt@@@Z 0000000140053a80 f   handler.obj
 0001:00052bc0       ?check_old_types@handler@@QEAAHXZ 0000000140053bc0 f   handler.obj
 0001:00052e80       ?get_dup_key@handler@@QEAAIH@Z 0000000140053e80 f   handler.obj
 0001:00052ef0       ?delete_table@handler@@UEAAHPEBD@Z 0000000140053ef0 f   handler.obj
 0001:00052fe0       ?rename_table@handler@@UEAAHPEBD0@Z 0000000140053fe0 f   handler.obj
 0001:00053080       ?ha_check@handler@@QEAAHPEAVTHD@@PEAUst_ha_check_opt@@@Z 0000000140054080 f   handler.obj
 0001:00053170       ?ha_repair@handler@@QEAAHPEAVTHD@@PEAUst_ha_check_opt@@@Z 0000000140054170 f   handler.obj
 0001:000531b0       ?index_next_same@handler@@UEAAHPEAEPEBEI@Z 00000001400541b0 f   handler.obj
 0001:00053240       ?init@st_ha_check_opt@@QEAAXXZ 0000000140054240 f   handler.obj
 0001:00053280       ?ha_init_key_cache@@YAHPEBDPEAUst_key_cache@@@Z 0000000140054280 f   handler.obj
 0001:00053350       ?ha_resize_key_cache@@YAHPEAUst_key_cache@@@Z 0000000140054350 f   handler.obj
 0001:00053420       ?ha_change_key_cache_param@@YAHPEAUst_key_cache@@@Z 0000000140054420 f   handler.obj
 0001:000534a0       ?ha_end_key_cache@@YAHPEAUst_key_cache@@@Z 00000001400544a0 f   handler.obj
 0001:000534c0       ?ha_change_key_cache@@YAHPEAUst_key_cache@@0@Z 00000001400544c0 f   handler.obj
 0001:000534e0       ?ha_discover@@YAHPEAVTHD@@PEBD1PEAPEBXPEAI@Z 00000001400544e0 f   handler.obj
 0001:00053510       ?ha_find_files@@YAHPEAVTHD@@PEBD11_NPEAV?$List@D@@@Z 0000000140054510 f   handler.obj
 0001:00053520       ?ha_table_exists_in_engine@@YAHPEAVTHD@@PEBD1@Z 0000000140054520 f   handler.obj
 0001:00053530       ?read_multi_range_first@handler@@UEAAHPEAPEAUst_key_multi_range@@PEAU2@I_NPEAUst_handler_buffer@@@Z 0000000140054530 f   handler.obj
 0001:00053630       ?read_multi_range_next@handler@@UEAAHPEAPEAUst_key_multi_range@@@Z 0000000140054630 f   handler.obj
 0001:00053730       ?compare_key@handler@@QEAAHPEAUst_key_range@@@Z 0000000140054730 f   handler.obj
 0001:00053780       ?index_read_idx@handler@@UEAAHPEAEIPEBEIW4ha_rkey_function@@@Z 0000000140054780 f   handler.obj
 0001:00053810       ??1?$List@D@@QEAA@XZ       0000000140054810 f i handler.obj
 0001:00053820       ??0?$List@D@@QEAA@XZ       0000000140054820 f i handler.obj
 0001:00053840       ?push_back@?$List@D@@QEAA_NPEAD@Z 0000000140054840 f i handler.obj
 0001:000538d0       ??E?$List_iterator_fast@D@@QEAAPEADH@Z 00000001400548d0 f i handler.obj
 0001:000538f0       ?rewind@?$List_iterator_fast@D@@QEAAXXZ 00000001400548f0 f i handler.obj
 0001:00053900       ?set@xid_t@@QEAAX_K@Z      0000000140054900 f i handler.obj
 0001:00053950       ??0st_table@@QEAA@XZ       0000000140054950 f i handler.obj
 0001:00053960       ??1Item_num@@UEAA@XZ       0000000140054960 f i handler.obj
 0001:000539c0       ?trans_register_ha@@YAXPEAVTHD@@_NPEAUhandlerton@@@Z 00000001400549c0 f   handler.obj
 0001:00053ab0       ?ha_prepare@@YAHPEAVTHD@@@Z 0000000140054ab0 f   handler.obj
 0001:00053ba0       ?ha_commit_trans@@YAHPEAVTHD@@_N@Z 0000000140054ba0 f   handler.obj
 0001:00053e40       ?ha_autocommit_or_rollback@@YAHPEAVTHD@@H@Z 0000000140054e40 f   handler.obj
 0001:00053ec0       ?ha_delete_table@@YAHPEAVTHD@@W4db_type@@PEBD2_N@Z 0000000140054ec0 f   handler.obj
 0001:000541e0       ?clone@handler@@UEAAPEAV1@PEAUst_mem_root@@@Z 00000001400551e0 f   handler.obj
 0001:000542a0       ?print_error@handler@@UEAAXHH@Z 00000001400552a0 f   handler.obj
 0001:000549f0       ?ha_enable_transaction@@YAHPEAVTHD@@_N@Z 00000001400559f0 f   handler.obj
 0001:00054a40       ?ha_create_table@@YAHPEBDPEAUst_ha_create_information@@_N@Z 0000000140055a40 f   handler.obj
 0001:00054be0       ?ha_create_table_from_engine@@YAHPEAVTHD@@PEBD1@Z 0000000140055be0 f   handler.obj
 0001:00054e20       ?read_range_first@handler@@UEAAHPEBUst_key_range@@0_N1@Z 0000000140055e20 f   handler.obj
 0001:00054f50       ?read_range_next@handler@@UEAAHXZ 0000000140055f50 f   handler.obj
 0001:00054fd0       ??0?$List_iterator_fast@D@@QEAA@AEAV?$List@D@@@Z 0000000140055fd0 f i handler.obj
 0001:00054ff0       ??0Item_num@@QEAA@XZ       0000000140055ff0 f i handler.obj
 0001:00055020       ??_GItem_num@@UEAAPEAXI@Z  0000000140056020 f i handler.obj
 0001:00055020       ??_EItem_num@@UEAAPEAXI@Z  0000000140056020 f i handler.obj
 0001:00055080       ??0Item_int@@QEAA@PEBD_JI@Z 0000000140056080 f i handler.obj
 0001:000550f0       ?type@Item_int@@UEBA?AW4Type@Item@@XZ 00000001400560f0 f i handler.obj
 0001:00055100       ?result_type@Item_int@@UEBA?AW4Item_result@@XZ 0000000140056100 f i handler.obj
 0001:00055110       ?field_type@Item_int@@UEBA?AW4enum_field_types@@XZ 0000000140056110 f i handler.obj
 0001:00055120       ?val_int@Item_int@@UEAA_JXZ 0000000140056120 f i handler.obj
 0001:00055130       ?val_real@Item_int@@UEAANXZ 0000000140056130 f i handler.obj
 0001:00055140       ?basic_const_item@Item_int@@UEBA_NXZ 0000000140056140 f i handler.obj
 0001:00055150       ?neg@Item_int@@UEAAPEAVItem_num@@XZ 0000000140056150 f i handler.obj
 0001:00055170       ?decimal_precision@Item_int@@UEBAIXZ 0000000140056170 f i handler.obj
 0001:00055190       ??1Item_int@@UEAA@XZ       0000000140056190 f i handler.obj
 0001:000551f0       ?clone_item@Item_int@@UEAAPEAVItem@@XZ 00000001400561f0 f i handler.obj
 0001:00055290       ??_GItem_int@@UEAAPEAXI@Z  0000000140056290 f i handler.obj
 0001:00055290       ??_EItem_int@@UEAAPEAXI@Z  0000000140056290 f i handler.obj
 0001:000552f0       ?mysql_xa_recover@@YA_NPEAVTHD@@@Z 00000001400562f0 f   handler.obj
 0001:00055790       ?ha_known_exts@@YAPEAUst_typelib@@XZ 0000000140056790 f   handler.obj
 0001:00055ab0       ??0hash_filo_element@@QEAA@XZ 0000000140056ab0 f i hostname.obj
 0001:00055ac0       ??0hash_filo@@QEAA@IIIP6APEAEPEBEPEAID@ZP6AXPEAX@ZPEAUcharset_info_st@@@Z 0000000140056ac0 f i hostname.obj
 0001:00055b40       ??1hash_filo@@QEAA@XZ      0000000140056b40 f i hostname.obj
 0001:00055b80       ?clear@hash_filo@@QEAAX_N@Z 0000000140056b80 f i hostname.obj
 0001:00055c50       ?search@hash_filo@@QEAAPEAVhash_filo_element@@PEADI@Z 0000000140056c50 f i hostname.obj
 0001:00055cd0       ?add@hash_filo@@QEAADPEAVhash_filo_element@@@Z 0000000140056cd0 f i hostname.obj
 0001:00055d90       ?hostname_cache_refresh@@YAXXZ 0000000140056d90 f   hostname.obj
 0001:00055e60       ??0host_entry@@QEAA@XZ     0000000140056e60 f i hostname.obj
 0001:00055e70       ??_Ghash_filo@@QEAAPEAXI@Z 0000000140056e70 f i hostname.obj
 0001:00056060       ?add_wrong_ip@@YAXPEAUin_addr@@@Z 0000000140057060 f i hostname.obj
 0001:00056070       ?inc_host_errors@@YAXPEAUin_addr@@@Z 0000000140057070 f   hostname.obj
 0001:00056140       ?reset_host_errors@@YAXPEAUin_addr@@@Z 0000000140057140 f   hostname.obj
 0001:00056210       ?ip_to_hostname@@YAPEADPEAUin_addr@@PEAI@Z 0000000140057210 f   hostname.obj
 0001:00056520       ?hostname_cache_init@@YA_NXZ 0000000140057520 f   hostname.obj
 0001:000566d0       ?hostname_cache_free@@YAXXZ 00000001400576d0 f   hostname.obj
 0001:00056760       ?unireg_init@@YAXK@Z       0000000140057760 f   init.obj
 0001:00056930       ??0String@@QEAA@AEBV0@@Z   0000000140057930 f i item.obj
 0001:00056960       ?mark_as_const@String@@QEAAXXZ 0000000140057960 f i item.obj
 0001:000569c0       ?push_front@base_list@@QEAA_NPEAX@Z 00000001400579c0 f i item.obj
 0001:00056a30       ?head@base_list@@QEAAPEAXXZ 0000000140057a30 f i item.obj
 0001:00056a40       ?my_decimal_int_part@@YAHII@Z 0000000140057a40 f i item.obj
 0001:00056a50       ?precision@my_decimal@@QEBAIXZ 0000000140057a50 f i item.obj
 0001:00056a60       ?my_decimal2decimal@@YAXPEBVmy_decimal@@PEAV1@@Z 0000000140057a60 f i item.obj
 0001:00056ac0       ?my_decimal_is_zero@@YA_NPEBVmy_decimal@@@Z 0000000140057ac0 f i item.obj
 0001:00056ae0       ?my_decimal_round@@YAHIPEBVmy_decimal@@H_NPEAV1@@Z 0000000140057ae0 f i item.obj
 0001:00056b40       ?str2my_decimal@@YAHIPEBDPEAVmy_decimal@@PEAPEAD@Z 0000000140057b40 f i item.obj
 0001:00056bd0       ?string2my_decimal@@YAHIPEBVString@@PEAVmy_decimal@@@Z 0000000140057bd0 f i item.obj
 0001:00056c00       ?my_decimal_add@@YAHIPEAVmy_decimal@@PEBV1@1@Z 0000000140057c00 f i item.obj
 0001:00056c90       ?my_decimal_div@@YAHIPEAVmy_decimal@@PEBV1@1H@Z 0000000140057c90 f i item.obj
 0001:00056d20       ?my_decimal_cmp@@YAHPEBVmy_decimal@@0@Z 0000000140057d20 f i item.obj
 0001:00056d30       ?top_table@TABLE_LIST@@QEAAPEAU1@XZ 0000000140057d30 f i item.obj
 0001:00056d50       ??0Field_newdate@@QEAA@_NPEBDPEAUst_table@@PEAUcharset_info_st@@@Z 0000000140057d50 f i item.obj
 0001:00056dd0       ??0Field_time@@QEAA@_NPEBDPEAUst_table@@PEAUcharset_info_st@@@Z 0000000140057dd0 f i item.obj
 0001:00056e50       ??0Field_datetime@@QEAA@_NPEBDPEAUst_table@@PEAUcharset_info_st@@@Z 0000000140057e50 f i item.obj
 0001:00056ed0       ?set_repertoire_from_charset@DTCollation@@QEAAXPEAUcharset_info_st@@@Z 0000000140057ed0 f i item.obj
 0001:00056ef0       ??0DTCollation@@QEAA@PEAUcharset_info_st@@W4Derivation@@@Z 0000000140057ef0 f i item.obj
 0001:00056f20       ?set@DTCollation@@QEAAXAEAV1@@Z 0000000140057f20 f i item.obj
 0001:00056f40       ?set@DTCollation@@QEAAXPEAUcharset_info_st@@W4Derivation@@@Z 0000000140057f40 f i item.obj
 0001:00056f60       ?set@DTCollation@@QEAAXPEAUcharset_info_st@@@Z 0000000140057f60 f i item.obj
 0001:00056f80       ?set@DTCollation@@QEAAXW4Derivation@@@Z 0000000140057f80 f i item.obj
 0001:00056f90       ?derivation_name@DTCollation@@QEBAPEBDXZ 0000000140057f90 f i item.obj
 0001:00057020       ??0Hybrid_type_traits@@QEAA@XZ 0000000140058020 f i item.obj
 0001:00057040       ?type@Hybrid_type_traits@@UEBA?AW4Item_result@@XZ 0000000140058040 f i item.obj
 0001:00057050       ?set_zero@Hybrid_type_traits@@UEBAXPEAUHybrid_type@@@Z 0000000140058050 f i item.obj
 0001:00057060       ?add@Hybrid_type_traits@@UEBAXPEAUHybrid_type@@PEAVField@@@Z 0000000140058060 f i item.obj
 0001:00057090       ?div@Hybrid_type_traits@@UEBAXPEAUHybrid_type@@_K@Z 0000000140058090 f i item.obj
 0001:000570c0       ?val_int@Hybrid_type_traits@@UEBA_JPEAUHybrid_type@@_N@Z 00000001400580c0 f i item.obj
 0001:000570e0       ?val_real@Hybrid_type_traits@@UEBANPEAUHybrid_type@@@Z 00000001400580e0 f i item.obj
 0001:000570f0       ??1Hybrid_type_traits@@UEAA@XZ 00000001400580f0 f i item.obj
 0001:00057100       ??_EHybrid_type_traits@@UEAAPEAXI@Z 0000000140058100 f i item.obj
 0001:00057100       ??_GHybrid_type_traits@@UEAAPEAXI@Z 0000000140058100 f i item.obj
 0001:00057130       ??0Hybrid_type_traits_decimal@@QEAA@XZ 0000000140058130 f i item.obj
 0001:00057150       ?type@Hybrid_type_traits_decimal@@UEBA?AW4Item_result@@XZ 0000000140058150 f i item.obj
 0001:00057160       ?val_decimal@Hybrid_type_traits_decimal@@UEBAPEAVmy_decimal@@PEAUHybrid_type@@PEAV2@@Z 0000000140058160 f i item.obj
 0001:00057180       ??1Hybrid_type_traits_decimal@@UEAA@XZ 0000000140058180 f i item.obj
 0001:00057190       ??0Hybrid_type_traits_integer@@QEAA@XZ 0000000140058190 f i item.obj
 0001:000571b0       ?type@Hybrid_type_traits_integer@@UEBA?AW4Item_result@@XZ 00000001400581b0 f i item.obj
 0001:000571c0       ?set_zero@Hybrid_type_traits_integer@@UEBAXPEAUHybrid_type@@@Z 00000001400581c0 f i item.obj
 0001:000571d0       ?add@Hybrid_type_traits_integer@@UEBAXPEAUHybrid_type@@PEAVField@@@Z 00000001400581d0 f i item.obj
 0001:00057200       ?div@Hybrid_type_traits_integer@@UEBAXPEAUHybrid_type@@_K@Z 0000000140058200 f i item.obj
 0001:00057220       ?val_int@Hybrid_type_traits_integer@@UEBA_JPEAUHybrid_type@@_N@Z 0000000140058220 f i item.obj
 0001:00057230       ?val_real@Hybrid_type_traits_integer@@UEBANPEAUHybrid_type@@@Z 0000000140058230 f i item.obj
 0001:00057240       ?val_decimal@Hybrid_type_traits_integer@@UEBAPEAVmy_decimal@@PEAUHybrid_type@@PEAV2@@Z 0000000140058240 f i item.obj
 0001:00057280       ?val_str@Hybrid_type_traits_integer@@UEBAPEAVString@@PEAUHybrid_type@@PEAV2@E@Z 0000000140058280 f i item.obj
 0001:000572b0       ??1Hybrid_type_traits_integer@@UEAA@XZ 00000001400582b0 f i item.obj
 0001:000572c0       ?process_error@Name_resolution_context@@QEAAXPEAVTHD@@@Z 00000001400582c0 f i item.obj
 0001:000572e0       ??0Settable_routine_parameter@@QEAA@XZ 00000001400582e0 f i item.obj
 0001:00057300       ??1Settable_routine_parameter@@UEAA@XZ 0000000140058300 f i item.obj
 0001:00057310       ?set_required_privilege@Settable_routine_parameter@@UEAAX_N@Z 0000000140058310 f i item.obj
 0001:00057320       ??_GSettable_routine_parameter@@UEAAPEAXI@Z 0000000140058320 f i item.obj
 0001:00057320       ??_ESettable_routine_parameter@@UEAAPEAXI@Z 0000000140058320 f i item.obj
 0001:00057350       ?float_length@Item@@QEBAII@Z 0000000140058350 f i item.obj
 0001:00057370       ?decimal_int_part@Item@@QEBAHXZ 0000000140058370 f i item.obj
 0001:000573a0       ?get_var_idx@Item_splocal@@QEBAIXZ 00000001400583a0 f i item.obj
 0001:000573b0       ?max_disp_length@Item_field@@QEAAKXZ 00000001400583b0 f i item.obj
 0001:000573d0       ?depended_from@Item_sum@@QEAAPEAVst_select_lex@@XZ 00000001400583d0 f i item.obj
 0001:000573f0       ?get_arg@Item_sum@@QEAAPEAVItem@@H@Z 00000001400583f0 f i item.obj
 0001:00057410       ?get_const@Item_equal@@QEAAPEAVItem@@XZ 0000000140058410 f i item.obj
 0001:00057420       ?first_select@st_select_lex_unit@@QEAAPEAVst_select_lex@@XZ 0000000140058420 f i item.obj
 0001:00057430       ?set_non_agg_field_used@st_select_lex@@QEAAX_N@Z 0000000140058430 f i item.obj
 0001:00057440       ??0Query_arena@@QEAA@XZ    0000000140058440 f i item.obj
 0001:00057460       ??1Query_arena@@UEAA@XZ    0000000140058460 f i item.obj
 0001:00057470       ?is_stmt_prepare@Query_arena@@QEBA_NXZ 0000000140058470 f i item.obj
 0001:00057480       ?is_conventional@Query_arena@@QEBA_NXZ 0000000140058480 f i item.obj
 0001:00057490       ?strdup@Query_arena@@QEAAPEADPEBD@Z 0000000140058490 f i item.obj
 0001:000574a0       ??_GQuery_arena@@UEAAPEAXI@Z 00000001400584a0 f i item.obj
 0001:000574a0       ??_EQuery_arena@@UEAAPEAXI@Z 00000001400584a0 f i item.obj
 0001:000574d0       ?activate_stmt_arena_if_needed@THD@@QEAAPEAVQuery_arena@@PEAV2@@Z 00000001400584d0 f i item.obj
 0001:00057520       ?change_item_tree@THD@@QEAAXPEAPEAVItem@@PEAV2@@Z 0000000140058520 f i item.obj
 0001:00057580       ?fix_length_and_dec@Hybrid_type_traits@@UEBAXPEAVItem@@0@Z 0000000140058580 f   item.obj
 0001:00057590       ?instance@Hybrid_type_traits@@SAPEBU1@XZ 0000000140058590 f   item.obj
 0001:000575a0       ?val_decimal@Hybrid_type_traits@@UEBAPEAVmy_decimal@@PEAUHybrid_type@@PEAV2@@Z 00000001400585a0 f   item.obj
 0001:00057620       ?val_str@Hybrid_type_traits@@UEBAPEAVString@@PEAUHybrid_type@@PEAV2@E@Z 0000000140058620 f   item.obj
 0001:00057660       ?instance@Hybrid_type_traits_decimal@@SAPEBU1@XZ 0000000140058660 f   item.obj
 0001:00057670       ?fix_length_and_dec@Hybrid_type_traits_decimal@@UEBAXPEAVItem@@0@Z 0000000140058670 f   item.obj
 0001:000576a0       ?set_zero@Hybrid_type_traits_decimal@@UEBAXPEAUHybrid_type@@@Z 00000001400586a0 f   item.obj
 0001:000576d0       ?add@Hybrid_type_traits_decimal@@UEBAXPEAUHybrid_type@@PEAVField@@@Z 00000001400586d0 f   item.obj
 0001:00057790       ?div@Hybrid_type_traits_decimal@@UEBAXPEAUHybrid_type@@_K@Z 0000000140058790 f   item.obj
 0001:00057870       ?val_real@Hybrid_type_traits_decimal@@UEBANPEAUHybrid_type@@@Z 0000000140058870 f   item.obj
 0001:000578b0       ?val_str@Hybrid_type_traits_decimal@@UEBAPEAVString@@PEAUHybrid_type@@PEAV2@E@Z 00000001400588b0 f   item.obj
 0001:00057940       ?instance@Hybrid_type_traits_integer@@SAPEBU1@XZ 0000000140058940 f   item.obj
 0001:00057950       ?fix_length_and_dec@Hybrid_type_traits_integer@@UEBAXPEAVItem@@0@Z 0000000140058950 f   item.obj
 0001:00057970       ?item_init@@YAXXZ          0000000140058970 f   item.obj
 0001:00057980       ?val_string_from_real@Item@@QEAAPEAVString@@PEAV2@@Z 0000000140058980 f   item.obj
 0001:000579f0       ?val_string_from_int@Item@@QEAAPEAVString@@PEAV2@@Z 00000001400589f0 f   item.obj
 0001:00057a70       ?val_decimal_from_real@Item@@QEAAPEAVmy_decimal@@PEAV2@@Z 0000000140058a70 f   item.obj
 0001:00057b00       ?val_decimal_from_int@Item@@QEAAPEAVmy_decimal@@PEAV2@@Z 0000000140058b00 f   item.obj
 0001:00057b70       ?val_decimal_from_string@Item@@QEAAPEAVmy_decimal@@PEAV2@@Z 0000000140058b70 f   item.obj
 0001:00057c70       ?val_decimal_from_date@Item@@QEAAPEAVmy_decimal@@PEAV2@@Z 0000000140058c70 f   item.obj
 0001:00057cf0       ?val_decimal_from_time@Item@@QEAAPEAVmy_decimal@@PEAV2@@Z 0000000140058cf0 f   item.obj
 0001:00057d50       ?save_time_in_field@Item@@QEAAHPEAVField@@@Z 0000000140058d50 f   item.obj
 0001:00057dc0       ?save_date_in_field@Item@@QEAAHPEAVField@@@Z 0000000140058dc0 f   item.obj
 0001:00057e40       ?save_str_value_in_field@Item@@QEAAHPEAVField@@PEAVString@@@Z 0000000140058e40 f   item.obj
 0001:00057e90       ?decimal_precision@Item@@UEBAIXZ 0000000140058e90 f   item.obj
 0001:00057f10       ?print_item_w_name@Item@@QEAAXPEAVString@@@Z 0000000140058f10 f   item.obj
 0001:00057fc0       ?cleanup@Item@@UEAAXXZ     0000000140058fc0 f   item.obj
 0001:00057fe0       ?cleanup_processor@Item@@UEAA_NPEAE@Z 0000000140058fe0 f   item.obj
 0001:00058000       ?rename@Item@@QEAAXPEAD@Z  0000000140059000 f   item.obj
 0001:00058030       ?transform@Item@@UEAAPEAV1@P81@EAAPEAV1@PEAE@Z0@Z 0000000140059030 f   item.obj
 0001:00058040       ?cleanup@Item_ident@@UEAAXXZ 0000000140059040 f   item.obj
 0001:00058090       ?remove_dependence_processor@Item_ident@@UEAA_NPEAE@Z 0000000140059090 f   item.obj
 0001:000580c0       ?find_item_in_field_list_processor@Item_field@@UEAA_NPEAE@Z 00000001400590c0 f   item.obj
 0001:00058140       ?check_cols@Item@@UEAA_NI@Z 0000000140059140 f   item.obj
 0001:00058170       ?set_name@Item@@QEAAXPEBDIPEAUcharset_info_st@@@Z 0000000140059170 f   item.obj
 0001:000582f0       ?eq@Item@@UEBA_NPEBV1@_N@Z 00000001400592f0 f   item.obj
 0001:00058390       ?safe_charset_converter@Item_param@@UEAAPEAVItem@@PEAUcharset_info_st@@@Z 0000000140059390 f   item.obj
 0001:00058470       ?eq@Item_string@@UEBA_NPEBVItem@@_N@Z 0000000140059470 f   item.obj
 0001:00058540       ?default_charset@Item@@SAPEAUcharset_info_st@@XZ 0000000140059540 f   item.obj
 0001:00058570       ?save_in_field_no_warnings@Item@@QEAAHPEAVField@@_N@Z 0000000140059570 f   item.obj
 0001:000585f0       ?fix_fields@Item_sp_variable@@UEAA_NPEAVTHD@@PEAPEAVItem@@@Z 00000001400595f0 f   item.obj
 0001:00058660       ?val_real@Item_sp_variable@@UEAANXZ 0000000140059660 f   item.obj
 0001:000586b0       ?val_int@Item_sp_variable@@UEAA_JXZ 00000001400596b0 f   item.obj
 0001:00058700       ?val_decimal@Item_sp_variable@@UEAAPEAVmy_decimal@@PEAV2@@Z 0000000140059700 f   item.obj
 0001:00058760       ?is_null@Item_sp_variable@@UEAA_NXZ 0000000140059760 f   item.obj
 0001:00058790       ?this_item@Item_splocal@@UEAAPEAVItem@@XZ 0000000140059790 f   item.obj
 0001:000587b0       ?this_item@Item_splocal@@UEBAPEBVItem@@XZ 00000001400597b0 f   item.obj
 0001:000587d0       ?this_item_addr@Item_splocal@@UEAAPEAPEAVItem@@PEAVTHD@@PEAPEAV2@@Z 00000001400597d0 f   item.obj
 0001:000587f0       ?print@Item_splocal@@UEAAXPEAVString@@@Z 00000001400597f0 f   item.obj
 0001:00058890       ?set_value@Item_splocal@@EEAA_NPEAVTHD@@PEAVsp_rcontext@@PEAPEAVItem@@@Z 0000000140059890 f   item.obj
 0001:000588c0       ?this_item@Item_case_expr@@UEAAPEAVItem@@XZ 00000001400598c0 f   item.obj
 0001:000588e0       ?this_item@Item_case_expr@@UEBAPEBVItem@@XZ 00000001400598e0 f   item.obj
 0001:00058900       ?this_item_addr@Item_case_expr@@UEAAPEAPEAVItem@@PEAVTHD@@PEAPEAV2@@Z 0000000140059900 f   item.obj
 0001:00058920       ?print@Item_case_expr@@UEAAXPEAVString@@@Z 0000000140059920 f   item.obj
 0001:00058970       ?val_real@Item_name_const@@UEAANXZ 0000000140059970 f   item.obj
 0001:000589a0       ?val_int@Item_name_const@@UEAA_JXZ 00000001400599a0 f   item.obj
 0001:000589d0       ?val_str@Item_name_const@@UEAAPEAVString@@PEAV2@@Z 00000001400599d0 f   item.obj
 0001:00058a00       ?val_decimal@Item_name_const@@UEAAPEAVmy_decimal@@PEAV2@@Z 0000000140059a00 f   item.obj
 0001:00058a40       ?is_null@Item_name_const@@UEAA_NXZ 0000000140059a40 f   item.obj
 0001:00058a60       ?type@Item_name_const@@UEBA?AW4Type@Item@@XZ 0000000140059a60 f   item.obj
 0001:00058ac0       ?print@Item_name_const@@UEAAXPEAVString@@@Z 0000000140059ac0 f   item.obj
 0001:00058c00       ?aggregate@DTCollation@@QEAA_NAEAV1@I@Z 0000000140059c00 f   item.obj
 0001:00059210       ?agg_item_collations@@YA_NAEAVDTCollation@@PEBDPEAPEAVItem@@IIH@Z 000000014005a210 f   item.obj
 0001:00059350       ?agg_item_collations_for_comparison@@YA_NAEAVDTCollation@@PEBDPEAPEAVItem@@II@Z 000000014005a350 f   item.obj
 0001:00059380       ?make_field@Item_ident_for_show@@UEAAXPEAVSend_field@@@Z 000000014005a380 f   item.obj
 0001:00059440       ?set_field@Item_field@@IEAAXPEAVField@@@Z 000000014005a440 f   item.obj
 0001:000595a0       ?reset_field@Item_field@@QEAAXPEAVField@@@Z 000000014005a5a0 f   item.obj
 0001:000595e0       ?full_name@Item_ident@@UEBAPEBDXZ 000000014005a5e0 f   item.obj
 0001:000597a0       ?print@Item_ident@@UEAAXPEAVString@@@Z 000000014005a7a0 f   item.obj
 0001:00059a50       ?val_str@Item_field@@UEAAPEAVString@@PEAV2@@Z 000000014005aa50 f   item.obj
 0001:00059ac0       ?val_real@Item_field@@UEAANXZ 000000014005aac0 f   item.obj
 0001:00059b20       ?val_int@Item_field@@UEAA_JXZ 000000014005ab20 f   item.obj
 0001:00059b80       ?val_decimal@Item_field@@UEAAPEAVmy_decimal@@PEAV2@@Z 000000014005ab80 f   item.obj
 0001:00059be0       ?str_result@Item_field@@UEAAPEAVString@@PEAV2@@Z 000000014005abe0 f   item.obj
 0001:00059c50       ?get_date@Item_field@@UEAA_NPEAUst_mysql_time@@I@Z 000000014005ac50 f   item.obj
 0001:00059cf0       ?get_date_result@Item_field@@UEAA_NPEAUst_mysql_time@@I@Z 000000014005acf0 f   item.obj
 0001:00059d90       ?get_time@Item_field@@UEAA_NPEAUst_mysql_time@@@Z 000000014005ad90 f   item.obj
 0001:00059e30       ?val_result@Item_field@@UEAANXZ 000000014005ae30 f   item.obj
 0001:00059e90       ?val_int_result@Item_field@@UEAA_JXZ 000000014005ae90 f   item.obj
 0001:00059ef0       ?val_decimal_result@Item_field@@UEAAPEAVmy_decimal@@PEAV2@@Z 000000014005aef0 f   item.obj
 0001:00059f50       ?is_null_result@Item_field@@UEAA_NXZ 000000014005af50 f   item.obj
 0001:00059fa0       ?eq@Item_field@@UEBA_NPEBVItem@@_N@Z 000000014005afa0 f   item.obj
 0001:0005a0f0       ?used_tables@Item_field@@UEBA_KXZ 000000014005b0f0 f   item.obj
 0001:0005a140       ?val_decimal@Item_int@@UEAAPEAVmy_decimal@@PEAV2@@Z 000000014005b140 f   item.obj
 0001:0005a190       ?val_str@Item_int@@UEAAPEAVString@@PEAV2@@Z 000000014005b190 f   item.obj
 0001:0005a1c0       ?print@Item_int@@UEAAXPEAVString@@@Z 000000014005b1c0 f   item.obj
 0001:0005a210       ?val_str@Item_uint@@UEAAPEAVString@@PEAV2@@Z 000000014005b210 f   item.obj
 0001:0005a240       ?print@Item_uint@@UEAAXPEAVString@@@Z 000000014005b240 f   item.obj
 0001:0005a290       ?val_real@Item_decimal@@UEAANXZ 000000014005b290 f   item.obj
 0001:0005a2c0       ?val_str@Item_decimal@@UEAAPEAVString@@PEAV2@@Z 000000014005b2c0 f   item.obj
 0001:0005a310       ?print@Item_decimal@@UEAAXPEAVString@@@Z 000000014005b310 f   item.obj
 0001:0005a370       ?eq@Item_decimal@@UEBA_NPEBVItem@@_N@Z 000000014005b370 f   item.obj
 0001:0005a410       ?set_decimal_value@Item_decimal@@QEAAXPEAVmy_decimal@@@Z 000000014005b410 f   item.obj
 0001:0005a4e0       ?val_str@Item_float@@UEAAPEAVString@@PEAV2@@Z 000000014005b4e0 f   item.obj
 0001:0005a520       ?val_decimal@Item_float@@UEAAPEAVmy_decimal@@PEAV2@@Z 000000014005b520 f   item.obj
 0001:0005a590       ?print@Item_string@@UEAAXPEAVString@@@Z 000000014005b590 f   item.obj
 0001:0005a6a0       ?val_real@Item_string@@UEAANXZ 000000014005b6a0 f   item.obj
 0001:0005a7c0       ?val_int@Item_string@@UEAA_JXZ 000000014005b7c0 f   item.obj
 0001:0005a8e0       ?val_decimal@Item_string@@UEAAPEAVmy_decimal@@PEAV2@@Z 000000014005b8e0 f   item.obj
 0001:0005a8f0       ?eq@Item_null@@UEBA_NPEBVItem@@_N@Z 000000014005b8f0 f   item.obj
 0001:0005a930       ?val_real@Item_null@@UEAANXZ 000000014005b930 f   item.obj
 0001:0005a940       ?val_int@Item_null@@UEAA_JXZ 000000014005b940 f   item.obj
 0001:0005a950       ?val_str@Item_null@@UEAAPEAVString@@PEAV2@@Z 000000014005b950 f   item.obj
 0001:0005a960       ?val_decimal@Item_null@@UEAAPEAVmy_decimal@@PEAV2@@Z 000000014005b960 f   item.obj
 0001:0005a970       ?safe_charset_converter@Item_null@@UEAAPEAVItem@@PEAUcharset_info_st@@@Z 000000014005b970 f   item.obj
 0001:0005a990       ?set_null@Item_param@@QEAAXXZ 000000014005b990 f   item.obj
 0001:0005a9c0       ?set_int@Item_param@@QEAAX_JK@Z 000000014005b9c0 f   item.obj
 0001:0005a9f0       ?set_double@Item_param@@QEAAXN@Z 000000014005b9f0 f   item.obj
 0001:0005aa20       ?set_decimal@Item_param@@QEAAXPEBDK@Z 000000014005ba20 f   item.obj
 0001:0005ab40       ?set_time@Item_param@@QEAAXPEAUst_mysql_time@@W4enum_mysql_timestamp_type@@K@Z 000000014005bb40 f   item.obj
 0001:0005acd0       ?set_str@Item_param@@QEAA_NPEBDK@Z 000000014005bcd0 f   item.obj
 0001:0005ad50       ?set_longdata@Item_param@@QEAA_NPEBDK@Z 000000014005bd50 f   item.obj
 0001:0005ada0       ?set_from_user_var@Item_param@@QEAA_NPEAVTHD@@PEBVuser_var_entry@@@Z 000000014005bda0 f   item.obj
 0001:0005b0a0       ?reset@Item_param@@QEAAXXZ 000000014005c0a0 f   item.obj
 0001:0005b150       ?save_in_field@Item_param@@UEAAHPEAVField@@_N@Z 000000014005c150 f   item.obj
 0001:0005b290       ?val_real@Item_param@@UEAANXZ 000000014005c290 f   item.obj
 0001:0005b3b0       ?val_decimal@Item_param@@UEAAPEAVmy_decimal@@PEAV2@@Z 000000014005c3b0 f   item.obj
 0001:0005b520       ?val_str@Item_param@@UEAAPEAVString@@PEAV2@@Z 000000014005c520 f   item.obj
 0001:0005b6b0       ?query_val_str@Item_param@@QEBAPEBVString@@PEAV2@@Z 000000014005c6b0 f   item.obj
 0001:0005b8d0       ?basic_const_item@Item_param@@UEBA_NXZ 000000014005c8d0 f   item.obj
 0001:0005b8f0       ?eq@Item_param@@UEBA_NPEBVItem@@_N@Z 000000014005c8f0 f   item.obj
 0001:0005bad0       ?copy@Item_copy_string@@QEAAXXZ 000000014005cad0 f   item.obj
 0001:0005bb30       ?val_str@Item_copy_string@@UEAAPEAVString@@PEAV2@@Z 000000014005cb30 f   item.obj
 0001:0005bb50       ?val_decimal@Item_copy_string@@UEAAPEAVmy_decimal@@PEAV2@@Z 000000014005cb50 f   item.obj
 0001:0005bba0       ?fix_fields@Item@@UEAA_NPEAVTHD@@PEAPEAV1@@Z 000000014005cba0 f   item.obj
 0001:0005bbb0       ?val_real@Item_ref_null_helper@@UEAANXZ 000000014005cbb0 f   item.obj
 0001:0005bc20       ?val_int@Item_ref_null_helper@@UEAA_JXZ 000000014005cc20 f   item.obj
 0001:0005bc90       ?val_decimal@Item_ref_null_helper@@UEAAPEAVmy_decimal@@PEAV2@@Z 000000014005cc90 f   item.obj
 0001:0005bd00       ?val_bool@Item_ref_null_helper@@UEAA_NXZ 000000014005cd00 f   item.obj
 0001:0005bd70       ?val_str@Item_ref_null_helper@@UEAAPEAVString@@PEAV2@@Z 000000014005cd70 f   item.obj
 0001:0005bde0       ?get_date@Item_ref_null_helper@@UEAA_NPEAUst_mysql_time@@I@Z 000000014005cde0 f   item.obj
 0001:0005bfa0       ?mark_select_range_as_dependent@@YAXPEAVTHD@@PEAVst_select_lex@@1PEAVField@@PEAVItem@@PEAVItem_ident@@@Z 000000014005cfa0 f   item.obj
 0001:0005c600       ?cleanup@Item_field@@UEAAXXZ 000000014005d600 f   item.obj
 0001:0005c630       ?subst_argument_checker@Item_field@@UEAA_NPEAPEAE@Z 000000014005d630 f   item.obj
 0001:0005c660       ?set_no_const_sub@Item_field@@UEAA_NPEAE@Z 000000014005d660 f   item.obj
 0001:0005c6b0       ?init_make_field@Item@@QEAAXPEAVSend_field@@W4enum_field_types@@@Z 000000014005d6b0 f   item.obj
 0001:0005c740       ?make_field@Item@@UEAAXPEAVSend_field@@@Z 000000014005d740 f   item.obj
 0001:0005c780       ?make_field@Item_empty_string@@UEAAXPEAVSend_field@@@Z 000000014005d780 f   item.obj
 0001:0005c7c0       ?field_type@Item@@UEBA?AW4enum_field_types@@XZ 000000014005d7c0 f   item.obj
 0001:0005c820       ?is_datetime@Item@@QEAA_NXZ 000000014005d820 f   item.obj
 0001:0005c850       ?check_well_formed_result@Item@@QEAAPEAVString@@PEAV2@_N@Z 000000014005d850 f   item.obj
 0001:0005c9d0       ?eq_by_collation@Item@@QEAA_NPEAV1@_NPEAUcharset_info_st@@@Z 000000014005d9d0 f   item.obj
 0001:0005ca60       ?make_field@Item_field@@UEAAXPEAVSend_field@@@Z 000000014005da60 f   item.obj
 0001:0005cad0       ?save_org_in_field@Item_field@@UEAAXPEAVField@@@Z 000000014005dad0 f   item.obj
 0001:0005cb70       ?save_in_field@Item_field@@UEAAHPEAVField@@_N@Z 000000014005db70 f   item.obj
 0001:0005cc10       ?save_in_field@Item_null@@UEAAHPEAVField@@_N@Z 000000014005dc10 f   item.obj
 0001:0005cc20       ?save_safe_in_field@Item_null@@UEAAHPEAVField@@@Z 000000014005dc20 f   item.obj
 0001:0005cc30       ?save_in_field@Item_string@@UEAAHPEAVField@@_N@Z 000000014005dc30 f   item.obj
 0001:0005cc70       ?save_in_field@Item_int@@UEAAHPEAVField@@_N@Z 000000014005dc70 f   item.obj
 0001:0005ccf0       ?save_in_field@Item_decimal@@UEAAHPEAVField@@_N@Z 000000014005dcf0 f   item.obj
 0001:0005cd20       ?eq@Item_int@@UEBA_NPEBVItem@@_N@Z 000000014005dd20 f   item.obj
 0001:0005ce50       ?save_in_field@Item_float@@UEAAHPEAVField@@_N@Z 000000014005de50 f   item.obj
 0001:0005cec0       ?eq@Item_float@@UEBA_NPEBVItem@@_N@Z 000000014005dec0 f   item.obj
 0001:0005cf60       ?char_val@@YAID@Z          000000014005df60 f i item.obj
 0001:0005cf90       ?val_int@Item_hex_string@@UEAA_JXZ 000000014005df90 f   item.obj
 0001:0005cff0       ?val_decimal@Item_hex_string@@UEAAPEAVmy_decimal@@PEAV2@@Z 000000014005dff0 f   item.obj
 0001:0005d030       ?save_in_field@Item_hex_string@@UEAAHPEAVField@@_N@Z 000000014005e030 f   item.obj
 0001:0005d170       ?print@Item_hex_string@@UEAAXPEAVString@@@Z 000000014005e170 f   item.obj
 0001:0005d2c0       ?eq@Item_hex_string@@UEBA_NPEBVItem@@_N@Z 000000014005e2c0 f   item.obj
 0001:0005d3a0       ?send@Item_null@@UEAA_NPEAVProtocol@@PEAVString@@@Z 000000014005e3a0 f   item.obj
 0001:0005d3b0       ?send@Item@@UEAA_NPEAVProtocol@@PEAVString@@@Z 000000014005e3b0 f   item.obj
 0001:0005d680       ?send@Item_field@@UEAA_NPEAVProtocol@@PEAVString@@@Z 000000014005e680 f   item.obj
 0001:0005d6a0       ?update_null_value@Item_field@@UEAAXXZ 000000014005e6a0 f   item.obj
 0001:0005d700       ?set_properties@Item_ref@@IEAAXXZ 000000014005e700 f   item.obj
 0001:0005d7d0       ?cleanup@Item_ref@@UEAAXXZ 000000014005e7d0 f   item.obj
 0001:0005d7f0       ?print@Item_ref@@UEAAXPEAVString@@@Z 000000014005e7f0 f   item.obj
 0001:0005d940       ?send@Item_ref@@UEAA_NPEAVProtocol@@PEAVString@@@Z 000000014005e940 f   item.obj
 0001:0005d980       ?val_result@Item_ref@@UEAANXZ 000000014005e980 f   item.obj
 0001:0005d9f0       ?is_null_result@Item_ref@@UEAA_NXZ 000000014005e9f0 f   item.obj
 0001:0005da50       ?val_int_result@Item_ref@@UEAA_JXZ 000000014005ea50 f   item.obj
 0001:0005dac0       ?str_result@Item_ref@@UEAAPEAVString@@PEAV2@@Z 000000014005eac0 f   item.obj
 0001:0005db40       ?val_decimal_result@Item_ref@@UEAAPEAVmy_decimal@@PEAV2@@Z 000000014005eb40 f   item.obj
 0001:0005dbb0       ?val_real@Item_ref@@UEAANXZ 000000014005ebb0 f   item.obj
 0001:0005dbf0       ?val_int@Item_ref@@UEAA_JXZ 000000014005ebf0 f   item.obj
 0001:0005dc40       ?val_bool@Item_ref@@UEAA_NXZ 000000014005ec40 f   item.obj
 0001:0005dc90       ?val_str@Item_ref@@UEAAPEAVString@@PEAV2@@Z 000000014005ec90 f   item.obj
 0001:0005dce0       ?is_null@Item_ref@@UEAA_NXZ 000000014005ece0 f   item.obj
 0001:0005dd30       ?get_date@Item_ref@@UEAA_NPEAUst_mysql_time@@I@Z 000000014005ed30 f   item.obj
 0001:0005dd60       ?val_decimal@Item_ref@@UEAAPEAVmy_decimal@@PEAV2@@Z 000000014005ed60 f   item.obj
 0001:0005ddb0       ?save_in_field@Item_ref@@UEAAHPEAVField@@_N@Z 000000014005edb0 f   item.obj
 0001:0005ddf0       ?save_org_in_field@Item_ref@@UEAAXPEAVField@@@Z 000000014005edf0 f   item.obj
 0001:0005de10       ?make_field@Item_ref@@UEAAXPEAVSend_field@@@Z 000000014005ee10 f   item.obj
 0001:0005deb0       ?print@Item_ref_null_helper@@UEAAXPEAVString@@@Z 000000014005eeb0 f   item.obj
 0001:0005dfa0       ?val_real@Item_direct_ref@@UEAANXZ 000000014005efa0 f   item.obj
 0001:0005dfe0       ?val_int@Item_direct_ref@@UEAA_JXZ 000000014005efe0 f   item.obj
 0001:0005e020       ?val_str@Item_direct_ref@@UEAAPEAVString@@PEAV2@@Z 000000014005f020 f   item.obj
 0001:0005e060       ?val_decimal@Item_direct_ref@@UEAAPEAVmy_decimal@@PEAV2@@Z 000000014005f060 f   item.obj
 0001:0005e0b0       ?val_bool@Item_direct_ref@@UEAA_NXZ 000000014005f0b0 f   item.obj
 0001:0005e100       ?is_null@Item_direct_ref@@UEAA_NXZ 000000014005f100 f   item.obj
 0001:0005e120       ?get_date@Item_direct_ref@@UEAA_NPEAUst_mysql_time@@I@Z 000000014005f120 f   item.obj
 0001:0005e150       ?eq@Item_direct_view_ref@@UEBA_NPEBVItem@@_N@Z 000000014005f150 f   item.obj
 0001:0005e1f0       ?eq@Item_default_value@@UEBA_NPEBVItem@@_N@Z 000000014005f1f0 f   item.obj
 0001:0005e270       ?fix_fields@Item_default_value@@UEAA_NPEAVTHD@@PEAPEAVItem@@@Z 000000014005f270 f   item.obj
 0001:0005e410       ?print@Item_default_value@@UEAAXPEAVString@@@Z 000000014005f410 f   item.obj
 0001:0005e4e0       ?transform@Item_default_value@@UEAAPEAVItem@@P82@EAAPEAV2@PEAE@Z0@Z 000000014005f4e0 f   item.obj
 0001:0005e5d0       ?eq@Item_insert_value@@UEBA_NPEBVItem@@_N@Z 000000014005f5d0 f   item.obj
 0001:0005e650       ?fix_fields@Item_insert_value@@UEAA_NPEAVTHD@@PEAPEAVItem@@@Z 000000014005f650 f   item.obj
 0001:0005e870       ?print@Item_insert_value@@UEAAXPEAVString@@@Z 000000014005f870 f   item.obj
 0001:0005e910       ?setup_field@Item_trigger_field@@QEAAXPEAVTHD@@PEAUst_table@@PEAUst_grant_info@@@Z 000000014005f910 f   item.obj
 0001:0005e9d0       ?eq@Item_trigger_field@@UEBA_NPEBVItem@@_N@Z 000000014005f9d0 f   item.obj
 0001:0005ea60       ?set_required_privilege@Item_trigger_field@@EEAAX_N@Z 000000014005fa60 f   item.obj
 0001:0005ea80       ?set_value@Item_trigger_field@@EEAA_NPEAVTHD@@PEAVsp_rcontext@@PEAPEAVItem@@@Z 000000014005fa80 f   item.obj
 0001:0005eb30       ?fix_fields@Item_trigger_field@@UEAA_NPEAVTHD@@PEAPEAVItem@@@Z 000000014005fb30 f   item.obj
 0001:0005ec90       ?print@Item_trigger_field@@UEAAXPEAVString@@@Z 000000014005fc90 f   item.obj
 0001:0005ed30       ?cleanup@Item_trigger_field@@UEAAXXZ 000000014005fd30 f   item.obj
 0001:0005ed50       ?item_cmp_type@@YA?AW4Item_result@@W41@0@Z 000000014005fd50 f   item.obj
 0001:0005edb0       ?print@Item_cache@@UEAAXPEAVString@@@Z 000000014005fdb0 f   item.obj
 0001:0005ee80       ?store@Item_cache_int@@UEAAXPEAVItem@@@Z 000000014005fe80 f   item.obj
 0001:0005eed0       ?store@Item_cache_int@@QEAAXPEAVItem@@_J@Z 000000014005fed0 f   item.obj
 0001:0005eef0       ?val_str@Item_cache_int@@UEAAPEAVString@@PEAV2@@Z 000000014005fef0 f   item.obj
 0001:0005ef30       ?val_decimal@Item_cache_int@@UEAAPEAVmy_decimal@@PEAV2@@Z 000000014005ff30 f   item.obj
 0001:0005ef80       ?store@Item_cache_real@@UEAAXPEAVItem@@@Z 000000014005ff80 f   item.obj
 0001:0005efd0       ?val_int@Item_cache_real@@UEAA_JXZ 000000014005ffd0 f   item.obj
 0001:0005f000       ?val_str@Item_cache_real@@UEAAPEAVString@@PEAV2@@Z 0000000140060000 f   item.obj
 0001:0005f040       ?val_decimal@Item_cache_real@@UEAAPEAVmy_decimal@@PEAV2@@Z 0000000140060040 f   item.obj
 0001:0005f0b0       ?store@Item_cache_decimal@@UEAAXPEAVItem@@@Z 00000001400600b0 f   item.obj
 0001:0005f170       ?val_real@Item_cache_decimal@@UEAANXZ 0000000140060170 f   item.obj
 0001:0005f1a0       ?val_str@Item_cache_decimal@@UEAAPEAVString@@PEAV2@@Z 00000001400601a0 f   item.obj
 0001:0005f220       ?val_decimal@Item_cache_decimal@@UEAAPEAVmy_decimal@@PEAV2@@Z 0000000140060220 f   item.obj
 0001:0005f230       ?val_real@Item_cache_str@@UEAANXZ 0000000140060230 f   item.obj
 0001:0005f290       ?val_int@Item_cache_str@@UEAA_JXZ 0000000140060290 f   item.obj
 0001:0005f300       ?val_decimal@Item_cache_str@@UEAAPEAVmy_decimal@@PEAV2@@Z 0000000140060300 f   item.obj
 0001:0005f350       ?allocate@Item_cache_row@@UEAA_NI@Z 0000000140060350 f   item.obj
 0001:0005f3f0       ?store@Item_cache_row@@UEAAXPEAVItem@@@Z 00000001400603f0 f   item.obj
 0001:0005f4e0       ?illegal_method_call@Item_cache_row@@QEAAXPEBD@Z 00000001400604e0 f   item.obj
 0001:0005f500       ?check_cols@Item_cache_row@@UEAA_NI@Z 0000000140060500 f   item.obj
 0001:0005f540       ?null_inside@Item_cache_row@@UEAA_NXZ 0000000140060540 f   item.obj
 0001:0005f610       ?bring_value@Item_cache_row@@UEAAXXZ 0000000140060610 f   item.obj
 0001:0005f680       ?result_type@Item_type_holder@@UEBA?AW4Item_result@@XZ 0000000140060680 f   item.obj
 0001:0005f690       ?get_real_type@Item_type_holder@@SA?AW4enum_field_types@@PEAVItem@@@Z 0000000140060690 f   item.obj
 0001:0005f7f0       ?display_length@Item_type_holder@@SAKPEAVItem@@@Z 00000001400607f0 f   item.obj
 0001:0005fa80       ?get_full_info@Item_type_holder@@IEAAXPEAVItem@@@Z 0000000140060a80 f   item.obj
 0001:0005fb20       ?val_real@Item_type_holder@@UEAANXZ 0000000140060b20 f   item.obj
 0001:0005fb30       ?val_int@Item_type_holder@@UEAA_JXZ 0000000140060b30 f   item.obj
 0001:0005fb40       ?val_decimal@Item_type_holder@@UEAAPEAVmy_decimal@@PEAV2@@Z 0000000140060b40 f   item.obj
 0001:0005fb50       ?val_str@Item_type_holder@@UEAAPEAVString@@PEAV2@@Z 0000000140060b50 f   item.obj
 0001:0005fb60       ?cleanup@Item_result_field@@UEAAXXZ 0000000140060b60 f   item.obj
 0001:0005fb80       ?dummy_error_processor@@YAXPEAVTHD@@PEAX@Z 0000000140060b80 f   item.obj
 0001:0005fb90       ?view_error_processor@@YAXPEAVTHD@@PEAX@Z 0000000140060b90 f   item.obj
 0001:0005fbb0       ?push_front@?$List@VItem@@@@QEAA_NPEAVItem@@@Z 0000000140060bb0 f i item.obj
 0001:0005fc20       ?push_back@?$List@VItem_field@@@@QEAA_NPEAVItem_field@@@Z 0000000140060c20 f i item.obj
 0001:0005fcb0       ?head@?$List@VItem_field@@@@QEAAPEAVItem_field@@XZ 0000000140060cb0 f i item.obj
 0001:0005fcc0       ?push_back@?$List@VItem_outer_ref@@@@QEAA_NPEAVItem_outer_ref@@@Z 0000000140060cc0 f i item.obj
 0001:0005fd50       ??E?$List_iterator@VItem_field@@@@QEAAPEAVItem_field@@H@Z 0000000140060d50 f i item.obj
 0001:0005fd70       ??E?$List_iterator_fast@VItem_equal@@@@QEAAPEAVItem_equal@@H@Z 0000000140060d70 f i item.obj
 0001:0005fd90       ??0Field_string@@QEAA@K_NPEBDPEAUst_table@@PEAUcharset_info_st@@@Z 0000000140060d90 f i item.obj
 0001:0005fe20       ??0Field_blob@@QEAA@K_NPEBDPEAUst_table@@PEAUcharset_info_st@@@Z 0000000140060e20 f i item.obj
 0001:0005fef0       ??0Field_blob@@QEAA@K_NPEBDPEAUst_table@@PEAUcharset_info_st@@0@Z 0000000140060ef0 f i item.obj
 0001:00060030       ??0Field_geom@@QEAA@K_NPEBDPEAUst_table@@W4geometry_type@Field@@@Z 0000000140061030 f i item.obj
 0001:00060110       ??_GHybrid_type_traits_decimal@@UEAAPEAXI@Z 0000000140061110 f i item.obj
 0001:00060110       ??_EHybrid_type_traits_decimal@@UEAAPEAXI@Z 0000000140061110 f i item.obj
 0001:00060140       ??_EHybrid_type_traits_integer@@UEAAPEAXI@Z 0000000140061140 f i item.obj
 0001:00060140       ??_GHybrid_type_traits_integer@@UEAAPEAXI@Z 0000000140061140 f i item.obj
 0001:00060170       ??1Item_hex_string@@UEAA@XZ 0000000140061170 f i item.obj
 0001:000601d0       ??1Item_result_field@@UEAA@XZ 00000001400611d0 f i item.obj
 0001:00060230       ??1Item_ident@@UEAA@XZ     0000000140061230 f i item.obj
 0001:00060290       ??1Item_ref@@UEAA@XZ       0000000140061290 f i item.obj
 0001:000602f0       ??1Item_direct_ref@@UEAA@XZ 00000001400612f0 f i item.obj
 0001:00060350       ??1Item_func@@UEAA@XZ      0000000140061350 f i item.obj
 0001:000603b0       ?get_first@Item_equal@@QEAAPEAVItem_field@@XZ 00000001400613b0 f i item.obj
 0001:000603c0       ??1Item_str_func@@UEAA@XZ  00000001400613c0 f i item.obj
 0001:00060420       ??1Item_cache@@UEAA@XZ     0000000140061420 f i item.obj
 0001:00060480       ?val_int@Hybrid_type_traits_decimal@@UEBA_JPEAUHybrid_type@@_N@Z 0000000140061480 f   item.obj
 0001:00060510       ?val_bool@Item@@UEAA_NXZ   0000000140061510 f   item.obj
 0001:000605f0       ?val_string_from_decimal@Item@@QEAAPEAVString@@PEAV2@@Z 00000001400615f0 f   item.obj
 0001:000606b0       ?val_real_from_decimal@Item@@QEAANXZ 00000001400616b0 f   item.obj
 0001:00060720       ?val_int_from_decimal@Item@@QEAA_JXZ 0000000140061720 f   item.obj
 0001:000607f0       ??0Item@@QEAA@XZ           00000001400617f0 f   item.obj
 0001:00060900       ??0Item@@QEAA@PEAVTHD@@PEAV0@@Z 0000000140061900 f   item.obj
 0001:000609f0       ??0Item_ident@@QEAA@PEAUName_resolution_context@@PEBD11@Z 00000001400619f0 f   item.obj
 0001:00060a90       ?change_context_processor@Item_ident@@UEAA_NPEAE@Z 0000000140061a90 f i item.obj
 0001:00060aa0       ??_GItem_ident@@UEAAPEAXI@Z 0000000140061aa0 f i item.obj
 0001:00060aa0       ??_EItem_ident@@UEAAPEAXI@Z 0000000140061aa0 f i item.obj
 0001:00060b00       ??0Item_ident@@QEAA@PEAVTHD@@PEAV0@@Z 0000000140061b00 f   item.obj
 0001:00060be0       ?get_date@Item@@UEAA_NPEAUst_mysql_time@@I@Z 0000000140061be0 f   item.obj
 0001:00060dc0       ?get_time@Item@@UEAA_NPEAUst_mysql_time@@@Z 0000000140061dc0 f   item.obj
 0001:00060ed0       ??0Item_sp_variable@@QEAA@PEADI@Z 0000000140061ed0 f   item.obj
 0001:00060f20       ?const_item@Item_sp_variable@@UEBA_NXZ 0000000140061f20 f i item.obj
 0001:00060f30       ?save_in_field@Item_sp_variable@@UEAAHPEAVField@@_N@Z 0000000140061f30 f i item.obj
 0001:00060f80       ?send@Item_sp_variable@@UEAA_NPEAVProtocol@@PEAVString@@@Z 0000000140061f80 f i item.obj
 0001:00060fc0       ?make_field@Item_sp_variable@@UEAAXPEAVSend_field@@@Z 0000000140061fc0 f i item.obj
 0001:00061060       ??1Item_sp_variable@@UEAA@XZ 0000000140062060 f i item.obj
 0001:000610c0       ?val_str@Item_sp_variable@@UEAAPEAVString@@PEAV2@@Z 00000001400620c0 f   item.obj
 0001:000611c0       ??0Item_splocal@@QEAA@AEBUst_lex_string@@IW4enum_field_types@@II@Z 00000001400621c0 f   item.obj
 0001:00061270       ?is_splocal@Item_splocal@@UEAA_NXZ 0000000140062270 f i item.obj
 0001:00061280       ?field_type@Item_splocal@@UEBA?AW4enum_field_types@@XZ 0000000140062280 f i item.obj
 0001:00061290       ?get_settable_routine_parameter@Item_splocal@@UEAAPEAVSettable_routine_parameter@@XZ 0000000140062290 f i item.obj
 0001:000612b0       ?type@Item_splocal@@UEBA?AW4Type@Item@@XZ 00000001400622b0 f i item.obj
 0001:000612c0       ?result_type@Item_splocal@@UEBA?AW4Item_result@@XZ 00000001400622c0 f i item.obj
 0001:000612d0       ??_EItem_splocal@@WII@EAAPEAXI@Z 00000001400622d0 f i item.obj
 0001:000612e0       ??1Item_splocal@@UEAA@XZ   00000001400622e0 f i item.obj
 0001:00061360       ??0Item_case_expr@@QEAA@H@Z 0000000140062360 f   item.obj
 0001:000613b0       ?type@Item_case_expr@@UEBA?AW4Type@Item@@XZ 00000001400623b0 f i item.obj
 0001:000613e0       ?result_type@Item_case_expr@@UEBA?AW4Item_result@@XZ 00000001400623e0 f i item.obj
 0001:00061410       ??1Item_case_expr@@UEAA@XZ 0000000140062410 f i item.obj
 0001:00061470       ??0Item_name_const@@QEAA@PEAVItem@@0@Z 0000000140062470 f   item.obj
 0001:00061570       ?result_type@Item_name_const@@UEBA?AW4Item_result@@XZ 0000000140062570 f i item.obj
 0001:00061580       ?const_item@Item_name_const@@UEBA_NXZ 0000000140062580 f i item.obj
 0001:00061590       ?save_in_field@Item_name_const@@UEAAHPEAVField@@_N@Z 0000000140062590 f i item.obj
 0001:000615a0       ?send@Item_name_const@@UEAA_NPEAVProtocol@@PEAVString@@@Z 00000001400625a0 f i item.obj
 0001:000615b0       ??1Item_name_const@@UEAA@XZ 00000001400625b0 f i item.obj
 0001:00061610       ?fix_fields@Item_name_const@@UEAA_NPEAVTHD@@PEAPEAVItem@@@Z 0000000140062610 f   item.obj
 0001:00061800       ??0Item_field@@QEAA@PEAVField@@@Z 0000000140062800 f   item.obj
 0001:000618a0       ?type@Item_field@@UEBA?AW4Type@Item@@XZ 00000001400628a0 f i item.obj
 0001:000618b0       ?result_type@Item_field@@UEBA?AW4Item_result@@XZ 00000001400628b0 f i item.obj
 0001:000618d0       ?cast_to_int_type@Item_field@@UEBA?AW4Item_result@@XZ 00000001400628d0 f i item.obj
 0001:000618f0       ?field_type@Item_field@@UEBA?AW4enum_field_types@@XZ 00000001400628f0 f i item.obj
 0001:00061910       ?get_tmp_table_field@Item_field@@UEAAPEAVField@@XZ 0000000140062910 f i item.obj
 0001:00061920       ?tmp_table_field@Item_field@@UEAAPEAVField@@PEAUst_table@@@Z 0000000140062920 f i item.obj
 0001:00061930       ?is_null@Item_field@@UEAA_NXZ 0000000140062930 f i item.obj
 0001:00061980       ?reset_query_id_processor@Item_field@@UEAA_NPEAE@Z 0000000140062980 f i item.obj
 0001:000619c0       ?result_as_longlong@Item_field@@UEAA_NXZ 00000001400629c0 f i item.obj
 0001:000619e0       ?filed_for_view_update@Item_field@@UEAAPEAV1@XZ 00000001400629e0 f i item.obj
 0001:000619f0       ?get_geometry_type@Item_field@@UEBA?AW4geometry_type@Field@@XZ 00000001400629f0 f i item.obj
 0001:00061a10       ??1Item_field@@UEAA@XZ     0000000140062a10 f i item.obj
 0001:00061a70       ??_EItem_field@@UEAAPEAXI@Z 0000000140062a70 f i item.obj
 0001:00061a70       ??_GItem_field@@UEAAPEAXI@Z 0000000140062a70 f i item.obj
 0001:00061ad0       ??0Item_field@@QEAA@PEAVTHD@@PEAUName_resolution_context@@PEAVField@@@Z 0000000140062ad0 f   item.obj
 0001:00061bf0       ??0Item_field@@QEAA@PEAUName_resolution_context@@PEBD11@Z 0000000140062bf0 f   item.obj
 0001:00061cb0       ??0Item_field@@QEAA@PEAVTHD@@PEAV0@@Z 0000000140062cb0 f   item.obj
 0001:00061d50       ?val_bool_result@Item_field@@UEAA_NXZ 0000000140062d50 f   item.obj
 0001:00061e90       ?get_tmp_table_item@Item_field@@UEAAPEAVItem@@PEAVTHD@@@Z 0000000140062e90 f   item.obj
 0001:00061f00       ?val_int@Item_decimal@@UEAA_JXZ 0000000140062f00 f   item.obj
 0001:00061f90       ?get_time@Item_param@@UEAA_NPEAUst_mysql_time@@@Z 0000000140062f90 f   item.obj
 0001:00062010       ?get_date@Item_param@@UEAA_NPEAUst_mysql_time@@I@Z 0000000140063010 f   item.obj
 0001:00062090       ?val_int@Item_param@@UEAA_JXZ 0000000140063090 f   item.obj
 0001:00062220       ?convert_str_value@Item_param@@QEAA_NPEAVTHD@@@Z 0000000140063220 f   item.obj
 0001:00062390       ?print@Item_param@@UEAAXPEAVString@@@Z 0000000140063390 f   item.obj
 0001:000624a0       ?replace_equal_field@Item_field@@UEAAPEAVItem@@PEAE@Z 00000001400634a0 f   item.obj
 0001:00062550       ?make_string_field@Item@@QEAAPEAVField@@PEAUst_table@@@Z 0000000140063550 f   item.obj
 0001:00062780       ?tmp_table_field_from_field_type@Item@@QEAAPEAVField@@PEAUst_table@@@Z 0000000140063780 f   item.obj
 0001:00062ff0       ?save_in_field@Item@@UEAAHPEAVField@@_N@Z 0000000140063ff0 f   item.obj
 0001:00063270       ?save_in_field@Item_uint@@UEAAHPEAVField@@_N@Z 0000000140064270 f   item.obj
 0001:00063280       ?print@Item_float@@UEAAXPEAVString@@@Z 0000000140064280 f   item.obj
 0001:00063370       ?print@Item_field@@UEAAXPEAVString@@@Z 0000000140064370 f   item.obj
 0001:000634e0       ??0Item_ref@@QEAA@PEAUName_resolution_context@@PEAPEAVItem@@PEBD2_N@Z 00000001400644e0 f   item.obj
 0001:00063570       ?type@Item_ref@@UEBA?AW4Type@Item@@XZ 0000000140064570 f i item.obj
 0001:00063580       ?eq@Item_ref@@UEBA_NPEBVItem@@_N@Z 0000000140064580 f i item.obj
 0001:00063600       ?result_type@Item_ref@@UEBA?AW4Item_result@@XZ 0000000140064600 f i item.obj
 0001:00063620       ?field_type@Item_ref@@UEBA?AW4enum_field_types@@XZ 0000000140064620 f i item.obj
 0001:00063640       ?get_tmp_table_field@Item_ref@@UEAAPEAVField@@XZ 0000000140064640 f i item.obj
 0001:00063680       ?used_tables@Item_ref@@UEBA_KXZ 0000000140064680 f i item.obj
 0001:000636c0       ?update_used_tables@Item_ref@@UEAAXXZ 00000001400646c0 f i item.obj
 0001:000636f0       ?not_null_tables@Item_ref@@UEBA_KXZ 00000001400646f0 f i item.obj
 0001:00063710       ?set_result_field@Item_ref@@UEAAXPEAVField@@@Z 0000000140064710 f i item.obj
 0001:00063720       ?is_result_field@Item_ref@@UEAA_NXZ 0000000140064720 f i item.obj
 0001:00063730       ?save_in_result_field@Item_ref@@UEAAX_N@Z 0000000140064730 f i item.obj
 0001:00063760       ?real_item@Item_ref@@UEAAPEAVItem@@XZ 0000000140064760 f i item.obj
 0001:00063790       ?walk@Item_ref@@UEAA_NP8Item@@EAA_NPEAE@Z0@Z 0000000140064790 f i item.obj
 0001:000637b0       ?result_as_longlong@Item_ref@@UEAA_NXZ 00000001400647b0 f i item.obj
 0001:000637d0       ?filed_for_view_update@Item_ref@@UEAAPEAVItem_field@@XZ 00000001400647d0 f i item.obj
 0001:000637f0       ?ref_type@Item_ref@@UEAA?AW4Ref_Type@1@XZ 00000001400647f0 f i item.obj
 0001:00063800       ?cols@Item_ref@@UEAAIXZ    0000000140064800 f i item.obj
 0001:00063860       ?element_index@Item_ref@@UEAAPEAVItem@@I@Z 0000000140064860 f i item.obj
 0001:000638d0       ?addr@Item_ref@@UEAAPEAPEAVItem@@I@Z 00000001400648d0 f i item.obj
 0001:00063940       ?null_inside@Item_ref@@UEAA_NXZ 0000000140064940 f i item.obj
 0001:000639a0       ?bring_value@Item_ref@@UEAAXXZ 00000001400649a0 f i item.obj
 0001:000639f0       ?check_cols@Item_ref@@UEAA_NI@Z 00000001400649f0 f i item.obj
 0001:00063a60       ?fix_fields@Item_ref@@UEAA_NPEAVTHD@@PEAPEAVItem@@@Z 0000000140064a60 f   item.obj
 0001:00064080       ?val_bool_result@Item_ref@@UEAA_NXZ 0000000140065080 f   item.obj
 0001:000641f0       ?get_tmp_table_item@Item_ref@@UEAAPEAVItem@@PEAVTHD@@@Z 00000001400651f0 f   item.obj
 0001:00064290       ?fix_fields@Item_direct_view_ref@@UEAA_NPEAVTHD@@PEAPEAVItem@@@Z 0000000140065290 f   item.obj
 0001:00064320       ?fix_fields@Item_outer_ref@@UEAA_NPEAVTHD@@PEAPEAVItem@@@Z 0000000140065320 f   item.obj
 0001:00064410       ?save_in_field@Item_default_value@@UEAAHPEAVField@@_N@Z 0000000140065410 f   item.obj
 0001:00064590       ?field_is_equal_to_item@@YA_NPEAVField@@PEAVItem@@@Z 0000000140065590 f   item.obj
 0001:00064860       ?val_int@Item_cache_decimal@@UEAA_JXZ 0000000140065860 f   item.obj
 0001:000648e0       ?store@Item_cache_str@@UEAAXPEAVItem@@@Z 00000001400658e0 f   item.obj
 0001:000649e0       ?save_in_field@Item_cache_str@@UEAAHPEAVField@@_N@Z 00000001400659e0 f   item.obj
 0001:00064a60       ??0Item_type_holder@@QEAA@PEAVTHD@@PEAVItem@@@Z 0000000140065a60 f   item.obj
 0001:00064b60       ?field_type@Item_type_holder@@UEBA?AW4enum_field_types@@XZ 0000000140065b60 f i item.obj
 0001:00064b70       ?type@Item_type_holder@@UEBA?AW4Type@Item@@XZ 0000000140065b70 f i item.obj
 0001:00064b80       ?get_geometry_type@Item_type_holder@@UEBA?AW4geometry_type@Field@@XZ 0000000140065b80 f i item.obj
 0001:00064b90       ??1Item_type_holder@@UEAA@XZ 0000000140065b90 f i item.obj
 0001:00064bf0       ?join_types@Item_type_holder@@QEAA_NPEAVTHD@@PEAVItem@@@Z 0000000140065bf0 f   item.obj
 0001:000650b0       ?make_field_by_type@Item_type_holder@@QEAAPEAVField@@PEAUst_table@@@Z 00000001400660b0 f   item.obj
 0001:000652d0       ??0?$List_iterator@VItem_field@@@@QEAA@AEAV?$List@VItem_field@@@@@Z 00000001400662d0 f i item.obj
 0001:000652f0       ??0?$List_iterator_fast@VItem_equal@@@@QEAA@AEAV?$List@VItem_equal@@@@@Z 00000001400662f0 f i item.obj
 0001:00065310       ??0Item_null@@QEAA@PEAD@Z  0000000140066310 f i item.obj
 0001:000653a0       ?type@Item_null@@UEBA?AW4Type@Item@@XZ 00000001400663a0 f i item.obj
 0001:000653b0       ?result_type@Item_null@@UEBA?AW4Item_result@@XZ 00000001400663b0 f i item.obj
 0001:000653c0       ?field_type@Item_null@@UEBA?AW4enum_field_types@@XZ 00000001400663c0 f i item.obj
 0001:000653d0       ?basic_const_item@Item_null@@UEBA_NXZ 00000001400663d0 f i item.obj
 0001:000653e0       ?is_null@Item_null@@UEAA_NXZ 00000001400663e0 f i item.obj
 0001:000653f0       ?print@Item_null@@UEAAXPEAVString@@@Z 00000001400663f0 f i item.obj
 0001:00065410       ??1Item_null@@UEAA@XZ      0000000140066410 f i item.obj
 0001:00065470       ?clone_item@Item_null@@UEAAPEAVItem@@XZ 0000000140066470 f i item.obj
 0001:00065530       ??_EItem_null@@UEAAPEAXI@Z 0000000140066530 f i item.obj
 0001:00065530       ??_GItem_null@@UEAAPEAXI@Z 0000000140066530 f i item.obj
 0001:00065590       ??0Item_static_string_func@@QEAA@PEBD0IPEAUcharset_info_st@@W4Derivation@@@Z 0000000140066590 f i item.obj
 0001:00065670       ?print@Item_static_string_func@@UEAAXPEAVString@@@Z 0000000140066670 f i item.obj
 0001:00065690       ??1Item_static_string_func@@UEAA@XZ 0000000140066690 f i item.obj
 0001:000656f0       ??_GItem_static_string_func@@UEAAPEAXI@Z 00000001400666f0 f i item.obj
 0001:000656f0       ??_EItem_static_string_func@@UEAAPEAXI@Z 00000001400666f0 f i item.obj
 0001:00065750       ??0Item_hex_string@@QEAA@XZ 0000000140066750 f i item.obj
 0001:00065780       ?type@Item_hex_string@@UEBA?AW4Type@Item@@XZ 0000000140066780 f i item.obj
 0001:00065790       ?basic_const_item@Item_hex_string@@UEBA_NXZ 0000000140066790 f i item.obj
 0001:000657a0       ?val_str@Item_hex_string@@UEAAPEAVString@@PEAV2@@Z 00000001400667a0 f i item.obj
 0001:000657b0       ?result_type@Item_hex_string@@UEBA?AW4Item_result@@XZ 00000001400667b0 f i item.obj
 0001:000657c0       ?cast_to_int_type@Item_hex_string@@UEBA?AW4Item_result@@XZ 00000001400667c0 f i item.obj
 0001:000657d0       ?field_type@Item_hex_string@@UEBA?AW4enum_field_types@@XZ 00000001400667d0 f i item.obj
 0001:000657e0       ?val_real@Item_hex_string@@UEAANXZ 00000001400667e0 f i item.obj
 0001:00065810       ??_GItem_hex_string@@UEAAPEAXI@Z 0000000140066810 f i item.obj
 0001:00065810       ??_EItem_hex_string@@UEAAPEAXI@Z 0000000140066810 f i item.obj
 0001:00065870       ??0Item_result_field@@QEAA@XZ 0000000140066870 f i item.obj
 0001:000658a0       ?get_tmp_table_field@Item_result_field@@UEAAPEAVField@@XZ 00000001400668a0 f i item.obj
 0001:000658b0       ?tmp_table_field@Item_result_field@@UEAAPEAVField@@PEAUst_table@@@Z 00000001400668b0 f i item.obj
 0001:000658c0       ?used_tables@Item_result_field@@UEBA_KXZ 00000001400668c0 f i item.obj
 0001:000658d0       ?set_result_field@Item_result_field@@UEAAXPEAVField@@@Z 00000001400668d0 f i item.obj
 0001:000658e0       ?is_result_field@Item_result_field@@UEAA_NXZ 00000001400668e0 f i item.obj
 0001:000658f0       ?save_in_result_field@Item_result_field@@UEAAX_N@Z 00000001400668f0 f i item.obj
 0001:00065910       ??_EItem_result_field@@UEAAPEAXI@Z 0000000140066910 f i item.obj
 0001:00065910       ??_GItem_result_field@@UEAAPEAXI@Z 0000000140066910 f i item.obj
 0001:00065970       ??0Item_ref@@QEAA@PEAUName_resolution_context@@PEBD11@Z 0000000140066970 f i item.obj
 0001:000659c0       ??_GItem_ref@@UEAAPEAXI@Z  00000001400669c0 f i item.obj
 0001:000659c0       ??_EItem_ref@@UEAAPEAXI@Z  00000001400669c0 f i item.obj
 0001:00065a20       ??0Item_direct_ref@@QEAA@PEAUName_resolution_context@@PEAPEAVItem@@PEBD2_N@Z 0000000140066a20 f i item.obj
 0001:00065a70       ?ref_type@Item_direct_ref@@UEAA?AW4Ref_Type@Item_ref@@XZ 0000000140066a70 f i item.obj
 0001:00065a80       ??_EItem_direct_ref@@UEAAPEAXI@Z 0000000140066a80 f i item.obj
 0001:00065a80       ??_GItem_direct_ref@@UEAAPEAXI@Z 0000000140066a80 f i item.obj
 0001:00065ae0       ??0Item_outer_ref@@QEAA@PEAUName_resolution_context@@PEAVItem_field@@@Z 0000000140066ae0 f i item.obj
 0001:00065b80       ?save_in_result_field@Item_outer_ref@@UEAAX_N@Z 0000000140066b80 f i item.obj
 0001:00065ba0       ?used_tables@Item_outer_ref@@UEBA_KXZ 0000000140066ba0 f i item.obj
 0001:00065be0       ?ref_type@Item_outer_ref@@UEAA?AW4Ref_Type@Item_ref@@XZ 0000000140066be0 f i item.obj
 0001:00065bf0       ??1Item_outer_ref@@UEAA@XZ 0000000140066bf0 f i item.obj
 0001:00065c50       ??0Item_outer_ref@@QEAA@PEAUName_resolution_context@@PEAPEAVItem@@PEBD2_N@Z 0000000140066c50 f i item.obj
 0001:00065cb0       ??_EItem_outer_ref@@UEAAPEAXI@Z 0000000140066cb0 f i item.obj
 0001:00065cb0       ??_GItem_outer_ref@@UEAAPEAXI@Z 0000000140066cb0 f i item.obj
 0001:00065d10       ??0Item_func@@QEAA@PEAVItem@@@Z 0000000140066d10 f i item.obj
 0001:00065d80       ?type@Item_func@@UEBA?AW4Type@Item@@XZ 0000000140066d80 f i item.obj
 0001:00065d90       ?functype@Item_func@@UEBA?AW4Functype@1@XZ 0000000140066d90 f i item.obj
 0001:00065da0       ?select_optimize@Item_func@@UEBA?AW4optimize_type@1@XZ 0000000140066da0 f i item.obj
 0001:00065db0       ?have_rev_func@Item_func@@UEBA_NXZ 0000000140066db0 f i item.obj
 0001:00065dc0       ?key_item@Item_func@@UEBAPEAVItem@@XZ 0000000140066dc0 f i item.obj
 0001:00065dd0       ?const_item@Item_func@@UEBA_NXZ 0000000140066dd0 f i item.obj
 0001:00065de0       ?is_null@Item_func@@UEAA_NXZ 0000000140066de0 f i item.obj
 0001:00065e10       ?is_expensive@Item_func@@UEAA_NXZ 0000000140066e10 f i item.obj
 0001:00065e20       ??_EItem_func@@UEAAPEAXI@Z 0000000140066e20 f i item.obj
 0001:00065e20       ??_GItem_func@@UEAAPEAXI@Z 0000000140066e20 f i item.obj
 0001:00065e80       ??0Item_str_func@@QEAA@PEAVItem@@@Z 0000000140066e80 f i item.obj
 0001:00065f00       ?result_type@Item_str_func@@UEBA?AW4Item_result@@XZ 0000000140066f00 f i item.obj
 0001:00065f10       ??_GItem_str_func@@UEAAPEAXI@Z 0000000140066f10 f i item.obj
 0001:00065f10       ??_EItem_str_func@@UEAAPEAXI@Z 0000000140066f10 f i item.obj
 0001:00065f70       ??0Item_func_conv_charset@@QEAA@PEAVItem@@PEAUcharset_info_st@@_N@Z 0000000140066f70 f i item.obj
 0001:00066160       ?func_name@Item_func_conv_charset@@UEBAPEBDXZ 0000000140067160 f i item.obj
 0001:00066170       ??1Item_func_conv_charset@@UEAA@XZ 0000000140067170 f i item.obj
 0001:000661d0       ??_EItem_func_conv_charset@@UEAAPEAXI@Z 00000001400671d0 f i item.obj
 0001:000661d0       ??_GItem_func_conv_charset@@UEAAPEAXI@Z 00000001400671d0 f i item.obj
 0001:00066230       ??0Item_cache@@QEAA@XZ     0000000140067230 f i item.obj
 0001:00066280       ?allocate@Item_cache@@UEAA_NI@Z 0000000140067280 f i item.obj
 0001:00066290       ?setup@Item_cache@@UEAA_NPEAVItem@@@Z 0000000140067290 f i item.obj
 0001:00066310       ?type@Item_cache@@UEBA?AW4Type@Item@@XZ 0000000140067310 f i item.obj
 0001:00066320       ?used_tables@Item_cache@@UEBA_KXZ 0000000140067320 f i item.obj
 0001:00066330       ?keep_array@Item_cache@@UEAAXXZ 0000000140067330 f i item.obj
 0001:00066340       ?eq@Item_cache@@UEBA_NPEBVItem@@_N@Z 0000000140067340 f i item.obj
 0001:00066350       ??_EItem_cache@@UEAAPEAXI@Z 0000000140067350 f i item.obj
 0001:00066350       ??_GItem_cache@@UEAAPEAXI@Z 0000000140067350 f i item.obj
 0001:000663b0       ??0Item_cache_int@@QEAA@XZ 00000001400673b0 f i item.obj
 0001:00066410       ?val_real@Item_cache_int@@UEAANXZ 0000000140067410 f i item.obj
 0001:00066420       ?val_int@Item_cache_int@@UEAA_JXZ 0000000140067420 f i item.obj
 0001:00066430       ?result_type@Item_cache_int@@UEBA?AW4Item_result@@XZ 0000000140067430 f i item.obj
 0001:00066440       ?result_as_longlong@Item_cache_int@@UEAA_NXZ 0000000140067440 f i item.obj
 0001:00066450       ??1Item_cache_int@@UEAA@XZ 0000000140067450 f i item.obj
 0001:000664b0       ??_EItem_cache_int@@UEAAPEAXI@Z 00000001400674b0 f i item.obj
 0001:000664b0       ??_GItem_cache_int@@UEAAPEAXI@Z 00000001400674b0 f i item.obj
 0001:00066510       ??0Item_cache_real@@QEAA@XZ 0000000140067510 f i item.obj
 0001:00066570       ?val_real@Item_cache_real@@UEAANXZ 0000000140067570 f i item.obj
 0001:00066580       ?result_type@Item_cache_real@@UEBA?AW4Item_result@@XZ 0000000140067580 f i item.obj
 0001:00066590       ??1Item_cache_real@@UEAA@XZ 0000000140067590 f i item.obj
 0001:000665f0       ??_GItem_cache_real@@UEAAPEAXI@Z 00000001400675f0 f i item.obj
 0001:000665f0       ??_EItem_cache_real@@UEAAPEAXI@Z 00000001400675f0 f i item.obj
 0001:00066650       ??0Item_cache_decimal@@QEAA@XZ 0000000140067650 f i item.obj
 0001:000666c0       ?result_type@Item_cache_decimal@@UEBA?AW4Item_result@@XZ 00000001400676c0 f i item.obj
 0001:000666d0       ??1Item_cache_decimal@@UEAA@XZ 00000001400676d0 f i item.obj
 0001:00066730       ??_EItem_cache_decimal@@UEAAPEAXI@Z 0000000140067730 f i item.obj
 0001:00066730       ??_GItem_cache_decimal@@UEAAPEAXI@Z 0000000140067730 f i item.obj
 0001:00066790       ??0Item_cache_str@@QEAA@PEBVItem@@@Z 0000000140067790 f i item.obj
 0001:000668a0       ?val_str@Item_cache_str@@UEAAPEAVString@@PEAV2@@Z 00000001400678a0 f i item.obj
 0001:000668b0       ?result_type@Item_cache_str@@UEBA?AW4Item_result@@XZ 00000001400678b0 f i item.obj
 0001:000668c0       ??1Item_cache_str@@UEAA@XZ 00000001400678c0 f i item.obj
 0001:00066950       ??_GItem_cache_str@@UEAAPEAXI@Z 0000000140067950 f i item.obj
 0001:00066950       ??_EItem_cache_str@@UEAAPEAXI@Z 0000000140067950 f i item.obj
 0001:000669e0       ??0Item_cache_row@@QEAA@XZ 00000001400679e0 f i item.obj
 0001:00066a50       ?result_type@Item_cache_row@@UEBA?AW4Item_result@@XZ 0000000140067a50 f i item.obj
 0001:00066a60       ?cols@Item_cache_row@@UEAAIXZ 0000000140067a60 f i item.obj
 0001:00066a70       ?element_index@Item_cache_row@@UEAAPEAVItem@@I@Z 0000000140067a70 f i item.obj
 0001:00066a90       ?addr@Item_cache_row@@UEAAPEAPEAVItem@@I@Z 0000000140067a90 f i item.obj
 0001:00066ab0       ?keep_array@Item_cache_row@@UEAAXXZ 0000000140067ab0 f i item.obj
 0001:00066ac0       ?cleanup@Item_cache_row@@UEAAXXZ 0000000140067ac0 f i item.obj
 0001:00066b10       ?make_field@Item_cache_row@@UEAAXPEAVSend_field@@@Z 0000000140067b10 f i item.obj
 0001:00066b20       ?val_real@Item_cache_row@@UEAANXZ 0000000140067b20 f i item.obj
 0001:00066b40       ?val_int@Item_cache_row@@UEAA_JXZ 0000000140067b40 f i item.obj
 0001:00066b60       ?val_str@Item_cache_row@@UEAAPEAVString@@PEAV2@@Z 0000000140067b60 f i item.obj
 0001:00066b80       ?val_decimal@Item_cache_row@@UEAAPEAVmy_decimal@@PEAV2@@Z 0000000140067b80 f i item.obj
 0001:00066ba0       ??1Item_cache_row@@UEAA@XZ 0000000140067ba0 f i item.obj
 0001:00066c00       ??_GItem_cache_row@@UEAAPEAXI@Z 0000000140067c00 f i item.obj
 0001:00066c00       ??_EItem_cache_row@@UEAAPEAXI@Z 0000000140067c00 f i item.obj
 0001:00066c60       ?collect_item_field_processor@Item_field@@UEAA_NPEAE@Z 0000000140067c60 f   item.obj
 0001:00066d20       ?safe_charset_converter@Item@@UEAAPEAV1@PEAUcharset_info_st@@@Z 0000000140067d20 f   item.obj
 0001:00066d90       ?safe_charset_converter@Item_num@@UEAAPEAVItem@@PEAUcharset_info_st@@@Z 0000000140067d90 f   item.obj
 0001:00066f70       ?safe_charset_converter@Item_static_float_func@@UEAAPEAVItem@@PEAUcharset_info_st@@@Z 0000000140067f70 f   item.obj
 0001:00067130       ?safe_charset_converter@Item_string@@UEAAPEAVItem@@PEAUcharset_info_st@@@Z 0000000140068130 f   item.obj
 0001:00067390       ?safe_charset_converter@Item_static_string_func@@UEAAPEAVItem@@PEAUcharset_info_st@@@Z 0000000140068390 f   item.obj
 0001:00067620       ??_GItem_sp_variable@@UEAAPEAXI@Z 0000000140068620 f i item.obj
 0001:00067620       ??_EItem_sp_variable@@UEAAPEAXI@Z 0000000140068620 f i item.obj
 0001:00067680       ??_GItem_splocal@@UEAAPEAXI@Z 0000000140068680 f i item.obj
 0001:00067680       ??_EItem_splocal@@UEAAPEAXI@Z 0000000140068680 f i item.obj
 0001:00067700       ??_GItem_case_expr@@UEAAPEAXI@Z 0000000140068700 f i item.obj
 0001:00067700       ??_EItem_case_expr@@UEAAPEAXI@Z 0000000140068700 f i item.obj
 0001:00067760       ??_EItem_name_const@@UEAAPEAXI@Z 0000000140068760 f i item.obj
 0001:00067760       ??_GItem_name_const@@UEAAPEAXI@Z 0000000140068760 f i item.obj
 0001:000677c0       ??0Item_aggregate_ref@@QEAA@PEAUName_resolution_context@@PEAPEAVItem@@PEBD2@Z 00000001400687c0 f i item.obj
 0001:00067800       ?ref_type@Item_aggregate_ref@@UEAA?AW4Ref_Type@Item_ref@@XZ 0000000140068800 f i item.obj
 0001:00067810       ?print@Item_aggregate_ref@@UEAAXPEAVString@@@Z 0000000140068810 f i item.obj
 0001:00067840       ??1Item_aggregate_ref@@UEAA@XZ 0000000140068840 f i item.obj
 0001:000678a0       ??_EItem_aggregate_ref@@UEAAPEAXI@Z 00000001400688a0 f i item.obj
 0001:000678a0       ??_GItem_aggregate_ref@@UEAAPEAXI@Z 00000001400688a0 f i item.obj
 0001:00067900       ?split_sum_func2@Item@@QEAAXPEAVTHD@@PEAPEAV1@AEAV?$List@VItem@@@@1_N@Z 0000000140068900 f   item.obj
 0001:00067b90       ?agg_item_set_converter@@YA_NAEAVDTCollation@@PEBDPEAPEAVItem@@IIH@Z 0000000140068b90 f   item.obj
 0001:00067e40       ?agg_item_charsets@@YA_NAEAVDTCollation@@PEBDPEAPEAVItem@@IIH@Z 0000000140068e40 f   item.obj
 0001:00067ee0       ??0Item_param@@QEAA@I@Z    0000000140068ee0 f   item.obj
 0001:00068140       ?result_type@Item_param@@UEBA?AW4Item_result@@XZ 0000000140069140 f i item.obj
 0001:00068150       ?type@Item_param@@UEBA?AW4Type@Item@@XZ 0000000140069150 f i item.obj
 0001:00068160       ?field_type@Item_param@@UEBA?AW4enum_field_types@@XZ 0000000140069160 f i item.obj
 0001:00068170       ?used_tables@Item_param@@UEBA_KXZ 0000000140069170 f i item.obj
 0001:00068190       ?is_null@Item_param@@UEAA_NXZ 0000000140069190 f i item.obj
 0001:000681a0       ??1Item_param@@UEAA@XZ     00000001400691a0 f i item.obj
 0001:00068270       ??_GItem_param@@UEAAPEAXI@Z 0000000140069270 f i item.obj
 0001:00068270       ??_EItem_param@@UEAAPEAXI@Z 0000000140069270 f i item.obj
 0001:00068340       ?fix_outer_field@Item_field@@QEAAHPEAVTHD@@PEAPEAVField@@PEAPEAVItem@@@Z 0000000140069340 f   item.obj
 0001:00068d00       ?fix_fields@Item_field@@UEAA_NPEAVTHD@@PEAPEAVItem@@@Z 0000000140069d00 f   item.obj
 0001:00069280       ?safe_charset_converter@Item_field@@UEAAPEAVItem@@PEAUcharset_info_st@@@Z 000000014006a280 f   item.obj
 0001:00069290       ?find_item_equal@Item_field@@QEAAPEAVItem_equal@@PEAVCOND_EQUAL@@@Z 000000014006a290 f   item.obj
 0001:000695f0       ?equal_fields_propagator@Item_field@@UEAAPEAVItem@@PEAE@Z 000000014006a5f0 f   item.obj
 0001:00069730       ??0Item_hex_string@@QEAA@PEBDI@Z 000000014006a730 f   item.obj
 0001:00069920       ?safe_charset_converter@Item_hex_string@@UEAAPEAVItem@@PEAUcharset_info_st@@@Z 000000014006a920 f   item.obj
 0001:00069ab0       ??0Item_bin_string@@QEAA@PEBDI@Z 000000014006aab0 f   item.obj
 0001:00069c60       ??1Item_bin_string@@UEAA@XZ 000000014006ac60 f i item.obj
 0001:00069cc0       ??_EItem_bin_string@@UEAAPEAXI@Z 000000014006acc0 f i item.obj
 0001:00069cc0       ??_GItem_bin_string@@UEAAPEAXI@Z 000000014006acc0 f i item.obj
 0001:00069d20       ?update_value_transformer@Item_field@@UEAAPEAVItem@@PEAE@Z 000000014006ad20 f   item.obj
 0001:00069e60       ?get_cache@Item_cache@@SAPEAV1@PEBVItem@@@Z 000000014006ae60 f   item.obj
 0001:0006a0b0       ?setup@Item_cache_row@@UEAA_NPEAVItem@@@Z 000000014006b0b0 f   item.obj
 0001:0006a1d0       ??_GItem_type_holder@@UEAAPEAXI@Z 000000014006b1d0 f i item.obj
 0001:0006a1d0       ??_EItem_type_holder@@UEAAPEAXI@Z 000000014006b1d0 f i item.obj
 0001:0006a230       ??0Item_float@@QEAA@PEBDNII@Z 000000014006b230 f i item.obj
 0001:0006a280       ?type@Item_float@@UEBA?AW4Type@Item@@XZ 000000014006b280 f i item.obj
 0001:0006a290       ?field_type@Item_float@@UEBA?AW4enum_field_types@@XZ 000000014006b290 f i item.obj
 0001:0006a2a0       ?val_real@Item_float@@UEAANXZ 000000014006b2a0 f i item.obj
 0001:0006a2b0       ?val_int@Item_float@@UEAA_JXZ 000000014006b2b0 f i item.obj
 0001:0006a320       ?basic_const_item@Item_float@@UEBA_NXZ 000000014006b320 f i item.obj
 0001:0006a330       ?neg@Item_float@@UEAAPEAVItem_num@@XZ 000000014006b330 f i item.obj
 0001:0006a350       ??1Item_float@@UEAA@XZ     000000014006b350 f i item.obj
 0001:0006a3b0       ??_GItem_float@@UEAAPEAXI@Z 000000014006b3b0 f i item.obj
 0001:0006a3b0       ??_EItem_float@@UEAAPEAXI@Z 000000014006b3b0 f i item.obj
 0001:0006a410       ?clone_item@Item_float@@UEAAPEAVItem@@XZ 000000014006b410 f i item.obj
 0001:0006a4b0       ??0Item_int@@QEAA@PEBDI@Z  000000014006b4b0 f   item.obj
 0001:0006a530       ??0Item_uint@@QEAA@PEBDI@Z 000000014006b530 f   item.obj
 0001:0006a560       ?val_real@Item_uint@@UEAANXZ 000000014006b560 f i item.obj
 0001:0006a580       ?decimal_precision@Item_uint@@UEBAIXZ 000000014006b580 f i item.obj
 0001:0006a590       ??1Item_uint@@UEAA@XZ      000000014006b590 f i item.obj
 0001:0006a5f0       ??_GItem_uint@@UEAAPEAXI@Z 000000014006b5f0 f i item.obj
 0001:0006a5f0       ??_EItem_uint@@UEAAPEAXI@Z 000000014006b5f0 f i item.obj
 0001:0006a650       ??0Item_uint@@QEAA@PEBD_JI@Z 000000014006b650 f   item.obj
 0001:0006a6a0       ??0Item_decimal@@QEAA@PEBDIPEAUcharset_info_st@@@Z 000000014006b6a0 f   item.obj
 0001:0006a770       ?my_decimal_neg@@YAXPEAUst_decimal_t@@@Z 000000014006b770 f i item.obj
 0001:0006a7a0       ?type@Item_decimal@@UEBA?AW4Type@Item@@XZ 000000014006b7a0 f i item.obj
 0001:0006a7b0       ?result_type@Item_decimal@@UEBA?AW4Item_result@@XZ 000000014006b7b0 f i item.obj
 0001:0006a7c0       ?field_type@Item_decimal@@UEBA?AW4enum_field_types@@XZ 000000014006b7c0 f i item.obj
 0001:0006a7d0       ?val_decimal@Item_decimal@@UEAAPEAVmy_decimal@@PEAV2@@Z 000000014006b7d0 f i item.obj
 0001:0006a7e0       ?basic_const_item@Item_decimal@@UEBA_NXZ 000000014006b7e0 f i item.obj
 0001:0006a7f0       ?neg@Item_decimal@@UEAAPEAVItem_num@@XZ 000000014006b7f0 f i item.obj
 0001:0006a840       ?decimal_precision@Item_decimal@@UEBAIXZ 000000014006b840 f i item.obj
 0001:0006a850       ??1Item_decimal@@UEAA@XZ   000000014006b850 f i item.obj
 0001:0006a8b0       ??_GItem_decimal@@UEAAPEAXI@Z 000000014006b8b0 f i item.obj
 0001:0006a8b0       ??_EItem_decimal@@UEAAPEAXI@Z 000000014006b8b0 f i item.obj
 0001:0006a910       ??0Item_decimal@@QEAA@_J_N@Z 000000014006b910 f   item.obj
 0001:0006a9e0       ??0Item_decimal@@QEAA@NHH@Z 000000014006b9e0 f   item.obj
 0001:0006aaf0       ??0Item_decimal@@QEAA@PEBDPEBVmy_decimal@@II@Z 000000014006baf0 f   item.obj
 0001:0006abd0       ??0Item_decimal@@QEAA@PEAVmy_decimal@@@Z 000000014006bbd0 f   item.obj
 0001:0006ace0       ??0Item_decimal@@QEAA@PEBDHH@Z 000000014006bce0 f   item.obj
 0001:0006ad90       ?clone_item@Item_param@@UEAAPEAVItem@@XZ 000000014006bd90 f   item.obj
 0001:0006b110       ?clone_item@Item_int_with_ref@@UEAAPEAVItem@@XZ 000000014006c110 f   item.obj
 0001:0006b220       ?neg@Item_uint@@UEAAPEAVItem_num@@XZ 000000014006c220 f   item.obj
 0001:0006b280       ??0Item_float@@QEAA@PEBDI@Z 000000014006c280 f   item.obj
 0001:0006b350       ?resolve_const_item@@YAXPEAVTHD@@PEAPEAVItem@@PEAV2@@Z 000000014006c350 f   item.obj
 0001:0006b850       ?clone_item@Item_uint@@UEAAPEAVItem@@XZ 000000014006c850 f i item.obj
 0001:0006b8a0       ?clone_item@Item_decimal@@UEAAPEAVItem@@XZ 000000014006c8a0 f i item.obj
 0001:0006b900       ??0String@@QEAA@K@Z        000000014006c900 f i item_buff.obj
 0001:0006b940       ?cmp@Field@@QEAAHPEBD@Z    000000014006c940 f i item_buff.obj
 0001:0006b960       ??0Cached_item@@QEAA@XZ    000000014006c960 f i item_buff.obj
 0001:0006b980       ??1Cached_item@@UEAA@XZ    000000014006c980 f   item_buff.obj
 0001:0006b990       ?cmp@Cached_item_str@@UEAA_NXZ 000000014006c990 f   item_buff.obj
 0001:0006ba80       ?cmp@Cached_item_real@@UEAA_NXZ 000000014006ca80 f   item_buff.obj
 0001:0006bae0       ?cmp@Cached_item_int@@UEAA_NXZ 000000014006cae0 f   item_buff.obj
 0001:0006bb30       ?cmp@Cached_item_field@@UEAA_NXZ 000000014006cb30 f   item_buff.obj
 0001:0006bc10       ??_GCached_item@@UEAAPEAXI@Z 000000014006cc10 f i item_buff.obj
 0001:0006bc10       ??_ECached_item@@UEAAPEAXI@Z 000000014006cc10 f i item_buff.obj
 0001:0006bc30       ??0Cached_item_real@@QEAA@PEAVItem@@@Z 000000014006cc30 f i item_buff.obj
 0001:0006bc60       ??1Cached_item_real@@UEAA@XZ 000000014006cc60 f i item_buff.obj
 0001:0006bc70       ??0Cached_item_int@@QEAA@PEAVItem@@@Z 000000014006cc70 f i item_buff.obj
 0001:0006bca0       ??1Cached_item_int@@UEAA@XZ 000000014006cca0 f i item_buff.obj
 0001:0006bcb0       ??0Cached_item_field@@QEAA@PEAVItem_field@@@Z 000000014006ccb0 f i item_buff.obj
 0001:0006bd00       ??1Cached_item_field@@UEAA@XZ 000000014006cd00 f i item_buff.obj
 0001:0006bd10       ??0Cached_item_str@@QEAA@PEAVTHD@@PEAVItem@@@Z 000000014006cd10 f   item_buff.obj
 0001:0006bdb0       ??1Cached_item_str@@UEAA@XZ 000000014006cdb0 f   item_buff.obj
 0001:0006be40       ??0Cached_item_decimal@@QEAA@PEAVItem@@@Z 000000014006ce40 f   item_buff.obj
 0001:0006be90       ??1Cached_item_decimal@@UEAA@XZ 000000014006ce90 f i item_buff.obj
 0001:0006bea0       ?cmp@Cached_item_decimal@@UEAA_NXZ 000000014006cea0 f   item_buff.obj
 0001:0006bfa0       ??_GCached_item_real@@UEAAPEAXI@Z 000000014006cfa0 f i item_buff.obj
 0001:0006bfa0       ??_ECached_item_real@@UEAAPEAXI@Z 000000014006cfa0 f i item_buff.obj
 0001:0006bfc0       ??_ECached_item_int@@UEAAPEAXI@Z 000000014006cfc0 f i item_buff.obj
 0001:0006bfc0       ??_GCached_item_int@@UEAAPEAXI@Z 000000014006cfc0 f i item_buff.obj
 0001:0006bfe0       ??_ECached_item_field@@UEAAPEAXI@Z 000000014006cfe0 f i item_buff.obj
 0001:0006bfe0       ??_GCached_item_field@@UEAAPEAXI@Z 000000014006cfe0 f i item_buff.obj
 0001:0006c000       ?new_Cached_item@@YAPEAVCached_item@@PEAVTHD@@PEAVItem@@@Z 000000014006d000 f   item_buff.obj
 0001:0006c220       ??_GCached_item_str@@UEAAPEAXI@Z 000000014006d220 f i item_buff.obj
 0001:0006c220       ??_ECached_item_str@@UEAAPEAXI@Z 000000014006d220 f i item_buff.obj
 0001:0006c240       ??_ECached_item_decimal@@UEAAPEAXI@Z 000000014006d240 f i item_buff.obj
 0001:0006c240       ??_GCached_item_decimal@@UEAAPEAXI@Z 000000014006d240 f i item_buff.obj
 0001:0006c260       ??4String@@QEAAAEAV0@AEBV0@@Z 000000014006d260 f i item_cmpfunc.obj
 0001:0006c2e0       ?uses_buffer_owned_by@String@@QEBA_NPEBV1@@Z 000000014006d2e0 f i item_cmpfunc.obj
 0001:0006c310       ??_USql_alloc@@SAPEAX_K@Z  000000014006d310 f i item_cmpfunc.obj
 0001:0006c320       ??_VSql_alloc@@SAXPEAX_K@Z 000000014006d320 f i item_cmpfunc.obj
 0001:0006c330       ??0base_list@@QEAA@AEBV0@@Z 000000014006d330 f i item_cmpfunc.obj
 0001:0006c360       ?is_empty@base_list@@QEAA_NXZ 000000014006d360 f i item_cmpfunc.obj
 0001:0006c380       ??1list_node@@QEAA@XZ      000000014006d380 f i item_cmpfunc.obj
 0001:0006c390       ?replace@base_list_iterator@@QEAAPEAXPEAX@Z 000000014006d390 f i item_cmpfunc.obj
 0001:0006c3a0       ?replace@base_list_iterator@@QEAAPEAXAEAVbase_list@@@Z 000000014006d3a0 f i item_cmpfunc.obj
 0001:0006c430       ?ref@base_list_iterator@@QEAAPEAPEAXXZ 000000014006d430 f i item_cmpfunc.obj
 0001:0006c440       ??0DTCollation@@QEAA@XZ    000000014006d440 f i item_cmpfunc.obj
 0001:0006c470       ?set@DTCollation@@QEAA_NAEAV1@0I@Z 000000014006d470 f i item_cmpfunc.obj
 0001:0006c4a0       ?quick_fix_field@Item@@QEAAXXZ 000000014006d4a0 f i item_cmpfunc.obj
 0001:0006c4b0       ??1?$List@VItem_field@@@@QEAA@XZ 000000014006d4b0 f i item_cmpfunc.obj
 0001:0006c4c0       ?any_value@Item_sum_hybrid@@QEAA_NXZ 000000014006d4c0 f i item_cmpfunc.obj
 0001:0006c4d0       ?arguments@Item_func@@QEBAPEAPEAVItem@@XZ 000000014006d4d0 f i item_cmpfunc.obj
 0001:0006c4e0       ?agg_arg_charsets@Item_func@@QEAA_NAEAVDTCollation@@PEAPEAVItem@@IIH@Z 000000014006d4e0 f i item_cmpfunc.obj
 0001:0006c550       ??0Arg_comparator@@QEAA@XZ 000000014006d550 f i item_cmpfunc.obj
 0001:0006c590       ??0Arg_comparator@@QEAA@PEAPEAVItem@@0@Z 000000014006d590 f i item_cmpfunc.obj
 0001:0006c5d0       ?compare@Arg_comparator@@QEAAHXZ 000000014006d5d0 f i item_cmpfunc.obj
 0001:0006c5e0       ??1Arg_comparator@@QEAA@XZ 000000014006d5e0 f i item_cmpfunc.obj
 0001:0006c5f0       ??0in_vector@@QEAA@XZ      000000014006d5f0 f i item_cmpfunc.obj
 0001:0006c610       ??0in_vector@@QEAA@IIP6AHPEBX00@ZPEAUcharset_info_st@@@Z 000000014006d610 f i item_cmpfunc.obj
 0001:0006c690       ??1in_vector@@UEAA@XZ      000000014006d690 f i item_cmpfunc.obj
 0001:0006c6a0       ?sort@in_vector@@QEAAXXZ   000000014006d6a0 f i item_cmpfunc.obj
 0001:0006c6d0       ?create_item@in_vector@@UEAAPEAVItem@@XZ 000000014006d6d0 f i item_cmpfunc.obj
 0001:0006c6e0       ?value_to_item@in_vector@@UEAAXIPEAVItem@@@Z 000000014006d6e0 f i item_cmpfunc.obj
 0001:0006c6f0       ??_Ein_vector@@UEAAPEAXI@Z 000000014006d6f0 f i item_cmpfunc.obj
 0001:0006c6f0       ??_Gin_vector@@UEAAPEAXI@Z 000000014006d6f0 f i item_cmpfunc.obj
 0001:0006c710       ??1in_longlong@@UEAA@XZ    000000014006d710 f i item_cmpfunc.obj
 0001:0006c720       ??0cmp_item@@QEAA@XZ       000000014006d720 f i item_cmpfunc.obj
 0001:0006c740       ??1cmp_item@@UEAA@XZ       000000014006d740 f i item_cmpfunc.obj
 0001:0006c750       ?store_value_by_template@cmp_item@@UEAAXPEAV1@PEAVItem@@@Z 000000014006d750 f i item_cmpfunc.obj
 0001:0006c760       ??_Ecmp_item@@UEAAPEAXI@Z  000000014006d760 f i item_cmpfunc.obj
 0001:0006c760       ??_Gcmp_item@@UEAAPEAXI@Z  000000014006d760 f i item_cmpfunc.obj
 0001:0006c780       ??0cmp_item_string@@QEAA@PEAUcharset_info_st@@@Z 000000014006d780 f i item_cmpfunc.obj
 0001:0006c7a0       ??1cmp_item_string@@UEAA@XZ 000000014006d7a0 f i item_cmpfunc.obj
 0001:0006c7b0       ??0cmp_item_int@@QEAA@XZ   000000014006d7b0 f i item_cmpfunc.obj
 0001:0006c7d0       ?store_value@cmp_item_int@@UEAAXPEAVItem@@@Z 000000014006d7d0 f i item_cmpfunc.obj
 0001:0006c800       ?cmp@cmp_item_int@@UEAAHPEAVItem@@@Z 000000014006d800 f i item_cmpfunc.obj
 0001:0006c830       ?compare@cmp_item_int@@UEAAHPEAVcmp_item@@@Z 000000014006d830 f i item_cmpfunc.obj
 0001:0006c850       ??1cmp_item_int@@UEAA@XZ   000000014006d850 f i item_cmpfunc.obj
 0001:0006c860       ??0cmp_item_datetime@@QEAA@PEAVItem@@@Z 000000014006d860 f i item_cmpfunc.obj
 0001:0006c8c0       ??1cmp_item_datetime@@UEAA@XZ 000000014006d8c0 f i item_cmpfunc.obj
 0001:0006c8d0       ??0cmp_item_real@@QEAA@XZ  000000014006d8d0 f i item_cmpfunc.obj
 0001:0006c8f0       ?store_value@cmp_item_real@@UEAAXPEAVItem@@@Z 000000014006d8f0 f i item_cmpfunc.obj
 0001:0006c920       ?cmp@cmp_item_real@@UEAAHPEAVItem@@@Z 000000014006d920 f i item_cmpfunc.obj
 0001:0006c960       ?compare@cmp_item_real@@UEAAHPEAVcmp_item@@@Z 000000014006d960 f i item_cmpfunc.obj
 0001:0006c990       ??1cmp_item_real@@UEAA@XZ  000000014006d990 f i item_cmpfunc.obj
 0001:0006c9a0       ??0cmp_item_row@@QEAA@XZ   000000014006d9a0 f i item_cmpfunc.obj
 0001:0006c9d0       ??1?$List@VItem_equal@@@@QEAA@XZ 000000014006d9d0 f i item_cmpfunc.obj
 0001:0006c9e0       ??1COND_EQUAL@@QEAA@XZ     000000014006d9e0 f i item_cmpfunc.obj
 0001:0006c9f0       ?any_value@Item_maxmin_subselect@@QEAA_NXZ 000000014006d9f0 f i item_cmpfunc.obj
 0001:0006ca00       ?set_cond_guard_var@Item_in_subselect@@QEAAXH_N@Z 000000014006da00 f i item_cmpfunc.obj
 0001:0006ca20       ?is_top_level_item@Item_in_subselect@@QEAA_NXZ 000000014006da20 f i item_cmpfunc.obj
 0001:0006ca30       ?set_used_tables@Item_cache@@QEAAX_K@Z 000000014006da30 f i item_cmpfunc.obj
 0001:0006ca40       ?is_context_analysis_only@THD@@QEAA_NXZ 000000014006da40 f i item_cmpfunc.obj
 0001:0006ce60       ?agg_field_type@@YA?AW4enum_field_types@@PEAPEAVItem@@I@Z 000000014006de60 f   item_cmpfunc.obj
 0001:0006d060       ?val_int@Item_func_not@@UEAA_JXZ 000000014006e060 f   item_cmpfunc.obj
 0001:0006d0c0       ?print@Item_func_not@@UEAAXPEAVString@@@Z 000000014006e0c0 f   item_cmpfunc.obj
 0001:0006d180       ?empty_underlying_subquery@Item_func_not_all@@QEAA_NXZ 000000014006e180 f   item_cmpfunc.obj
 0001:0006d1c0       ?print@Item_func_not_all@@UEAAXPEAVString@@@Z 000000014006e1c0 f   item_cmpfunc.obj
 0001:0006d1f0       ?val_int@Item_func_nop_all@@UEAA_JXZ 000000014006e1f0 f   item_cmpfunc.obj
 0001:0006d270       ??_EArg_comparator@@QEAAPEAXI@Z 000000014006e270 f i item_cmpfunc.obj
 0001:0006d390       ?compare_datetime@Arg_comparator@@QEAAHXZ 000000014006e390 f   item_cmpfunc.obj
 0001:0006d500       ?compare_string@Arg_comparator@@QEAAHXZ 000000014006e500 f   item_cmpfunc.obj
 0001:0006d5b0       ?compare_binary_string@Arg_comparator@@QEAAHXZ 000000014006e5b0 f   item_cmpfunc.obj
 0001:0006d680       ?compare_e_string@Arg_comparator@@QEAAHXZ 000000014006e680 f   item_cmpfunc.obj
 0001:0006d730       ?compare_e_binary_string@Arg_comparator@@QEAAHXZ 000000014006e730 f   item_cmpfunc.obj
 0001:0006d7d0       ?compare_real@Arg_comparator@@QEAAHXZ 000000014006e7d0 f   item_cmpfunc.obj
 0001:0006d890       ?compare_e_real@Arg_comparator@@QEAAHXZ 000000014006e890 f   item_cmpfunc.obj
 0001:0006d930       ?compare_real_fixed@Arg_comparator@@QEAAHXZ 000000014006e930 f   item_cmpfunc.obj
 0001:0006da20       ?compare_e_real_fixed@Arg_comparator@@QEAAHXZ 000000014006ea20 f   item_cmpfunc.obj
 0001:0006dae0       ?compare_int_signed@Arg_comparator@@QEAAHXZ 000000014006eae0 f   item_cmpfunc.obj
 0001:0006db80       ?compare_int_unsigned@Arg_comparator@@QEAAHXZ 000000014006eb80 f   item_cmpfunc.obj
 0001:0006dc20       ?compare_int_signed_unsigned@Arg_comparator@@QEAAHXZ 000000014006ec20 f   item_cmpfunc.obj
 0001:0006dcd0       ?compare_int_unsigned_signed@Arg_comparator@@QEAAHXZ 000000014006ecd0 f   item_cmpfunc.obj
 0001:0006dd90       ?compare_e_int@Arg_comparator@@QEAAHXZ 000000014006ed90 f   item_cmpfunc.obj
 0001:0006de40       ?compare_e_int_diff_signedness@Arg_comparator@@QEAAHXZ 000000014006ee40 f   item_cmpfunc.obj
 0001:0006dee0       ?compare_row@Arg_comparator@@QEAAHXZ 000000014006eee0 f   item_cmpfunc.obj
 0001:0006e000       ?compare_e_row@Arg_comparator@@QEAAHXZ 000000014006f000 f   item_cmpfunc.obj
 0001:0006e0b0       ?fix_length_and_dec@Item_func_truth@@UEAAXXZ 000000014006f0b0 f   item_cmpfunc.obj
 0001:0006e0d0       ?print@Item_func_truth@@UEAAXPEAVString@@@Z 000000014006f0d0 f   item_cmpfunc.obj
 0001:0006e210       ?val_bool@Item_func_truth@@UEAA_NXZ 000000014006f210 f   item_cmpfunc.obj
 0001:0006e290       ?val_int@Item_func_truth@@UEAA_JXZ 000000014006f290 f   item_cmpfunc.obj
 0001:0006e2c0       ?fix_left@Item_in_optimizer@@QEAA_NPEAVTHD@@PEAPEAVItem@@@Z 000000014006f2c0 f   item_cmpfunc.obj
 0001:0006e520       ?fix_fields@Item_in_optimizer@@UEAA_NPEAVTHD@@PEAPEAVItem@@@Z 000000014006f520 f   item_cmpfunc.obj
 0001:0006e6a0       ?val_int@Item_in_optimizer@@UEAA_JXZ 000000014006f6a0 f   item_cmpfunc.obj
 0001:0006e910       ?keep_top_level_cache@Item_in_optimizer@@QEAAXXZ 000000014006f910 f   item_cmpfunc.obj
 0001:0006e940       ?cleanup@Item_in_optimizer@@UEAAXXZ 000000014006f940 f   item_cmpfunc.obj
 0001:0006e980       ?is_null@Item_in_optimizer@@UEAA_NXZ 000000014006f980 f   item_cmpfunc.obj
 0001:0006e9f0       ?val_int@Item_func_eq@@UEAA_JXZ 000000014006f9f0 f   item_cmpfunc.obj
 0001:0006ea20       ?val_int@Item_func_equal@@UEAA_JXZ 000000014006fa20 f   item_cmpfunc.obj
 0001:0006ea40       ?val_int@Item_func_ne@@UEAA_JXZ 000000014006fa40 f   item_cmpfunc.obj
 0001:0006ea90       ?val_int@Item_func_ge@@UEAA_JXZ 000000014006fa90 f   item_cmpfunc.obj
 0001:0006eac0       ?val_int@Item_func_gt@@UEAA_JXZ 000000014006fac0 f   item_cmpfunc.obj
 0001:0006eaf0       ?val_int@Item_func_le@@UEAA_JXZ 000000014006faf0 f   item_cmpfunc.obj
 0001:0006eb40       ?val_int@Item_func_lt@@UEAA_JXZ 000000014006fb40 f   item_cmpfunc.obj
 0001:0006eb90       ?val_int@Item_func_strcmp@@UEAA_JXZ 000000014006fb90 f   item_cmpfunc.obj
 0001:0006ec40       ?eq@Item_func_opt_neg@@UEBA_NPEBVItem@@_N@Z 000000014006fc40 f   item_cmpfunc.obj
 0001:0006ed90       ?fix_length_and_dec@Item_func_interval@@UEAAXXZ 000000014006fd90 f   item_cmpfunc.obj
 0001:0006f120       ?fix_fields@Item_func_between@@UEAA_NPEAVTHD@@PEAPEAVItem@@@Z 0000000140070120 f   item_cmpfunc.obj
 0001:0006f1f0       ?print@Item_func_between@@UEAAXPEAVString@@@Z 00000001400701f0 f   item_cmpfunc.obj
 0001:0006f340       ?fix_length_and_dec@Item_func_ifnull@@UEAAXXZ 0000000140070340 f   item_cmpfunc.obj
 0001:0006f500       ?decimal_precision@Item_func_ifnull@@UEBAIXZ 0000000140070500 f   item_cmpfunc.obj
 0001:0006f5b0       ?field_type@Item_func_ifnull@@UEBA?AW4enum_field_types@@XZ 00000001400705b0 f   item_cmpfunc.obj
 0001:0006f5c0       ?tmp_table_field@Item_func_ifnull@@UEAAPEAVField@@PEAUst_table@@@Z 00000001400705c0 f   item_cmpfunc.obj
 0001:0006f5d0       ?real_op@Item_func_ifnull@@UEAANXZ 00000001400705d0 f   item_cmpfunc.obj
 0001:0006f640       ?int_op@Item_func_ifnull@@UEAA_JXZ 0000000140070640 f   item_cmpfunc.obj
 0001:0006f6b0       ?decimal_op@Item_func_ifnull@@UEAAPEAVmy_decimal@@PEAV2@@Z 00000001400706b0 f   item_cmpfunc.obj
 0001:0006f740       ?str_op@Item_func_ifnull@@UEAAPEAVString@@PEAV2@@Z 0000000140070740 f   item_cmpfunc.obj
 0001:0006f7f0       ?fix_fields@Item_func_if@@UEAA_NPEAVTHD@@PEAPEAVItem@@@Z 00000001400707f0 f   item_cmpfunc.obj
 0001:0006f8a0       ?fix_length_and_dec@Item_func_if@@UEAAXXZ 00000001400708a0 f   item_cmpfunc.obj
 0001:0006fbf0       ?decimal_precision@Item_func_if@@UEBAIXZ 0000000140070bf0 f   item_cmpfunc.obj
 0001:0006fca0       ?val_real@Item_func_if@@UEAANXZ 0000000140070ca0 f   item_cmpfunc.obj
 0001:0006fd00       ?val_int@Item_func_if@@UEAA_JXZ 0000000140070d00 f   item_cmpfunc.obj
 0001:0006fd60       ?val_str@Item_func_if@@UEAAPEAVString@@PEAV2@@Z 0000000140070d60 f   item_cmpfunc.obj
 0001:0006fde0       ?val_decimal@Item_func_if@@UEAAPEAVmy_decimal@@PEAV2@@Z 0000000140070de0 f   item_cmpfunc.obj
 0001:0006fe60       ?val_real@Item_func_nullif@@UEAANXZ 0000000140070e60 f   item_cmpfunc.obj
 0001:0006fec0       ?val_int@Item_func_nullif@@UEAA_JXZ 0000000140070ec0 f   item_cmpfunc.obj
 0001:0006ff20       ?val_str@Item_func_nullif@@UEAAPEAVString@@PEAV2@@Z 0000000140070f20 f   item_cmpfunc.obj
 0001:0006ffa0       ?val_decimal@Item_func_nullif@@UEAAPEAVmy_decimal@@PEAV2@@Z 0000000140070fa0 f   item_cmpfunc.obj
 0001:00070020       ?is_null@Item_func_nullif@@UEAA_NXZ 0000000140071020 f   item_cmpfunc.obj
 0001:00070080       ?fix_fields@Item_func_case@@UEAA_NPEAVTHD@@PEAPEAVItem@@@Z 0000000140071080 f   item_cmpfunc.obj
 0001:00070110       ?agg_str_lengths@Item_func_case@@QEAAXPEAVItem@@@Z 0000000140071110 f   item_cmpfunc.obj
 0001:00070150       ?agg_num_lengths@Item_func_case@@QEAAXPEAVItem@@@Z 0000000140071150 f   item_cmpfunc.obj
 0001:000701c0       ?fix_length_and_dec@Item_func_case@@UEAAXXZ 00000001400711c0 f   item_cmpfunc.obj
 0001:000705a0       ?decimal_precision@Item_func_case@@UEBAIXZ 00000001400715a0 f   item_cmpfunc.obj
 0001:00070700       ?print@Item_func_case@@UEAAXPEAVString@@@Z 0000000140071700 f   item_cmpfunc.obj
 0001:00070940       ?str_op@Item_func_coalesce@@UEAAPEAVString@@PEAV2@@Z 0000000140071940 f   item_cmpfunc.obj
 0001:000709d0       ?int_op@Item_func_coalesce@@UEAA_JXZ 00000001400719d0 f   item_cmpfunc.obj
 0001:00070a60       ?real_op@Item_func_coalesce@@UEAANXZ 0000000140071a60 f   item_cmpfunc.obj
 0001:00070af0       ?decimal_op@Item_func_coalesce@@UEAAPEAVmy_decimal@@PEAV2@@Z 0000000140071af0 f   item_cmpfunc.obj
 0001:00070b90       ?fix_length_and_dec@Item_func_coalesce@@UEAAXXZ 0000000140071b90 f   item_cmpfunc.obj
 0001:00070d00       ?cmp_longlong@@YAHPEAXPEAUpacked_longlong@in_longlong@@1@Z 0000000140071d00 f   item_cmpfunc.obj
 0001:00070df0       ?find@in_vector@@QEAAHPEAVItem@@@Z 0000000140071df0 f   item_cmpfunc.obj
 0001:00070ef0       ?set@in_string@@UEAAXIPEAVItem@@@Z 0000000140071ef0 f   item_cmpfunc.obj
 0001:00071010       ?get_value@in_string@@UEAAPEAEPEAVItem@@@Z 0000000140072010 f   item_cmpfunc.obj
 0001:00071030       ?get_value@in_row@@UEAAPEAEPEAVItem@@@Z 0000000140072030 f   item_cmpfunc.obj
 0001:00071080       ?set@in_row@@UEAAXIPEAVItem@@@Z 0000000140072080 f   item_cmpfunc.obj
 0001:000710a0       ??0in_longlong@@QEAA@I@Z   00000001400720a0 f   item_cmpfunc.obj
 0001:00071120       ?value_to_item@in_longlong@@UEAAXIPEAVItem@@@Z 0000000140072120 f i item_cmpfunc.obj
 0001:00071150       ??_Ein_longlong@@UEAAPEAXI@Z 0000000140072150 f i item_cmpfunc.obj
 0001:00071150       ??_Gin_longlong@@UEAAPEAXI@Z 0000000140072150 f i item_cmpfunc.obj
 0001:00071170       ?set@in_longlong@@UEAAXIPEAVItem@@@Z 0000000140072170 f   item_cmpfunc.obj
 0001:000711c0       ?get_value@in_longlong@@UEAAPEAEPEAVItem@@@Z 00000001400721c0 f   item_cmpfunc.obj
 0001:00071230       ??0in_double@@QEAA@I@Z     0000000140072230 f   item_cmpfunc.obj
 0001:000712b0       ?value_to_item@in_double@@UEAAXIPEAVItem@@@Z 00000001400722b0 f i item_cmpfunc.obj
 0001:000712d0       ??1in_double@@UEAA@XZ      00000001400722d0 f i item_cmpfunc.obj
 0001:000712e0       ?set@in_double@@UEAAXIPEAVItem@@@Z 00000001400722e0 f   item_cmpfunc.obj
 0001:00071320       ?get_value@in_double@@UEAAPEAEPEAVItem@@@Z 0000000140072320 f   item_cmpfunc.obj
 0001:00071370       ?set@in_decimal@@UEAAXIPEAVItem@@@Z 0000000140072370 f   item_cmpfunc.obj
 0001:00071430       ?get_value@in_decimal@@UEAAPEAEPEAVItem@@@Z 0000000140072430 f   item_cmpfunc.obj
 0001:00071470       ?make_same@cmp_item_int@@UEAAPEAVcmp_item@@XZ 0000000140072470 f   item_cmpfunc.obj
 0001:000714c0       ?make_same@cmp_item_real@@UEAAPEAVcmp_item@@XZ 00000001400724c0 f   item_cmpfunc.obj
 0001:00071510       ?make_same@cmp_item_row@@UEAAPEAVcmp_item@@XZ 0000000140072510 f   item_cmpfunc.obj
 0001:00071570       ??1cmp_item_row@@UEAA@XZ   0000000140072570 f   item_cmpfunc.obj
 0001:00071630       ?alloc_comparators@cmp_item_row@@QEAAXXZ 0000000140072630 f i item_cmpfunc.obj
 0001:000716c0       ?store_value_by_template@cmp_item_row@@UEAAXPEAVcmp_item@@PEAVItem@@@Z 00000001400726c0 f   item_cmpfunc.obj
 0001:00071830       ?cmp@cmp_item_row@@UEAAHPEAVItem@@@Z 0000000140072830 f   item_cmpfunc.obj
 0001:00071950       ?compare@cmp_item_row@@UEAAHPEAVcmp_item@@@Z 0000000140072950 f   item_cmpfunc.obj
 0001:000719e0       ?store_value@cmp_item_decimal@@UEAAXPEAVItem@@@Z 00000001400729e0 f   item_cmpfunc.obj
 0001:00071a80       ?compare@cmp_item_decimal@@UEAAHPEAVcmp_item@@@Z 0000000140072a80 f   item_cmpfunc.obj
 0001:00071a90       ?compare@cmp_item_datetime@@UEAAHPEAVcmp_item@@@Z 0000000140072a90 f   item_cmpfunc.obj
 0001:00071ab0       ?make_same@cmp_item_datetime@@UEAAPEAVcmp_item@@XZ 0000000140072ab0 f   item_cmpfunc.obj
 0001:00071b40       ?nulls_in_row@Item_func_in@@QEAA_NXZ 0000000140072b40 f   item_cmpfunc.obj
 0001:00071bb0       ?fix_fields@Item_func_in@@UEAA_NPEAVTHD@@PEAPEAVItem@@@Z 0000000140072bb0 f   item_cmpfunc.obj
 0001:00071cc0       ?print@Item_func_in@@UEAAXPEAVString@@@Z 0000000140072cc0 f   item_cmpfunc.obj
 0001:00071db0       ?val_int@Item_func_in@@UEAA_JXZ 0000000140072db0 f   item_cmpfunc.obj
 0001:00071f80       ?val_int@Item_func_bit_or@@UEAA_JXZ 0000000140072f80 f   item_cmpfunc.obj
 0001:00072000       ?val_int@Item_func_bit_and@@UEAA_JXZ 0000000140073000 f   item_cmpfunc.obj
 0001:00072080       ?used_tables@Item_cond@@UEBA_KXZ 0000000140073080 f   item_cmpfunc.obj
 0001:00072090       ?val_int@Item_func_isnull@@UEAA_JXZ 0000000140073090 f   item_cmpfunc.obj
 0001:000720e0       ?val_int@Item_is_not_null_test@@UEAA_JXZ 00000001400730e0 f   item_cmpfunc.obj
 0001:00072180       ?update_used_tables@Item_is_not_null_test@@UEAAXXZ 0000000140073180 f   item_cmpfunc.obj
 0001:00072230       ?val_int@Item_func_isnotnull@@UEAA_JXZ 0000000140073230 f   item_cmpfunc.obj
 0001:00072260       ?print@Item_func_isnotnull@@UEAAXPEAVString@@@Z 0000000140073260 f   item_cmpfunc.obj
 0001:000722f0       ?select_optimize@Item_func_like@@UEBA?AW4optimize_type@Item_func@@XZ 00000001400732f0 f   item_cmpfunc.obj
 0001:000723a0       ?cleanup@Item_func_like@@UEAAXXZ 00000001400733a0 f   item_cmpfunc.obj
 0001:000723b0       ?cleanup@Item_func_regex@@UEAAXXZ 00000001400733b0 f   item_cmpfunc.obj
 0001:000723f0       ?turboBM_compute_suffixes@Item_func_like@@AEAAXPEAH@Z 00000001400733f0 f   item_cmpfunc.obj
 0001:00072620       ?turboBM_compute_good_suffix_shifts@Item_func_like@@AEAAXPEAH@Z 0000000140073620 f   item_cmpfunc.obj
 0001:000727e0       ?turboBM_compute_bad_character_shifts@Item_func_like@@AEAAXXZ 00000001400737e0 f   item_cmpfunc.obj
 0001:000728d0       ?turboBM_matches@Item_func_like@@AEBA_NPEBDH@Z 00000001400738d0 f   item_cmpfunc.obj
 0001:00072bf0       ?neg_transformer@Item_func_not@@UEAAPEAVItem@@PEAVTHD@@@Z 0000000140073bf0 f   item_cmpfunc.obj
 0001:00072c00       ?neg_transformer@Item_bool_rowready_func2@@UEAAPEAVItem@@PEAVTHD@@@Z 0000000140073c00 f   item_cmpfunc.obj
 0001:00072c10       ?negated_item@Item_bool_rowready_func2@@UEAAPEAVItem@@XZ 0000000140073c10 f   item_cmpfunc.obj
 0001:00072c20       ?members@Item_equal@@QEAAIXZ 0000000140073c20 f   item_cmpfunc.obj
 0001:00072c30       ??0?$List@VItem@@@@QEAA@AEBV0@@Z 0000000140073c30 f i item_cmpfunc.obj
 0001:00072c60       ??0?$List@VItem_field@@@@QEAA@XZ 0000000140073c60 f i item_cmpfunc.obj
 0001:00072c80       ??0?$List@VItem_equal@@@@QEAA@XZ 0000000140073c80 f i item_cmpfunc.obj
 0001:00072ca0       ??E?$List_iterator_fast@VItem_field@@@@QEAAPEAVItem_field@@H@Z 0000000140073ca0 f i item_cmpfunc.obj
 0001:00072cc0       ??E?$List_iterator_fast@VItem@@@@QEAAPEAVItem@@H@Z 0000000140073cc0 f i item_cmpfunc.obj
 0001:00072ce0       ??E?$List_iterator@VItem@@@@QEAAPEAVItem@@H@Z 0000000140073ce0 f i item_cmpfunc.obj
 0001:00072d00       ?replace@?$List_iterator@VItem@@@@QEAAPEAVItem@@PEAV2@@Z 0000000140073d00 f i item_cmpfunc.obj
 0001:00072d10       ?replace@?$List_iterator@VItem@@@@QEAAPEAVItem@@AEAV?$List@VItem@@@@@Z 0000000140073d10 f i item_cmpfunc.obj
 0001:00072da0       ?ref@?$List_iterator@VItem@@@@QEAAPEAPEAVItem@@XZ 0000000140073da0 f i item_cmpfunc.obj
 0001:00072db0       ?rewind@?$List_iterator@VItem_field@@@@QEAAXXZ 0000000140073db0 f i item_cmpfunc.obj
 0001:00072dc0       ?ref@?$List_iterator@VItem_field@@@@QEAAPEAPEAVItem_field@@XZ 0000000140073dc0 f i item_cmpfunc.obj
 0001:00072dd0       ??_9Item@@$BCCA@AA         0000000140073dd0 f i item_cmpfunc.obj
 0001:00072de0       ?concat@base_list@@QEAAXPEAV1@@Z 0000000140073de0 f i item_cmpfunc.obj
 0001:00072e10       ??_Glist_node@@QEAAPEAXI@Z 0000000140073e10 f i item_cmpfunc.obj
 0001:00072e20       ??0Item_func@@QEAA@XZ      0000000140073e20 f i item_cmpfunc.obj
 0001:00072e70       ??0Item_func@@QEAA@PEAVItem@@0@Z 0000000140073e70 f i item_cmpfunc.obj
 0001:00072f30       ??0Item_int_func@@QEAA@XZ  0000000140073f30 f i item_cmpfunc.obj
 0001:00072f90       ?result_type@Item_int_func@@UEBA?AW4Item_result@@XZ 0000000140073f90 f i item_cmpfunc.obj
 0001:00072fa0       ?fix_length_and_dec@Item_int_func@@UEAAXXZ 0000000140073fa0 f i item_cmpfunc.obj
 0001:00072fb0       ??0Item_int_func@@QEAA@PEAVItem@@@Z 0000000140073fb0 f i item_cmpfunc.obj
 0001:00073040       ??0Item_int_func@@QEAA@PEAVItem@@0@Z 0000000140074040 f i item_cmpfunc.obj
 0001:00073100       ??0Item_int_func@@QEAA@PEAVTHD@@PEAV0@@Z 0000000140074100 f i item_cmpfunc.obj
 0001:00073130       ??1Item_int_func@@UEAA@XZ  0000000140074130 f i item_cmpfunc.obj
 0001:00073190       ??0Item_bool_func@@QEAA@XZ 0000000140074190 f i item_cmpfunc.obj
 0001:000731f0       ?is_bool_func@Item_bool_func@@UEAA_NXZ 00000001400741f0 f i item_cmpfunc.obj
 0001:00073200       ?fix_length_and_dec@Item_bool_func@@UEAAXXZ 0000000140074200 f i item_cmpfunc.obj
 0001:00073210       ?decimal_precision@Item_bool_func@@UEBAIXZ 0000000140074210 f i item_cmpfunc.obj
 0001:00073220       ??0Item_bool_func@@QEAA@PEAVItem@@@Z 0000000140074220 f i item_cmpfunc.obj
 0001:000732b0       ??0Item_bool_func@@QEAA@PEAVTHD@@PEAV0@@Z 00000001400742b0 f i item_cmpfunc.obj
 0001:000732e0       ??1Item_bool_func@@UEAA@XZ 00000001400742e0 f i item_cmpfunc.obj
 0001:00073340       ??0Item_bool_func2@@QEAA@PEAVItem@@0@Z 0000000140074340 f i item_cmpfunc.obj
 0001:000734c0       ?select_optimize@Item_bool_func2@@UEBA?AW4optimize_type@Item_func@@XZ 00000001400744c0 f i item_cmpfunc.obj
 0001:000734d0       ?rev_functype@Item_bool_func2@@UEBA?AW4Functype@Item_func@@XZ 00000001400744d0 f i item_cmpfunc.obj
 0001:000734e0       ?have_rev_func@Item_bool_func2@@UEBA_NXZ 00000001400744e0 f i item_cmpfunc.obj
 0001:00073500       ?print@Item_bool_func2@@UEAAXPEAVString@@@Z 0000000140074500 f i item_cmpfunc.obj
 0001:00073510       ?is_null@Item_bool_func2@@UEAA_NXZ 0000000140074510 f i item_cmpfunc.obj
 0001:00073560       ?is_bool_func@Item_bool_func2@@UEAA_NXZ 0000000140074560 f i item_cmpfunc.obj
 0001:00073570       ?compare_collation@Item_bool_func2@@UEAAPEAUcharset_info_st@@XZ 0000000140074570 f i item_cmpfunc.obj
 0001:00073580       ?decimal_precision@Item_bool_func2@@UEBAIXZ 0000000140074580 f i item_cmpfunc.obj
 0001:00073590       ?top_level_item@Item_bool_func2@@UEAAXXZ 0000000140074590 f i item_cmpfunc.obj
 0001:000735a0       ??1Item_bool_func2@@UEAA@XZ 00000001400745a0 f i item_cmpfunc.obj
 0001:00073670       ??0Item_bool_rowready_func2@@QEAA@PEAVItem@@0@Z 0000000140074670 f i item_cmpfunc.obj
 0001:000736b0       ?subst_argument_checker@Item_bool_rowready_func2@@UEAA_NPEAPEAE@Z 00000001400746b0 f i item_cmpfunc.obj
 0001:000736c0       ??1Item_bool_rowready_func2@@UEAA@XZ 00000001400746c0 f i item_cmpfunc.obj
 0001:00073790       ??0Item_func_not@@QEAA@PEAVItem@@@Z 0000000140074790 f i item_cmpfunc.obj
 0001:00073820       ?functype@Item_func_not@@UEBA?AW4Functype@Item_func@@XZ 0000000140074820 f i item_cmpfunc.obj
 0001:00073830       ?func_name@Item_func_not@@UEBAPEBDXZ 0000000140074830 f i item_cmpfunc.obj
 0001:00073840       ??1Item_func_not@@UEAA@XZ  0000000140074840 f i item_cmpfunc.obj
 0001:000738a0       ??0Item_func_not_all@@QEAA@PEAVItem@@@Z 00000001400748a0 f i item_cmpfunc.obj
 0001:00073950       ?top_level_item@Item_func_not_all@@UEAAXXZ 0000000140074950 f i item_cmpfunc.obj
 0001:00073960       ?functype@Item_func_not_all@@UEBA?AW4Functype@Item_func@@XZ 0000000140074960 f i item_cmpfunc.obj
 0001:00073970       ?func_name@Item_func_not_all@@UEBAPEBDXZ 0000000140074970 f i item_cmpfunc.obj
 0001:00073980       ??1Item_func_not_all@@UEAA@XZ 0000000140074980 f i item_cmpfunc.obj
 0001:000739e0       ??0Item_func_nop_all@@QEAA@PEAVItem@@@Z 00000001400749e0 f i item_cmpfunc.obj
 0001:00073a90       ?func_name@Item_func_nop_all@@UEBAPEBDXZ 0000000140074a90 f i item_cmpfunc.obj
 0001:00073aa0       ??1Item_func_nop_all@@UEAA@XZ 0000000140074aa0 f i item_cmpfunc.obj
 0001:00073b00       ??0Item_func_eq@@QEAA@PEAVItem@@0@Z 0000000140074b00 f i item_cmpfunc.obj
 0001:00073b40       ?functype@Item_func_eq@@UEBA?AW4Functype@Item_func@@XZ 0000000140074b40 f i item_cmpfunc.obj
 0001:00073b50       ?rev_functype@Item_func_eq@@UEBA?AW4Functype@Item_func@@XZ 0000000140074b50 f i item_cmpfunc.obj
 0001:00073b60       ?eq_cmp_result@Item_func_eq@@UEBA?AW4cond_result@Item@@XZ 0000000140074b60 f i item_cmpfunc.obj
 0001:00073b70       ?func_name@Item_func_eq@@UEBAPEBDXZ 0000000140074b70 f i item_cmpfunc.obj
 0001:00073b80       ??1Item_func_eq@@UEAA@XZ   0000000140074b80 f i item_cmpfunc.obj
 0001:00073c50       ??0Item_func_ge@@QEAA@PEAVItem@@0@Z 0000000140074c50 f i item_cmpfunc.obj
 0001:00073c90       ?functype@Item_func_ge@@UEBA?AW4Functype@Item_func@@XZ 0000000140074c90 f i item_cmpfunc.obj
 0001:00073ca0       ?rev_functype@Item_func_ge@@UEBA?AW4Functype@Item_func@@XZ 0000000140074ca0 f i item_cmpfunc.obj
 0001:00073cb0       ?eq_cmp_result@Item_func_ge@@UEBA?AW4cond_result@Item@@XZ 0000000140074cb0 f i item_cmpfunc.obj
 0001:00073cc0       ?func_name@Item_func_ge@@UEBAPEBDXZ 0000000140074cc0 f i item_cmpfunc.obj
 0001:00073cd0       ??1Item_func_ge@@UEAA@XZ   0000000140074cd0 f i item_cmpfunc.obj
 0001:00073da0       ??0Item_func_gt@@QEAA@PEAVItem@@0@Z 0000000140074da0 f i item_cmpfunc.obj
 0001:00073de0       ?functype@Item_func_gt@@UEBA?AW4Functype@Item_func@@XZ 0000000140074de0 f i item_cmpfunc.obj
 0001:00073df0       ?rev_functype@Item_func_gt@@UEBA?AW4Functype@Item_func@@XZ 0000000140074df0 f i item_cmpfunc.obj
 0001:00073e00       ?eq_cmp_result@Item_func_gt@@UEBA?AW4cond_result@Item@@XZ 0000000140074e00 f i item_cmpfunc.obj
 0001:00073e10       ?func_name@Item_func_gt@@UEBAPEBDXZ 0000000140074e10 f i item_cmpfunc.obj
 0001:00073e20       ??1Item_func_gt@@UEAA@XZ   0000000140074e20 f i item_cmpfunc.obj
 0001:00073ef0       ??0Item_func_le@@QEAA@PEAVItem@@0@Z 0000000140074ef0 f i item_cmpfunc.obj
 0001:00073f30       ?functype@Item_func_le@@UEBA?AW4Functype@Item_func@@XZ 0000000140074f30 f i item_cmpfunc.obj
 0001:00073f40       ?rev_functype@Item_func_le@@UEBA?AW4Functype@Item_func@@XZ 0000000140074f40 f i item_cmpfunc.obj
 0001:00073f50       ?eq_cmp_result@Item_func_le@@UEBA?AW4cond_result@Item@@XZ 0000000140074f50 f i item_cmpfunc.obj
 0001:00073f60       ?func_name@Item_func_le@@UEBAPEBDXZ 0000000140074f60 f i item_cmpfunc.obj
 0001:00073f70       ??1Item_func_le@@UEAA@XZ   0000000140074f70 f i item_cmpfunc.obj
 0001:00074040       ??0Item_func_lt@@QEAA@PEAVItem@@0@Z 0000000140075040 f i item_cmpfunc.obj
 0001:00074080       ?functype@Item_func_lt@@UEBA?AW4Functype@Item_func@@XZ 0000000140075080 f i item_cmpfunc.obj
 0001:00074090       ?rev_functype@Item_func_lt@@UEBA?AW4Functype@Item_func@@XZ 0000000140075090 f i item_cmpfunc.obj
 0001:000740a0       ?eq_cmp_result@Item_func_lt@@UEBA?AW4cond_result@Item@@XZ 00000001400750a0 f i item_cmpfunc.obj
 0001:000740b0       ?func_name@Item_func_lt@@UEBAPEBDXZ 00000001400750b0 f i item_cmpfunc.obj
 0001:000740c0       ??1Item_func_lt@@UEAA@XZ   00000001400750c0 f i item_cmpfunc.obj
 0001:00074190       ??0Item_func_ne@@QEAA@PEAVItem@@0@Z 0000000140075190 f i item_cmpfunc.obj
 0001:000741d0       ?functype@Item_func_ne@@UEBA?AW4Functype@Item_func@@XZ 00000001400751d0 f i item_cmpfunc.obj
 0001:000741e0       ?eq_cmp_result@Item_func_ne@@UEBA?AW4cond_result@Item@@XZ 00000001400751e0 f i item_cmpfunc.obj
 0001:000741f0       ?select_optimize@Item_func_ne@@UEBA?AW4optimize_type@Item_func@@XZ 00000001400751f0 f i item_cmpfunc.obj
 0001:00074200       ?func_name@Item_func_ne@@UEBAPEBDXZ 0000000140075200 f i item_cmpfunc.obj
 0001:00074210       ??1Item_func_ne@@UEAA@XZ   0000000140075210 f i item_cmpfunc.obj
 0001:000742e0       ??0in_datetime@@QEAA@PEAVItem@@I@Z 00000001400752e0 f i item_cmpfunc.obj
 0001:00074360       ??1in_datetime@@UEAA@XZ    0000000140075360 f i item_cmpfunc.obj
 0001:00074370       ??_Ein_datetime@@UEAAPEAXI@Z 0000000140075370 f i item_cmpfunc.obj
 0001:00074370       ??_Gin_datetime@@UEAAPEAXI@Z 0000000140075370 f i item_cmpfunc.obj
 0001:00074390       ??_Ecmp_item_string@@UEAAPEAXI@Z 0000000140075390 f i item_cmpfunc.obj
 0001:00074390       ??_Gcmp_item_string@@UEAAPEAXI@Z 0000000140075390 f i item_cmpfunc.obj
 0001:000743b0       ??0cmp_item_sort_string@@QEAA@PEAUcharset_info_st@@@Z 00000001400753b0 f i item_cmpfunc.obj
 0001:000743f0       ?store_value@cmp_item_sort_string@@UEAAXPEAVItem@@@Z 00000001400753f0 f i item_cmpfunc.obj
 0001:00074420       ?compare@cmp_item_sort_string@@UEAAHPEAVcmp_item@@@Z 0000000140075420 f i item_cmpfunc.obj
 0001:00074440       ?cmp@cmp_item_sort_string@@UEAAHPEAVItem@@@Z 0000000140075440 f i item_cmpfunc.obj
 0001:00074530       ??1cmp_item_sort_string@@UEAA@XZ 0000000140075530 f i item_cmpfunc.obj
 0001:000745a0       ??_Ecmp_item_int@@UEAAPEAXI@Z 00000001400755a0 f i item_cmpfunc.obj
 0001:000745a0       ??_Gcmp_item_int@@UEAAPEAXI@Z 00000001400755a0 f i item_cmpfunc.obj
 0001:000745c0       ??_Ecmp_item_datetime@@UEAAPEAXI@Z 00000001400755c0 f i item_cmpfunc.obj
 0001:000745c0       ??_Gcmp_item_datetime@@UEAAPEAXI@Z 00000001400755c0 f i item_cmpfunc.obj
 0001:000745e0       ??_Ecmp_item_real@@UEAAPEAXI@Z 00000001400755e0 f i item_cmpfunc.obj
 0001:000745e0       ??_Gcmp_item_real@@UEAAPEAXI@Z 00000001400755e0 f i item_cmpfunc.obj
 0001:00074600       ??0cmp_item_decimal@@QEAA@XZ 0000000140075600 f i item_cmpfunc.obj
 0001:00074640       ??1cmp_item_decimal@@UEAA@XZ 0000000140075640 f i item_cmpfunc.obj
 0001:00074650       ??0cmp_item_sort_string_in_static@@QEAA@PEAUcharset_info_st@@@Z 0000000140075650 f i item_cmpfunc.obj
 0001:00074690       ?store_value@cmp_item_sort_string_in_static@@UEAAXPEAVItem@@@Z 0000000140075690 f i item_cmpfunc.obj
 0001:000746c0       ?cmp@cmp_item_sort_string_in_static@@UEAAHPEAVItem@@@Z 00000001400756c0 f i item_cmpfunc.obj
 0001:000746d0       ?compare@cmp_item_sort_string_in_static@@UEAAHPEAVcmp_item@@@Z 00000001400756d0 f i item_cmpfunc.obj
 0001:000746f0       ?make_same@cmp_item_sort_string_in_static@@UEAAPEAVcmp_item@@XZ 00000001400756f0 f i item_cmpfunc.obj
 0001:00074770       ??1cmp_item_sort_string_in_static@@UEAA@XZ 0000000140075770 f i item_cmpfunc.obj
 0001:000747e0       ??0Item_func_isnull@@QEAA@PEAVItem@@@Z 00000001400757e0 f i item_cmpfunc.obj
 0001:00074870       ?functype@Item_func_isnull@@UEBA?AW4Functype@Item_func@@XZ 0000000140075870 f i item_cmpfunc.obj
 0001:00074880       ?fix_length_and_dec@Item_func_isnull@@UEAAXXZ 0000000140075880 f i item_cmpfunc.obj
 0001:000748a0       ?func_name@Item_func_isnull@@UEBAPEBDXZ 00000001400758a0 f i item_cmpfunc.obj
 0001:000748b0       ?update_used_tables@Item_func_isnull@@UEAAXXZ 00000001400758b0 f i item_cmpfunc.obj
 0001:00074970       ?not_null_tables@Item_func_isnull@@UEBA_KXZ 0000000140075970 f i item_cmpfunc.obj
 0001:00074980       ?select_optimize@Item_func_isnull@@UEBA?AW4optimize_type@Item_func@@XZ 0000000140075980 f i item_cmpfunc.obj
 0001:00074990       ?compare_collation@Item_func_isnull@@UEAAPEAUcharset_info_st@@XZ 0000000140075990 f i item_cmpfunc.obj
 0001:000749a0       ??1Item_func_isnull@@UEAA@XZ 00000001400759a0 f i item_cmpfunc.obj
 0001:00074a00       ??0Item_func_isnotnull@@QEAA@PEAVItem@@@Z 0000000140075a00 f i item_cmpfunc.obj
 0001:00074aa0       ?functype@Item_func_isnotnull@@UEBA?AW4Functype@Item_func@@XZ 0000000140075aa0 f i item_cmpfunc.obj
 0001:00074ab0       ?fix_length_and_dec@Item_func_isnotnull@@UEAAXXZ 0000000140075ab0 f i item_cmpfunc.obj
 0001:00074ad0       ?func_name@Item_func_isnotnull@@UEBAPEBDXZ 0000000140075ad0 f i item_cmpfunc.obj
 0001:00074ae0       ?select_optimize@Item_func_isnotnull@@UEBA?AW4optimize_type@Item_func@@XZ 0000000140075ae0 f i item_cmpfunc.obj
 0001:00074af0       ?not_null_tables@Item_func_isnotnull@@UEBA_KXZ 0000000140075af0 f i item_cmpfunc.obj
 0001:00074b10       ?compare_collation@Item_func_isnotnull@@UEAAPEAUcharset_info_st@@XZ 0000000140075b10 f i item_cmpfunc.obj
 0001:00074b20       ?top_level_item@Item_func_isnotnull@@UEAAXXZ 0000000140075b20 f i item_cmpfunc.obj
 0001:00074b30       ??1Item_func_isnotnull@@UEAA@XZ 0000000140075b30 f i item_cmpfunc.obj
 0001:00074b90       ??0Item_cond@@QEAA@PEAVItem@@0@Z 0000000140075b90 f i item_cmpfunc.obj
 0001:00074ce0       ?type@Item_cond@@UEBA?AW4Type@Item@@XZ 0000000140075ce0 f i item_cmpfunc.obj
 0001:00074cf0       ?top_level_item@Item_cond@@UEAAXXZ 0000000140075cf0 f i item_cmpfunc.obj
 0001:00074d00       ?subst_argument_checker@Item_cond@@UEAA_NPEAPEAE@Z 0000000140075d00 f i item_cmpfunc.obj
 0001:00074d10       ?field_type@Item_cond@@UEBA?AW4enum_field_types@@XZ 0000000140075d10 f i item_cmpfunc.obj
 0001:00074d20       ??0Item_cond@@QEAA@AEAV?$List@VItem@@@@@Z 0000000140075d20 f i item_cmpfunc.obj
 0001:00074dd0       ?add@Item_cond@@QEAA_NPEAVItem@@@Z 0000000140075dd0 f i item_cmpfunc.obj
 0001:00074e70       ??1Item_cond@@UEAA@XZ      0000000140075e70 f i item_cmpfunc.obj
 0001:00074ed0       ??0COND_EQUAL@@QEAA@XZ     0000000140075ed0 f i item_cmpfunc.obj
 0001:00074f00       ??0Item_cond_and@@QEAA@PEAVItem@@0@Z 0000000140075f00 f i item_cmpfunc.obj
 0001:00074f60       ?functype@Item_cond_and@@UEBA?AW4Functype@Item_func@@XZ 0000000140075f60 f i item_cmpfunc.obj
 0001:00074f70       ?func_name@Item_cond_and@@UEBAPEBDXZ 0000000140075f70 f i item_cmpfunc.obj
 0001:00074f80       ?not_null_tables@Item_cond_and@@UEBA_KXZ 0000000140075f80 f i item_cmpfunc.obj
 0001:00074fa0       ??0Item_cond_and@@QEAA@AEAV?$List@VItem@@@@@Z 0000000140075fa0 f i item_cmpfunc.obj
 0001:00075080       ??1Item_cond_and@@UEAA@XZ  0000000140076080 f i item_cmpfunc.obj
 0001:000750e0       ??0Item_cond_or@@QEAA@AEAV?$List@VItem@@@@@Z 00000001400760e0 f i item_cmpfunc.obj
 0001:00075190       ?functype@Item_cond_or@@UEBA?AW4Functype@Item_func@@XZ 0000000140076190 f i item_cmpfunc.obj
 0001:000751a0       ?func_name@Item_cond_or@@UEBAPEBDXZ 00000001400761a0 f i item_cmpfunc.obj
 0001:000751b0       ?not_null_tables@Item_cond_or@@UEBA_KXZ 00000001400761b0 f i item_cmpfunc.obj
 0001:000751c0       ??1Item_cond_or@@UEAA@XZ   00000001400761c0 f i item_cmpfunc.obj
 0001:00075220       ?create@Eq_creator@@UEBAPEAVItem_bool_func2@@PEAVItem@@0@Z 0000000140076220 f   item_cmpfunc.obj
 0001:000752b0       ?create@Ne_creator@@UEBAPEAVItem_bool_func2@@PEAVItem@@0@Z 00000001400762b0 f   item_cmpfunc.obj
 0001:00075340       ?create@Gt_creator@@UEBAPEAVItem_bool_func2@@PEAVItem@@0@Z 0000000140076340 f   item_cmpfunc.obj
 0001:000753d0       ?create@Lt_creator@@UEBAPEAVItem_bool_func2@@PEAVItem@@0@Z 00000001400763d0 f   item_cmpfunc.obj
 0001:00075460       ?create@Ge_creator@@UEBAPEAVItem_bool_func2@@PEAVItem@@0@Z 0000000140076460 f   item_cmpfunc.obj
 0001:000754f0       ?create@Le_creator@@UEBAPEAVItem_bool_func2@@PEAVItem@@0@Z 00000001400764f0 f   item_cmpfunc.obj
 0001:00075580       ?val_int@Item_func_not_all@@UEAA_JXZ 0000000140076580 f   item_cmpfunc.obj
 0001:00075600       ?set_compare_func@Arg_comparator@@QEAAHPEAVItem_bool_func2@@W4Item_result@@@Z 0000000140076600 f   item_cmpfunc.obj
 0001:00075b50       ?can_compare_as_dates@Arg_comparator@@SA?AW4enum_date_cmp_type@1@PEAVItem@@0PEA_K@Z 0000000140076b50 f   item_cmpfunc.obj
 0001:00075dc0       ?get_time_value@@YA_JPEAVTHD@@PEAPEAPEAVItem@@PEAPEAV2@PEAV2@PEA_N@Z 0000000140076dc0 f   item_cmpfunc.obj
 0001:00075f60       ?get_datetime_value@@YA_JPEAVTHD@@PEAPEAPEAVItem@@PEAPEAV2@PEAV2@PEA_N@Z 0000000140076f60 f   item_cmpfunc.obj
 0001:000761e0       ?compare_decimal@Arg_comparator@@QEAAHXZ 00000001400771e0 f   item_cmpfunc.obj
 0001:000762d0       ?compare_e_decimal@Arg_comparator@@QEAAHXZ 00000001400772d0 f   item_cmpfunc.obj
 0001:000763f0       ?val_int@Item_func_interval@@UEAA_JXZ 00000001400773f0 f   item_cmpfunc.obj
 0001:00076750       ?val_int@Item_func_between@@UEAA_JXZ 0000000140077750 f   item_cmpfunc.obj
 0001:00076d10       ?find_item@Item_func_case@@QEAAPEAVItem@@PEAVString@@@Z 0000000140077d10 f   item_cmpfunc.obj
 0001:00077250       ?val_str@Item_func_case@@UEAAPEAVString@@PEAV2@@Z 0000000140078250 f   item_cmpfunc.obj
 0001:000772b0       ?val_int@Item_func_case@@UEAA_JXZ 00000001400782b0 f   item_cmpfunc.obj
 0001:000773d0       ?val_real@Item_func_case@@UEAANXZ 00000001400783d0 f   item_cmpfunc.obj
 0001:00077500       ?val_decimal@Item_func_case@@UEAAPEAVmy_decimal@@PEAV2@@Z 0000000140078500 f   item_cmpfunc.obj
 0001:00077620       ??0in_string@@QEAA@IP6AHPEBX00@ZPEAUcharset_info_st@@@Z 0000000140078620 f   item_cmpfunc.obj
 0001:000776f0       ?value_to_item@in_string@@UEAAXIPEAVItem@@@Z 00000001400786f0 f i item_cmpfunc.obj
 0001:00077770       ??0Item_string@@QEAA@PEAUcharset_info_st@@W4Derivation@@@Z 0000000140078770 f i item_cmpfunc.obj
 0001:00077800       ?create_item@in_string@@UEAAPEAVItem@@XZ 0000000140078800 f i item_cmpfunc.obj
 0001:000778b0       ??1in_string@@UEAA@XZ      00000001400788b0 f   item_cmpfunc.obj
 0001:000779b0       ??0in_row@@QEAA@IPEAVItem@@@Z 00000001400789b0 f   item_cmpfunc.obj
 0001:00077ad0       ??_Ecmp_item_row@@UEAAPEAXI@Z 0000000140078ad0 f i item_cmpfunc.obj
 0001:00077b60       ??1in_row@@UEAA@XZ         0000000140078b60 f   item_cmpfunc.obj
 0001:00077bd0       ?set@in_datetime@@UEAAXIPEAVItem@@@Z 0000000140078bd0 f   item_cmpfunc.obj
 0001:00077c40       ?get_value@in_datetime@@UEAAPEAEPEAVItem@@@Z 0000000140078c40 f   item_cmpfunc.obj
 0001:00077ce0       ??_Gin_double@@UEAAPEAXI@Z 0000000140078ce0 f i item_cmpfunc.obj
 0001:00077ce0       ??_Ein_double@@UEAAPEAXI@Z 0000000140078ce0 f i item_cmpfunc.obj
 0001:00077d00       ??0in_decimal@@QEAA@I@Z    0000000140078d00 f   item_cmpfunc.obj
 0001:00077d90       ?create_item@in_decimal@@UEAAPEAVItem@@XZ 0000000140078d90 f i item_cmpfunc.obj
 0001:00077dd0       ?value_to_item@in_decimal@@UEAAXIPEAVItem@@@Z 0000000140078dd0 f i item_cmpfunc.obj
 0001:00077df0       ??1in_decimal@@UEAA@XZ     0000000140078df0 f i item_cmpfunc.obj
 0001:00077e00       ?get_comparator@cmp_item@@SAPEAV1@W4Item_result@@PEAUcharset_info_st@@@Z 0000000140078e00 f   item_cmpfunc.obj
 0001:00077fb0       ?make_same@cmp_item_sort_string@@UEAAPEAVcmp_item@@XZ 0000000140078fb0 f   item_cmpfunc.obj
 0001:00078030       ?store_value@cmp_item_row@@UEAAXPEAVItem@@@Z 0000000140079030 f   item_cmpfunc.obj
 0001:00078200       ?cmp@cmp_item_decimal@@UEAAHPEAVItem@@@Z 0000000140079200 f   item_cmpfunc.obj
 0001:00078280       ?make_same@cmp_item_decimal@@UEAAPEAVcmp_item@@XZ 0000000140079280 f   item_cmpfunc.obj
 0001:000782e0       ?store_value@cmp_item_datetime@@UEAAXPEAVItem@@@Z 00000001400792e0 f   item_cmpfunc.obj
 0001:00078340       ?cmp@cmp_item_datetime@@UEAAHPEAVItem@@@Z 0000000140079340 f   item_cmpfunc.obj
 0001:000783a0       ??0Item_cond@@QEAA@PEAVTHD@@PEAV0@@Z 00000001400793a0 f   item_cmpfunc.obj
 0001:00078420       ?and_expressions@@YAPEAVItem@@PEAV1@0PEAPEAV1@@Z 0000000140079420 f   item_cmpfunc.obj
 0001:00078620       ?val_int@Item_func_like@@UEAA_JXZ 0000000140079620 f   item_cmpfunc.obj
 0001:00078760       ?fix_fields@Item_func_like@@UEAA_NPEAVTHD@@PEAPEAVItem@@@Z 0000000140079760 f   item_cmpfunc.obj
 0001:00078b30       ?regcomp@Item_func_regex@@AEAAH_N@Z 0000000140079b30 f   item_cmpfunc.obj
 0001:00078dd0       ?fix_fields@Item_func_regex@@UEAA_NPEAVTHD@@PEAPEAVItem@@@Z 0000000140079dd0 f   item_cmpfunc.obj
 0001:000790c0       ?val_int@Item_func_regex@@UEAA_JXZ 000000014007a0c0 f   item_cmpfunc.obj
 0001:000792a0       ?neg_transformer@Item_func_isnull@@UEAAPEAVItem@@PEAVTHD@@@Z 000000014007a2a0 f   item_cmpfunc.obj
 0001:00079370       ?neg_transformer@Item_func_isnotnull@@UEAAPEAVItem@@PEAVTHD@@@Z 000000014007a370 f   item_cmpfunc.obj
 0001:00079430       ?neg_transformer@Item_func_nop_all@@UEAAPEAVItem@@PEAVTHD@@@Z 000000014007a430 f   item_cmpfunc.obj
 0001:00079550       ?neg_transformer@Item_func_not_all@@UEAAPEAVItem@@PEAVTHD@@@Z 000000014007a550 f   item_cmpfunc.obj
 0001:00079670       ?negated_item@Item_func_eq@@UEAAPEAVItem@@XZ 000000014007a670 f   item_cmpfunc.obj
 0001:000796f0       ?negated_item@Item_func_ne@@UEAAPEAVItem@@XZ 000000014007a6f0 f   item_cmpfunc.obj
 0001:00079770       ?negated_item@Item_func_lt@@UEAAPEAVItem@@XZ 000000014007a770 f   item_cmpfunc.obj
 0001:000797f0       ?negated_item@Item_func_ge@@UEAAPEAVItem@@XZ 000000014007a7f0 f   item_cmpfunc.obj
 0001:00079870       ?negated_item@Item_func_gt@@UEAAPEAVItem@@XZ 000000014007a870 f   item_cmpfunc.obj
 0001:000798f0       ?negated_item@Item_func_le@@UEAAPEAVItem@@XZ 000000014007a8f0 f   item_cmpfunc.obj
 0001:00079970       ??0Item_equal@@QEAA@PEAVItem_field@@0@Z 000000014007a970 f   item_cmpfunc.obj
 0001:00079b20       ?functype@Item_equal@@UEBA?AW4Functype@Item_func@@XZ 000000014007ab20 f i item_cmpfunc.obj
 0001:00079b30       ?func_name@Item_equal@@UEBAPEBDXZ 000000014007ab30 f i item_cmpfunc.obj
 0001:00079b40       ?select_optimize@Item_equal@@UEBA?AW4optimize_type@Item_func@@XZ 000000014007ab40 f i item_cmpfunc.obj
 0001:00079b50       ?compare_collation@Item_equal@@UEAAPEAUcharset_info_st@@XZ 000000014007ab50 f i item_cmpfunc.obj
 0001:00079b70       ??1Item_equal@@UEAA@XZ     000000014007ab70 f i item_cmpfunc.obj
 0001:00079bd0       ??0Item_equal@@QEAA@PEAVItem@@PEAVItem_field@@@Z 000000014007abd0 f   item_cmpfunc.obj
 0001:00079d40       ?add@Item_equal@@QEAAXPEAVItem_field@@@Z 000000014007ad40 f   item_cmpfunc.obj
 0001:00079dc0       ?fix_length_and_dec@Item_equal@@UEAAXXZ 000000014007adc0 f   item_cmpfunc.obj
 0001:00079e10       ?concat@?$List@VItem_field@@@@QEAAXPEAV1@@Z 000000014007ae10 f i item_cmpfunc.obj
 0001:00079e40       ??0?$List_iterator_fast@VItem_field@@@@QEAA@AEAV?$List@VItem_field@@@@@Z 000000014007ae40 f i item_cmpfunc.obj
 0001:00079e60       ??0?$List_iterator_fast@VItem@@@@QEAA@AEAV?$List@VItem@@@@@Z 000000014007ae60 f i item_cmpfunc.obj
 0001:00079e80       ??0?$List_iterator@VItem@@@@QEAA@AEAV?$List@VItem@@@@@Z 000000014007ae80 f i item_cmpfunc.obj
 0001:00079ea0       ?remove@base_list@@QEAAXPEAPEAUlist_node@@@Z 000000014007aea0 f i item_cmpfunc.obj
 0001:00079ed0       ?remove@base_list_iterator@@QEAAXXZ 000000014007aed0 f i item_cmpfunc.obj
 0001:00079f30       ??0Item_int@@QEAA@_JI@Z    000000014007af30 f i item_cmpfunc.obj
 0001:00079f90       ??0Item_float@@QEAA@N@Z    000000014007af90 f i item_cmpfunc.obj
 0001:0007a100       ??0Item_int_with_ref@@QEAA@_JPEAVItem@@D@Z 000000014007b100 f i item_cmpfunc.obj
 0001:0007a180       ?save_in_field@Item_int_with_ref@@UEAAHPEAVField@@_N@Z 000000014007b180 f i item_cmpfunc.obj
 0001:0007a190       ?real_item@Item_int_with_ref@@UEAAPEAVItem@@XZ 000000014007b190 f i item_cmpfunc.obj
 0001:0007a1a0       ??1Item_int_with_ref@@UEAA@XZ 000000014007b1a0 f i item_cmpfunc.obj
 0001:0007a200       ??_GItem_int_with_ref@@UEAAPEAXI@Z 000000014007b200 f i item_cmpfunc.obj
 0001:0007a200       ??_EItem_int_with_ref@@UEAAPEAXI@Z 000000014007b200 f i item_cmpfunc.obj
 0001:0007a260       ??_GItem_int_func@@UEAAPEAXI@Z 000000014007b260 f i item_cmpfunc.obj
 0001:0007a260       ??_EItem_int_func@@UEAAPEAXI@Z 000000014007b260 f i item_cmpfunc.obj
 0001:0007a2c0       ??_GItem_bool_func@@UEAAPEAXI@Z 000000014007b2c0 f i item_cmpfunc.obj
 0001:0007a2c0       ??_EItem_bool_func@@UEAAPEAXI@Z 000000014007b2c0 f i item_cmpfunc.obj
 0001:0007a320       ??_GItem_bool_func2@@UEAAPEAXI@Z 000000014007b320 f i item_cmpfunc.obj
 0001:0007a320       ??_EItem_bool_func2@@UEAAPEAXI@Z 000000014007b320 f i item_cmpfunc.obj
 0001:0007a3f0       ??_GItem_bool_rowready_func2@@UEAAPEAXI@Z 000000014007b3f0 f i item_cmpfunc.obj
 0001:0007a3f0       ??_EItem_bool_rowready_func2@@UEAAPEAXI@Z 000000014007b3f0 f i item_cmpfunc.obj
 0001:0007a4c0       ??_EItem_func_not@@UEAAPEAXI@Z 000000014007b4c0 f i item_cmpfunc.obj
 0001:0007a4c0       ??_GItem_func_not@@UEAAPEAXI@Z 000000014007b4c0 f i item_cmpfunc.obj
 0001:0007a520       ??_EItem_func_not_all@@UEAAPEAXI@Z 000000014007b520 f i item_cmpfunc.obj
 0001:0007a520       ??_GItem_func_not_all@@UEAAPEAXI@Z 000000014007b520 f i item_cmpfunc.obj
 0001:0007a580       ??_EItem_func_nop_all@@UEAAPEAXI@Z 000000014007b580 f i item_cmpfunc.obj
 0001:0007a580       ??_GItem_func_nop_all@@UEAAPEAXI@Z 000000014007b580 f i item_cmpfunc.obj
 0001:0007a5e0       ??_GItem_func_eq@@UEAAPEAXI@Z 000000014007b5e0 f i item_cmpfunc.obj
 0001:0007a5e0       ??_EItem_func_eq@@UEAAPEAXI@Z 000000014007b5e0 f i item_cmpfunc.obj
 0001:0007a6b0       ??_EItem_func_ge@@UEAAPEAXI@Z 000000014007b6b0 f i item_cmpfunc.obj
 0001:0007a6b0       ??_GItem_func_ge@@UEAAPEAXI@Z 000000014007b6b0 f i item_cmpfunc.obj
 0001:0007a780       ??_GItem_func_gt@@UEAAPEAXI@Z 000000014007b780 f i item_cmpfunc.obj
 0001:0007a780       ??_EItem_func_gt@@UEAAPEAXI@Z 000000014007b780 f i item_cmpfunc.obj
 0001:0007a850       ??_EItem_func_le@@UEAAPEAXI@Z 000000014007b850 f i item_cmpfunc.obj
 0001:0007a850       ??_GItem_func_le@@UEAAPEAXI@Z 000000014007b850 f i item_cmpfunc.obj
 0001:0007a920       ??_GItem_func_lt@@UEAAPEAXI@Z 000000014007b920 f i item_cmpfunc.obj
 0001:0007a920       ??_EItem_func_lt@@UEAAPEAXI@Z 000000014007b920 f i item_cmpfunc.obj
 0001:0007a9f0       ??_GItem_func_ne@@UEAAPEAXI@Z 000000014007b9f0 f i item_cmpfunc.obj
 0001:0007a9f0       ??_EItem_func_ne@@UEAAPEAXI@Z 000000014007b9f0 f i item_cmpfunc.obj
 0001:0007aac0       ?create_item@in_longlong@@UEAAPEAVItem@@XZ 000000014007bac0 f i item_cmpfunc.obj
 0001:0007ab30       ?create_item@in_double@@UEAAPEAVItem@@XZ 000000014007bb30 f i item_cmpfunc.obj
 0001:0007aba0       ??_Ecmp_item_sort_string@@UEAAPEAXI@Z 000000014007bba0 f i item_cmpfunc.obj
 0001:0007aba0       ??_Gcmp_item_sort_string@@UEAAPEAXI@Z 000000014007bba0 f i item_cmpfunc.obj
 0001:0007ac00       ??_Ecmp_item_decimal@@UEAAPEAXI@Z 000000014007bc00 f i item_cmpfunc.obj
 0001:0007ac00       ??_Gcmp_item_decimal@@UEAAPEAXI@Z 000000014007bc00 f i item_cmpfunc.obj
 0001:0007ac20       ??_Gcmp_item_sort_string_in_static@@UEAAPEAXI@Z 000000014007bc20 f i item_cmpfunc.obj
 0001:0007ac20       ??_Ecmp_item_sort_string_in_static@@UEAAPEAXI@Z 000000014007bc20 f i item_cmpfunc.obj
 0001:0007ac80       ??_EItem_func_isnull@@UEAAPEAXI@Z 000000014007bc80 f i item_cmpfunc.obj
 0001:0007ac80       ??_GItem_func_isnull@@UEAAPEAXI@Z 000000014007bc80 f i item_cmpfunc.obj
 0001:0007ace0       ??_EItem_func_isnotnull@@UEAAPEAXI@Z 000000014007bce0 f i item_cmpfunc.obj
 0001:0007ace0       ??_GItem_func_isnotnull@@UEAAPEAXI@Z 000000014007bce0 f i item_cmpfunc.obj
 0001:0007ad40       ??_GItem_cond@@UEAAPEAXI@Z 000000014007bd40 f i item_cmpfunc.obj
 0001:0007ad40       ??_EItem_cond@@UEAAPEAXI@Z 000000014007bd40 f i item_cmpfunc.obj
 0001:0007ada0       ??_GItem_equal@@UEAAPEAXI@Z 000000014007bda0 f i item_cmpfunc.obj
 0001:0007ada0       ??_EItem_equal@@UEAAPEAXI@Z 000000014007bda0 f i item_cmpfunc.obj
 0001:0007ae00       ??0Item_cond_and@@QEAA@PEAVTHD@@PEAV0@@Z 000000014007be00 f i item_cmpfunc.obj
 0001:0007ae60       ??_EItem_cond_and@@UEAAPEAXI@Z 000000014007be60 f i item_cmpfunc.obj
 0001:0007ae60       ??_GItem_cond_and@@UEAAPEAXI@Z 000000014007be60 f i item_cmpfunc.obj
 0001:0007aec0       ??0Item_cond_or@@QEAA@PEAVTHD@@PEAV0@@Z 000000014007bec0 f i item_cmpfunc.obj
 0001:0007aef0       ??_EItem_cond_or@@UEAAPEAXI@Z 000000014007bef0 f i item_cmpfunc.obj
 0001:0007aef0       ??_GItem_cond_or@@UEAAPEAXI@Z 000000014007bef0 f i item_cmpfunc.obj
 0001:0007b100       ?set_cmp_func@Arg_comparator@@QEAAHPEAVItem_bool_func2@@PEAPEAVItem@@1W4Item_result@@@Z 000000014007c100 f   item_cmpfunc.obj
 0001:0007b4b0       ?set_datetime_cmp_func@Arg_comparator@@QEAAXPEAPEAVItem@@0@Z 000000014007c4b0 f   item_cmpfunc.obj
 0001:0007b560       ?fix_length_and_dec@Item_func_between@@UEAAXXZ 000000014007c560 f   item_cmpfunc.obj
 0001:0007b820       ??_Ein_string@@UEAAPEAXI@Z 000000014007c820 f i item_cmpfunc.obj
 0001:0007b820       ??_Gin_string@@UEAAPEAXI@Z 000000014007c820 f i item_cmpfunc.obj
 0001:0007b840       ??_Ein_row@@UEAAPEAXI@Z    000000014007c840 f i item_cmpfunc.obj
 0001:0007b840       ??_Gin_row@@UEAAPEAXI@Z    000000014007c840 f i item_cmpfunc.obj
 0001:0007b860       ??_Gin_decimal@@UEAAPEAXI@Z 000000014007c860 f i item_cmpfunc.obj
 0001:0007b860       ??_Ein_decimal@@UEAAPEAXI@Z 000000014007c860 f i item_cmpfunc.obj
 0001:0007b880       ?fix_length_and_dec@Item_func_in@@UEAAXXZ 000000014007c880 f   item_cmpfunc.obj
 0001:0007c230       ?copy_andor_arguments@Item_cond@@QEAAXPEAVTHD@@PEAV1@@Z 000000014007d230 f   item_cmpfunc.obj
 0001:0007c320       ?fix_fields@Item_cond@@UEAA_NPEAVTHD@@PEAPEAVItem@@@Z 000000014007d320 f   item_cmpfunc.obj
 0001:0007c650       ?walk@Item_cond@@UEAA_NP8Item@@EAA_NPEAE@Z0@Z 000000014007d650 f   item_cmpfunc.obj
 0001:0007c6f0       ?transform@Item_cond@@UEAAPEAVItem@@P82@EAAPEAV2@PEAE@Z0@Z 000000014007d6f0 f   item_cmpfunc.obj
 0001:0007c800       ?compile@Item_cond@@UEAAPEAVItem@@P82@EAA_NPEAPEAE@Z0P82@EAAPEAV2@PEAE@Z2@Z 000000014007d800 f   item_cmpfunc.obj
 0001:0007c990       ?traverse_cond@Item_cond@@UEAAXP6AXPEBVItem@@PEAX@Z1W4traverse_order@2@@Z 000000014007d990 f   item_cmpfunc.obj
 0001:0007ca80       ?split_sum_func@Item_cond@@UEAAXPEAVTHD@@PEAPEAVItem@@AEAV?$List@VItem@@@@@Z 000000014007da80 f   item_cmpfunc.obj
 0001:0007cb10       ?update_used_tables@Item_cond@@UEAAXXZ 000000014007db10 f   item_cmpfunc.obj
 0001:0007cbc0       ?print@Item_cond@@UEAAXPEAVString@@@Z 000000014007dbc0 f   item_cmpfunc.obj
 0001:0007cd60       ?neg_arguments@Item_cond@@QEAAXPEAVTHD@@@Z 000000014007dd60 f   item_cmpfunc.obj
 0001:0007ce80       ?val_int@Item_cond_and@@UEAA_JXZ 000000014007de80 f   item_cmpfunc.obj
 0001:0007cf30       ?val_int@Item_cond_or@@UEAA_JXZ 000000014007df30 f   item_cmpfunc.obj
 0001:0007cfe0       ?val_int@Item_cond_xor@@UEAA_JXZ 000000014007dfe0 f   item_cmpfunc.obj
 0001:0007d080       ?neg_transformer@Item_cond_and@@UEAAPEAVItem@@PEAVTHD@@@Z 000000014007e080 f   item_cmpfunc.obj
 0001:0007d180       ?neg_transformer@Item_cond_or@@UEAAPEAVItem@@PEAVTHD@@@Z 000000014007e180 f   item_cmpfunc.obj
 0001:0007d2a0       ??0Item_equal@@QEAA@PEAV0@@Z 000000014007e2a0 f   item_cmpfunc.obj
 0001:0007d460       ?contains@Item_equal@@QEAA_NPEAVField@@@Z 000000014007e460 f   item_cmpfunc.obj
 0001:0007d4d0       ?sort@Item_equal@@QEAAXP6AHPEAVItem_field@@0PEAX@Z1@Z 000000014007e4d0 f   item_cmpfunc.obj
 0001:0007d5b0       ?fix_fields@Item_equal@@UEAA_NPEAVTHD@@PEAPEAVItem@@@Z 000000014007e5b0 f   item_cmpfunc.obj
 0001:0007d680       ?update_used_tables@Item_equal@@UEAAXXZ 000000014007e680 f   item_cmpfunc.obj
 0001:0007d740       ?val_int@Item_equal@@UEAA_JXZ 000000014007e740 f   item_cmpfunc.obj
 0001:0007d830       ?walk@Item_equal@@UEAA_NP8Item@@EAA_NPEAE@Z0@Z 000000014007e830 f   item_cmpfunc.obj
 0001:0007d8d0       ?transform@Item_equal@@UEAAPEAVItem@@P82@EAAPEAV2@PEAE@Z0@Z 000000014007e8d0 f   item_cmpfunc.obj
 0001:0007d9e0       ?print@Item_equal@@UEAAXPEAVString@@@Z 000000014007e9e0 f   item_cmpfunc.obj
 0001:0007db70       ?remove@?$List_iterator@VItem_field@@@@QEAAXXZ 000000014007eb70 f i item_cmpfunc.obj
 0001:0007dbd0       ?set_cmp_func@Arg_comparator@@QEAAHPEAVItem_bool_func2@@PEAPEAVItem@@1@Z 000000014007ebd0 f i item_cmpfunc.obj
 0001:0007dc60       ?set_cmp_func@Item_bool_func2@@QEAAXXZ 000000014007ec60 f i item_cmpfunc.obj
 0001:0007dd10       ?copy_andor_structure@Item_cond_and@@UEAAPEAVItem@@PEAVTHD@@@Z 000000014007ed10 f i item_cmpfunc.obj
 0001:0007ddd0       ?copy_andor_structure@Item_cond_or@@UEAAPEAVItem@@PEAVTHD@@@Z 000000014007edd0 f i item_cmpfunc.obj
 0001:0007de60       ?fix_length_and_dec@Item_bool_func2@@UEAAXXZ 000000014007ee60 f   item_cmpfunc.obj
 0001:0007e1b0       ?fix_length_and_dec@Item_func_equal@@UEAAXXZ 000000014007f1b0 f   item_cmpfunc.obj
 0001:0007e1e0       ?fix_length_and_dec@Item_func_nullif@@UEAAXXZ 000000014007f1e0 f   item_cmpfunc.obj
 0001:0007e2b0       ?compare_const@Item_equal@@QEAAXPEAVItem@@@Z 000000014007f2b0 f   item_cmpfunc.obj
 0001:0007e450       ?add@Item_equal@@QEAAXPEAVItem@@PEAVItem_field@@@Z 000000014007f450 f   item_cmpfunc.obj
 0001:0007e4b0       ?add@Item_equal@@QEAAXPEAVItem@@@Z 000000014007f4b0 f   item_cmpfunc.obj
 0001:0007e4f0       ?merge@Item_equal@@QEAAXPEAV1@@Z 000000014007f4f0 f   item_cmpfunc.obj
 0001:0007e580       ?update_const@Item_equal@@QEAAXXZ 000000014007f580 f   item_cmpfunc.obj
 0001:0007e650       ?uncacheable@st_lex@@QEAAXE@Z 000000014007f650 f i item_create.obj
 0001:0007e6e0       ?create_func_name_const@@YAPEAVItem@@PEAV1@0@Z 000000014007f6e0 f   item_create.obj
 0001:0007e740       ??0Item_func@@QEAA@PEAVItem@@00@Z 000000014007f740 f i item_create.obj
 0001:0007e820       ??0Item_real_func@@QEAA@PEAVItem@@@Z 000000014007f820 f i item_create.obj
 0001:0007e9d0       ?val_int@Item_real_func@@UEAA_JXZ 000000014007f9d0 f i item_create.obj
 0001:0007e9f0       ?result_type@Item_real_func@@UEBA?AW4Item_result@@XZ 000000014007f9f0 f i item_create.obj
 0001:0007ea00       ?fix_length_and_dec@Item_real_func@@UEAAXXZ 000000014007fa00 f i item_create.obj
 0001:0007ea10       ??0Item_real_func@@QEAA@PEAVItem@@0@Z 000000014007fa10 f i item_create.obj
 0001:0007eac0       ??1Item_real_func@@UEAA@XZ 000000014007fac0 f i item_create.obj
 0001:0007eb20       ??0Item_func_numhybrid@@QEAA@PEAVItem@@@Z 000000014007fb20 f i item_create.obj
 0001:0007ebb0       ?result_type@Item_func_numhybrid@@UEBA?AW4Item_result@@XZ 000000014007fbb0 f i item_create.obj
 0001:0007ebc0       ?is_null@Item_func_numhybrid@@UEAA_NXZ 000000014007fbc0 f i item_create.obj
 0001:0007ebf0       ??0Item_func_numhybrid@@QEAA@PEAVItem@@0@Z 000000014007fbf0 f i item_create.obj
 0001:0007ecb0       ??1Item_func_numhybrid@@UEAA@XZ 000000014007fcb0 f i item_create.obj
 0001:0007ed10       ??0Item_func_num1@@QEAA@PEAVItem@@@Z 000000014007fd10 f i item_create.obj
 0001:0007eda0       ?str_op@Item_func_num1@@UEAAPEAVString@@PEAV2@@Z 000000014007fda0 f i item_create.obj
 0001:0007edb0       ??1Item_func_num1@@UEAA@XZ 000000014007fdb0 f i item_create.obj
 0001:0007ee10       ??0Item_num_op@@QEAA@PEAVItem@@0@Z 000000014007fe10 f i item_create.obj
 0001:0007eed0       ?print@Item_num_op@@UEAAXPEAVString@@@Z 000000014007fed0 f i item_create.obj
 0001:0007eee0       ?str_op@Item_num_op@@UEAAPEAVString@@PEAV2@@Z 000000014007fee0 f i item_create.obj
 0001:0007eef0       ??1Item_num_op@@UEAA@XZ    000000014007fef0 f i item_create.obj
 0001:0007ef50       ??0Item_func_connection_id@@QEAA@XZ 000000014007ff50 f i item_create.obj
 0001:0007efb0       ?func_name@Item_func_connection_id@@UEBAPEBDXZ 000000014007ffb0 f i item_create.obj
 0001:0007efc0       ?val_int@Item_func_connection_id@@UEAA_JXZ 000000014007ffc0 f i item_create.obj
 0001:0007efd0       ??1Item_func_connection_id@@UEAA@XZ 000000014007ffd0 f i item_create.obj
 0001:0007f030       ??0Item_func_signed@@QEAA@PEAVItem@@@Z 0000000140080030 f i item_create.obj
 0001:0007f0c0       ?func_name@Item_func_signed@@UEBAPEBDXZ 00000001400800c0 f i item_create.obj
 0001:0007f0d0       ?fix_length_and_dec@Item_func_signed@@UEAAXXZ 00000001400800d0 f i item_create.obj
 0001:0007f0f0       ?decimal_precision@Item_func_signed@@UEBAIXZ 00000001400800f0 f i item_create.obj
 0001:0007f110       ??1Item_func_signed@@UEAA@XZ 0000000140080110 f i item_create.obj
 0001:0007f170       ??0Item_func_unsigned@@QEAA@PEAVItem@@@Z 0000000140080170 f i item_create.obj
 0001:0007f200       ?func_name@Item_func_unsigned@@UEBAPEBDXZ 0000000140080200 f i item_create.obj
 0001:0007f210       ?fix_length_and_dec@Item_func_unsigned@@UEAAXXZ 0000000140080210 f i item_create.obj
 0001:0007f240       ??1Item_func_unsigned@@UEAA@XZ 0000000140080240 f i item_create.obj
 0001:0007f2a0       ??0Item_decimal_typecast@@QEAA@PEAVItem@@HH@Z 00000001400802a0 f i item_create.obj
 0001:0007f3a0       ?result_type@Item_decimal_typecast@@UEBA?AW4Item_result@@XZ 00000001400803a0 f i item_create.obj
 0001:0007f3b0       ?field_type@Item_decimal_typecast@@UEBA?AW4enum_field_types@@XZ 00000001400803b0 f i item_create.obj
 0001:0007f3c0       ?fix_length_and_dec@Item_decimal_typecast@@UEAAXXZ 00000001400803c0 f i item_create.obj
 0001:0007f3d0       ?func_name@Item_decimal_typecast@@UEBAPEBDXZ 00000001400803d0 f i item_create.obj
 0001:0007f3e0       ??1Item_decimal_typecast@@UEAA@XZ 00000001400803e0 f i item_create.obj
 0001:0007f440       ??0Item_func_additive_op@@QEAA@PEAVItem@@0@Z 0000000140080440 f i item_create.obj
 0001:0007f500       ??1Item_func_additive_op@@UEAA@XZ 0000000140080500 f i item_create.obj
 0001:0007f560       ??0Item_func_minus@@QEAA@PEAVItem@@0@Z 0000000140080560 f i item_create.obj
 0001:0007f620       ?func_name@Item_func_minus@@UEBAPEBDXZ 0000000140080620 f i item_create.obj
 0001:0007f630       ??1Item_func_minus@@UEAA@XZ 0000000140080630 f i item_create.obj
 0001:0007f690       ??0Item_func_div@@QEAA@PEAVItem@@0@Z 0000000140080690 f i item_create.obj
 0001:0007f750       ?int_op@Item_func_div@@UEAA_JXZ 0000000140080750 f i item_create.obj
 0001:0007f760       ?func_name@Item_func_div@@UEBAPEBDXZ 0000000140080760 f i item_create.obj
 0001:0007f770       ??1Item_func_div@@UEAA@XZ  0000000140080770 f i item_create.obj
 0001:0007f7d0       ??0Item_func_mod@@QEAA@PEAVItem@@0@Z 00000001400807d0 f i item_create.obj
 0001:0007f890       ?func_name@Item_func_mod@@UEBAPEBDXZ 0000000140080890 f i item_create.obj
 0001:0007f8a0       ??1Item_func_mod@@UEAA@XZ  00000001400808a0 f i item_create.obj
 0001:0007f900       ??0Item_func_abs@@QEAA@PEAVItem@@@Z 0000000140080900 f i item_create.obj
 0001:0007f990       ?func_name@Item_func_abs@@UEBAPEBDXZ 0000000140080990 f i item_create.obj
 0001:0007f9a0       ??1Item_func_abs@@UEAA@XZ  00000001400809a0 f i item_create.obj
 0001:0007fa00       ??0Item_dec_func@@QEAA@PEAVItem@@@Z 0000000140080a00 f i item_create.obj
 0001:0007fa90       ?fix_length_and_dec@Item_dec_func@@UEAAXXZ 0000000140080a90 f i item_create.obj
 0001:0007fab0       ??0Item_dec_func@@QEAA@PEAVItem@@0@Z 0000000140080ab0 f i item_create.obj
 0001:0007fb60       ??1Item_dec_func@@UEAA@XZ  0000000140080b60 f i item_create.obj
 0001:0007fbc0       ??0Item_func_exp@@QEAA@PEAVItem@@@Z 0000000140080bc0 f i item_create.obj
 0001:0007fc50       ?func_name@Item_func_exp@@UEBAPEBDXZ 0000000140080c50 f i item_create.obj
 0001:0007fc60       ??1Item_func_exp@@UEAA@XZ  0000000140080c60 f i item_create.obj
 0001:0007fcc0       ??0Item_func_ln@@QEAA@PEAVItem@@@Z 0000000140080cc0 f i item_create.obj
 0001:0007fd50       ?func_name@Item_func_ln@@UEBAPEBDXZ 0000000140080d50 f i item_create.obj
 0001:0007fd60       ??1Item_func_ln@@UEAA@XZ   0000000140080d60 f i item_create.obj
 0001:0007fdc0       ??0Item_func_log2@@QEAA@PEAVItem@@@Z 0000000140080dc0 f i item_create.obj
 0001:0007fe50       ?func_name@Item_func_log2@@UEBAPEBDXZ 0000000140080e50 f i item_create.obj
 0001:0007fe60       ??1Item_func_log2@@UEAA@XZ 0000000140080e60 f i item_create.obj
 0001:0007fec0       ??0Item_func_log10@@QEAA@PEAVItem@@@Z 0000000140080ec0 f i item_create.obj
 0001:0007ff50       ?func_name@Item_func_log10@@UEBAPEBDXZ 0000000140080f50 f i item_create.obj
 0001:0007ff60       ??1Item_func_log10@@UEAA@XZ 0000000140080f60 f i item_create.obj
 0001:0007ffc0       ??0Item_func_sqrt@@QEAA@PEAVItem@@@Z 0000000140080fc0 f i item_create.obj
 0001:00080050       ?func_name@Item_func_sqrt@@UEBAPEBDXZ 0000000140081050 f i item_create.obj
 0001:00080060       ??1Item_func_sqrt@@UEAA@XZ 0000000140081060 f i item_create.obj
 0001:000800c0       ??0Item_func_pow@@QEAA@PEAVItem@@0@Z 00000001400810c0 f i item_create.obj
 0001:00080170       ?func_name@Item_func_pow@@UEBAPEBDXZ 0000000140081170 f i item_create.obj
 0001:00080180       ??1Item_func_pow@@UEAA@XZ  0000000140081180 f i item_create.obj
 0001:000801e0       ??0Item_func_acos@@QEAA@PEAVItem@@@Z 00000001400811e0 f i item_create.obj
 0001:00080270       ?func_name@Item_func_acos@@UEBAPEBDXZ 0000000140081270 f i item_create.obj
 0001:00080280       ??1Item_func_acos@@UEAA@XZ 0000000140081280 f i item_create.obj
 0001:000802e0       ??0Item_func_asin@@QEAA@PEAVItem@@@Z 00000001400812e0 f i item_create.obj
 0001:00080370       ?func_name@Item_func_asin@@UEBAPEBDXZ 0000000140081370 f i item_create.obj
 0001:00080380       ??1Item_func_asin@@UEAA@XZ 0000000140081380 f i item_create.obj
 0001:000803e0       ??0Item_func_cos@@QEAA@PEAVItem@@@Z 00000001400813e0 f i item_create.obj
 0001:00080470       ?func_name@Item_func_cos@@UEBAPEBDXZ 0000000140081470 f i item_create.obj
 0001:00080480       ??1Item_func_cos@@UEAA@XZ  0000000140081480 f i item_create.obj
 0001:000804e0       ??0Item_func_sin@@QEAA@PEAVItem@@@Z 00000001400814e0 f i item_create.obj
 0001:00080570       ?func_name@Item_func_sin@@UEBAPEBDXZ 0000000140081570 f i item_create.obj
 0001:00080580       ??1Item_func_sin@@UEAA@XZ  0000000140081580 f i item_create.obj
 0001:000805e0       ??0Item_func_tan@@QEAA@PEAVItem@@@Z 00000001400815e0 f i item_create.obj
 0001:00080670       ?func_name@Item_func_tan@@UEBAPEBDXZ 0000000140081670 f i item_create.obj
 0001:00080680       ??1Item_func_tan@@UEAA@XZ  0000000140081680 f i item_create.obj
 0001:000806e0       ??0Item_func_int_val@@QEAA@PEAVItem@@@Z 00000001400816e0 f i item_create.obj
 0001:00080770       ??1Item_func_int_val@@UEAA@XZ 0000000140081770 f i item_create.obj
 0001:000807d0       ??0Item_func_ceiling@@QEAA@PEAVItem@@@Z 00000001400817d0 f i item_create.obj
 0001:00080860       ?func_name@Item_func_ceiling@@UEBAPEBDXZ 0000000140081860 f i item_create.obj
 0001:00080870       ??1Item_func_ceiling@@UEAA@XZ 0000000140081870 f i item_create.obj
 0001:000808d0       ??0Item_func_floor@@QEAA@PEAVItem@@@Z 00000001400818d0 f i item_create.obj
 0001:00080960       ?func_name@Item_func_floor@@UEBAPEBDXZ 0000000140081960 f i item_create.obj
 0001:00080970       ??1Item_func_floor@@UEAA@XZ 0000000140081970 f i item_create.obj
 0001:000809d0       ??0Item_func_sign@@QEAA@PEAVItem@@@Z 00000001400819d0 f i item_create.obj
 0001:00080a60       ?func_name@Item_func_sign@@UEBAPEBDXZ 0000000140081a60 f i item_create.obj
 0001:00080a70       ??1Item_func_sign@@UEAA@XZ 0000000140081a70 f i item_create.obj
 0001:00080ad0       ??0Item_func_units@@QEAA@PEADPEAVItem@@NN@Z 0000000140081ad0 f i item_create.obj
 0001:00080ba0       ?func_name@Item_func_units@@UEBAPEBDXZ 0000000140081ba0 f i item_create.obj
 0001:00080bb0       ?fix_length_and_dec@Item_func_units@@UEAAXXZ 0000000140081bb0 f i item_create.obj
 0001:00080bc0       ??1Item_func_units@@UEAA@XZ 0000000140081bc0 f i item_create.obj
 0001:00080c20       ??0Item_func_length@@QEAA@PEAVItem@@@Z 0000000140081c20 f i item_create.obj
 0001:00080ce0       ?func_name@Item_func_length@@UEBAPEBDXZ 0000000140081ce0 f i item_create.obj
 0001:00080cf0       ?fix_length_and_dec@Item_func_length@@UEAAXXZ 0000000140081cf0 f i item_create.obj
 0001:00080d00       ??1Item_func_length@@UEAA@XZ 0000000140081d00 f i item_create.obj
 0001:00080d90       ??0Item_func_bit_length@@QEAA@PEAVItem@@@Z 0000000140081d90 f i item_create.obj
 0001:00080e50       ?val_int@Item_func_bit_length@@UEAA_JXZ 0000000140081e50 f i item_create.obj
 0001:00080e70       ?func_name@Item_func_bit_length@@UEBAPEBDXZ 0000000140081e70 f i item_create.obj
 0001:00080e80       ??1Item_func_bit_length@@UEAA@XZ 0000000140081e80 f i item_create.obj
 0001:00080f10       ??0Item_func_char_length@@QEAA@PEAVItem@@@Z 0000000140081f10 f i item_create.obj
 0001:00080fd0       ?func_name@Item_func_char_length@@UEBAPEBDXZ 0000000140081fd0 f i item_create.obj
 0001:00080fe0       ?fix_length_and_dec@Item_func_char_length@@UEAAXXZ 0000000140081fe0 f i item_create.obj
 0001:00080ff0       ??1Item_func_char_length@@UEAA@XZ 0000000140081ff0 f i item_create.obj
 0001:00081080       ??0Item_func_coercibility@@QEAA@PEAVItem@@@Z 0000000140082080 f i item_create.obj
 0001:00081110       ?func_name@Item_func_coercibility@@UEBAPEBDXZ 0000000140082110 f i item_create.obj
 0001:00081120       ?fix_length_and_dec@Item_func_coercibility@@UEAAXXZ 0000000140082120 f i item_create.obj
 0001:00081130       ?not_null_tables@Item_func_coercibility@@UEBA_KXZ 0000000140082130 f i item_create.obj
 0001:00081140       ??1Item_func_coercibility@@UEAA@XZ 0000000140082140 f i item_create.obj
 0001:000811a0       ??0Item_func_locate@@QEAA@PEAVItem@@0@Z 00000001400821a0 f i item_create.obj
 0001:000812e0       ?func_name@Item_func_locate@@UEBAPEBDXZ 00000001400822e0 f i item_create.obj
 0001:000812f0       ??1Item_func_locate@@UEAA@XZ 00000001400822f0 f i item_create.obj
 0001:000813c0       ??0Item_func_ascii@@QEAA@PEAVItem@@@Z 00000001400823c0 f i item_create.obj
 0001:00081480       ?func_name@Item_func_ascii@@UEBAPEBDXZ 0000000140082480 f i item_create.obj
 0001:00081490       ?fix_length_and_dec@Item_func_ascii@@UEAAXXZ 0000000140082490 f i item_create.obj
 0001:000814a0       ??1Item_func_ascii@@UEAA@XZ 00000001400824a0 f i item_create.obj
 0001:00081530       ??0Item_func_ord@@QEAA@PEAVItem@@@Z 0000000140082530 f i item_create.obj
 0001:000815f0       ?func_name@Item_func_ord@@UEBAPEBDXZ 00000001400825f0 f i item_create.obj
 0001:00081600       ??1Item_func_ord@@UEAA@XZ  0000000140082600 f i item_create.obj
 0001:00081690       ??0Item_func_find_in_set@@QEAA@PEAVItem@@0@Z 0000000140082690 f i item_create.obj
 0001:000817d0       ?func_name@Item_func_find_in_set@@UEBAPEBDXZ 00000001400827d0 f i item_create.obj
 0001:000817e0       ??1Item_func_find_in_set@@UEAA@XZ 00000001400827e0 f i item_create.obj
 0001:000818b0       ??0Item_func_bit_count@@QEAA@PEAVItem@@@Z 00000001400828b0 f i item_create.obj
 0001:00081940       ?func_name@Item_func_bit_count@@UEBAPEBDXZ 0000000140082940 f i item_create.obj
 0001:00081950       ?fix_length_and_dec@Item_func_bit_count@@UEAAXXZ 0000000140082950 f i item_create.obj
 0001:00081960       ??1Item_func_bit_count@@UEAA@XZ 0000000140082960 f i item_create.obj
 0001:000819c0       ??0Item_func_sleep@@QEAA@PEAVItem@@@Z 00000001400829c0 f i item_create.obj
 0001:00081a50       ?const_item@Item_func_sleep@@UEBA_NXZ 0000000140082a50 f i item_create.obj
 0001:00081a60       ?func_name@Item_func_sleep@@UEBAPEBDXZ 0000000140082a60 f i item_create.obj
 0001:00081a70       ?update_used_tables@Item_func_sleep@@UEAAXXZ 0000000140082a70 f i item_create.obj
 0001:00081aa0       ??1Item_func_sleep@@UEAA@XZ 0000000140082aa0 f i item_create.obj
 0001:00081b00       ??0Item_func_get_lock@@QEAA@PEAVItem@@0@Z 0000000140082b00 f i item_create.obj
 0001:00081bf0       ?func_name@Item_func_get_lock@@UEBAPEBDXZ 0000000140082bf0 f i item_create.obj
 0001:00081c00       ?fix_length_and_dec@Item_func_get_lock@@UEAAXXZ 0000000140082c00 f i item_create.obj
 0001:00081c10       ??1Item_func_get_lock@@UEAA@XZ 0000000140082c10 f i item_create.obj
 0001:00081ca0       ??0Item_func_release_lock@@QEAA@PEAVItem@@@Z 0000000140082ca0 f i item_create.obj
 0001:00081d60       ?func_name@Item_func_release_lock@@UEBAPEBDXZ 0000000140082d60 f i item_create.obj
 0001:00081d70       ?fix_length_and_dec@Item_func_release_lock@@UEAAXXZ 0000000140082d70 f i item_create.obj
 0001:00081d80       ??1Item_func_release_lock@@UEAA@XZ 0000000140082d80 f i item_create.obj
 0001:00081e10       ??0Item_func_inet_aton@@QEAA@PEAVItem@@@Z 0000000140082e10 f i item_create.obj
 0001:00081ea0       ?func_name@Item_func_inet_aton@@UEBAPEBDXZ 0000000140082ea0 f i item_create.obj
 0001:00081eb0       ?fix_length_and_dec@Item_func_inet_aton@@UEAAXXZ 0000000140082eb0 f i item_create.obj
 0001:00081ed0       ??1Item_func_inet_aton@@UEAA@XZ 0000000140082ed0 f i item_create.obj
 0001:00081f30       ??0Item_func_is_free_lock@@QEAA@PEAVItem@@@Z 0000000140082f30 f i item_create.obj
 0001:00081ff0       ?func_name@Item_func_is_free_lock@@UEBAPEBDXZ 0000000140082ff0 f i item_create.obj
 0001:00082000       ?fix_length_and_dec@Item_func_is_free_lock@@UEAAXXZ 0000000140083000 f i item_create.obj
 0001:00082020       ??1Item_func_is_free_lock@@UEAA@XZ 0000000140083020 f i item_create.obj
 0001:000820b0       ??0Item_func_is_used_lock@@QEAA@PEAVItem@@@Z 00000001400830b0 f i item_create.obj
 0001:00082170       ?func_name@Item_func_is_used_lock@@UEBAPEBDXZ 0000000140083170 f i item_create.obj
 0001:00082180       ?fix_length_and_dec@Item_func_is_used_lock@@UEAAXXZ 0000000140083180 f i item_create.obj
 0001:000821a0       ??1Item_func_is_used_lock@@UEAA@XZ 00000001400831a0 f i item_create.obj
 0001:00082230       ??0Item_func_found_rows@@QEAA@XZ 0000000140083230 f i item_create.obj
 0001:00082290       ?func_name@Item_func_found_rows@@UEBAPEBDXZ 0000000140083290 f i item_create.obj
 0001:000822a0       ?fix_length_and_dec@Item_func_found_rows@@UEAAXXZ 00000001400832a0 f i item_create.obj
 0001:000822b0       ??1Item_func_found_rows@@UEAA@XZ 00000001400832b0 f i item_create.obj
 0001:00082310       ??0Item_func_strcmp@@QEAA@PEAVItem@@0@Z 0000000140083310 f i item_create.obj
 0001:00082340       ?select_optimize@Item_func_strcmp@@UEBA?AW4optimize_type@Item_func@@XZ 0000000140083340 f i item_create.obj
 0001:00082350       ?func_name@Item_func_strcmp@@UEBAPEBDXZ 0000000140083350 f i item_create.obj
 0001:00082360       ?print@Item_func_strcmp@@UEAAXPEAVString@@@Z 0000000140083360 f i item_create.obj
 0001:00082370       ??1Item_func_strcmp@@UEAA@XZ 0000000140083370 f i item_create.obj
 0001:00082440       ??0Item_func_coalesce@@IEAA@PEAVItem@@0@Z 0000000140083440 f i item_create.obj
 0001:00082500       ?find_num_type@Item_func_coalesce@@UEAAXXZ 0000000140083500 f i item_create.obj
 0001:00082510       ?result_type@Item_func_coalesce@@UEBA?AW4Item_result@@XZ 0000000140083510 f i item_create.obj
 0001:00082520       ?func_name@Item_func_coalesce@@UEBAPEBDXZ 0000000140083520 f i item_create.obj
 0001:00082530       ?not_null_tables@Item_func_coalesce@@UEBA_KXZ 0000000140083530 f i item_create.obj
 0001:00082540       ?field_type@Item_func_coalesce@@UEBA?AW4enum_field_types@@XZ 0000000140083540 f i item_create.obj
 0001:00082550       ??1Item_func_coalesce@@UEAA@XZ 0000000140083550 f i item_create.obj
 0001:000825b0       ??0Item_func_ifnull@@QEAA@PEAVItem@@0@Z 00000001400835b0 f i item_create.obj
 0001:00082670       ?func_name@Item_func_ifnull@@UEBAPEBDXZ 0000000140083670 f i item_create.obj
 0001:00082680       ??1Item_func_ifnull@@UEAA@XZ 0000000140083680 f i item_create.obj
 0001:000826e0       ??0Item_func_nullif@@QEAA@PEAVItem@@0@Z 00000001400836e0 f i item_create.obj
 0001:00082720       ?result_type@Item_func_nullif@@UEBA?AW4Item_result@@XZ 0000000140083720 f i item_create.obj
 0001:00082730       ?decimal_precision@Item_func_nullif@@UEBAIXZ 0000000140083730 f i item_create.obj
 0001:00082750       ?func_name@Item_func_nullif@@UEBAPEBDXZ 0000000140083750 f i item_create.obj
 0001:00082760       ?print@Item_func_nullif@@UEAAXPEAVString@@@Z 0000000140083760 f i item_create.obj
 0001:00082770       ?not_null_tables@Item_func_nullif@@UEBA_KXZ 0000000140083770 f i item_create.obj
 0001:00082780       ??1Item_func_nullif@@UEAA@XZ 0000000140083780 f i item_create.obj
 0001:00082850       ??0Item_str_func@@QEAA@XZ  0000000140083850 f i item_create.obj
 0001:000828b0       ??0Item_str_func@@QEAA@PEAVItem@@0@Z 00000001400838b0 f i item_create.obj
 0001:00082970       ??0Item_str_func@@QEAA@PEAVItem@@00@Z 0000000140083970 f i item_create.obj
 0001:00082a60       ??0Item_func_md5@@QEAA@PEAVItem@@@Z 0000000140083a60 f i item_create.obj
 0001:00082b40       ?func_name@Item_func_md5@@UEBAPEBDXZ 0000000140083b40 f i item_create.obj
 0001:00082b50       ??1Item_func_md5@@UEAA@XZ  0000000140083b50 f i item_create.obj
 0001:00082be0       ??0Item_func_sha@@QEAA@PEAVItem@@@Z 0000000140083be0 f i item_create.obj
 0001:00082c90       ?func_name@Item_func_sha@@UEBAPEBDXZ 0000000140083c90 f i item_create.obj
 0001:00082ca0       ??1Item_func_sha@@UEAA@XZ  0000000140083ca0 f i item_create.obj
 0001:00082d00       ??0Item_func_aes_encrypt@@QEAA@PEAVItem@@0@Z 0000000140083d00 f i item_create.obj
 0001:00082dc0       ?func_name@Item_func_aes_encrypt@@UEBAPEBDXZ 0000000140083dc0 f i item_create.obj
 0001:00082dd0       ??1Item_func_aes_encrypt@@UEAA@XZ 0000000140083dd0 f i item_create.obj
 0001:00082e30       ??0Item_func_aes_decrypt@@QEAA@PEAVItem@@0@Z 0000000140083e30 f i item_create.obj
 0001:00082ef0       ?func_name@Item_func_aes_decrypt@@UEBAPEBDXZ 0000000140083ef0 f i item_create.obj
 0001:00082f00       ??1Item_func_aes_decrypt@@UEAA@XZ 0000000140083f00 f i item_create.obj
 0001:00082f60       ??0Item_func_reverse@@QEAA@PEAVItem@@@Z 0000000140083f60 f i item_create.obj
 0001:00083020       ?func_name@Item_func_reverse@@UEBAPEBDXZ 0000000140084020 f i item_create.obj
 0001:00083030       ??1Item_func_reverse@@UEAA@XZ 0000000140084030 f i item_create.obj
 0001:000830c0       ??0Item_str_conv@@QEAA@PEAVItem@@@Z 00000001400840c0 f i item_create.obj
 0001:00083180       ??1Item_str_conv@@UEAA@XZ  0000000140084180 f i item_create.obj
 0001:00083210       ??0Item_func_lcase@@QEAA@PEAVItem@@@Z 0000000140084210 f i item_create.obj
 0001:000832d0       ?func_name@Item_func_lcase@@UEBAPEBDXZ 00000001400842d0 f i item_create.obj
 0001:000832e0       ?fix_length_and_dec@Item_func_lcase@@UEAAXXZ 00000001400842e0 f i item_create.obj
 0001:00083350       ??1Item_func_lcase@@UEAA@XZ 0000000140084350 f i item_create.obj
 0001:000833e0       ??0Item_func_ucase@@QEAA@PEAVItem@@@Z 00000001400843e0 f i item_create.obj
 0001:000834a0       ?func_name@Item_func_ucase@@UEBAPEBDXZ 00000001400844a0 f i item_create.obj
 0001:000834b0       ?fix_length_and_dec@Item_func_ucase@@UEAAXXZ 00000001400844b0 f i item_create.obj
 0001:00083520       ??1Item_func_ucase@@UEAA@XZ 0000000140084520 f i item_create.obj
 0001:000835b0       ??0Item_func_trim@@QEAA@PEAVItem@@@Z 00000001400845b0 f i item_create.obj
 0001:000836a0       ?func_name@Item_func_trim@@UEBAPEBDXZ 00000001400846a0 f i item_create.obj
 0001:000836b0       ?mode_name@Item_func_trim@@UEBAPEBDXZ 00000001400846b0 f i item_create.obj
 0001:000836c0       ??1Item_func_trim@@UEAA@XZ 00000001400846c0 f i item_create.obj
 0001:00083790       ??0Item_func_ltrim@@QEAA@PEAVItem@@@Z 0000000140084790 f i item_create.obj
 0001:00083880       ?func_name@Item_func_ltrim@@UEBAPEBDXZ 0000000140084880 f i item_create.obj
 0001:00083890       ?mode_name@Item_func_ltrim@@UEBAPEBDXZ 0000000140084890 f i item_create.obj
 0001:000838a0       ??1Item_func_ltrim@@UEAA@XZ 00000001400848a0 f i item_create.obj
 0001:00083970       ??0Item_func_rtrim@@QEAA@PEAVItem@@@Z 0000000140084970 f i item_create.obj
 0001:00083a60       ?func_name@Item_func_rtrim@@UEBAPEBDXZ 0000000140084a60 f i item_create.obj
 0001:00083a70       ?mode_name@Item_func_rtrim@@UEBAPEBDXZ 0000000140084a70 f i item_create.obj
 0001:00083a80       ??1Item_func_rtrim@@UEAA@XZ 0000000140084a80 f i item_create.obj
 0001:00083b50       ??0Item_func_soundex@@QEAA@PEAVItem@@@Z 0000000140084b50 f i item_create.obj
 0001:00083c10       ?func_name@Item_func_soundex@@UEBAPEBDXZ 0000000140084c10 f i item_create.obj
 0001:00083c20       ??1Item_func_soundex@@UEAA@XZ 0000000140084c20 f i item_create.obj
 0001:00083cb0       ??0Item_func_repeat@@QEAA@PEAVItem@@0@Z 0000000140084cb0 f i item_create.obj
 0001:00083da0       ?func_name@Item_func_repeat@@UEBAPEBDXZ 0000000140084da0 f i item_create.obj
 0001:00083db0       ??1Item_func_repeat@@UEAA@XZ 0000000140084db0 f i item_create.obj
 0001:00083e40       ??0Item_func_rpad@@QEAA@PEAVItem@@00@Z 0000000140084e40 f i item_create.obj
 0001:00083fa0       ?func_name@Item_func_rpad@@UEBAPEBDXZ 0000000140084fa0 f i item_create.obj
 0001:00083fb0       ??1Item_func_rpad@@UEAA@XZ 0000000140084fb0 f i item_create.obj
 0001:00084080       ??0Item_func_lpad@@QEAA@PEAVItem@@00@Z 0000000140085080 f i item_create.obj
 0001:000841e0       ?func_name@Item_func_lpad@@UEBAPEBDXZ 00000001400851e0 f i item_create.obj
 0001:000841f0       ??1Item_func_lpad@@UEAA@XZ 00000001400851f0 f i item_create.obj
 0001:000842c0       ??0Item_func_conv@@QEAA@PEAVItem@@00@Z 00000001400852c0 f i item_create.obj
 0001:000843b0       ?func_name@Item_func_conv@@UEBAPEBDXZ 00000001400853b0 f i item_create.obj
 0001:000843c0       ?fix_length_and_dec@Item_func_conv@@UEAAXXZ 00000001400853c0 f i item_create.obj
 0001:00084410       ??1Item_func_conv@@UEAA@XZ 0000000140085410 f i item_create.obj
 0001:00084470       ??0Item_func_hex@@QEAA@PEAVItem@@@Z 0000000140085470 f i item_create.obj
 0001:00084530       ?func_name@Item_func_hex@@UEBAPEBDXZ 0000000140085530 f i item_create.obj
 0001:00084540       ?fix_length_and_dec@Item_func_hex@@UEAAXXZ 0000000140085540 f i item_create.obj
 0001:000845a0       ??1Item_func_hex@@UEAA@XZ  00000001400855a0 f i item_create.obj
 0001:00084630       ??0Item_func_unhex@@QEAA@PEAVItem@@@Z 0000000140085630 f i item_create.obj
 0001:000846f0       ?func_name@Item_func_unhex@@UEBAPEBDXZ 00000001400856f0 f i item_create.obj
 0001:00084700       ?fix_length_and_dec@Item_func_unhex@@UEAAXXZ 0000000140085700 f i item_create.obj
 0001:00084750       ??1Item_func_unhex@@UEAA@XZ 0000000140085750 f i item_create.obj
 0001:000847e0       ??0Item_func_binary@@QEAA@PEAVItem@@@Z 00000001400857e0 f i item_create.obj
 0001:00084870       ?val_str@Item_func_binary@@UEAAPEAVString@@PEAV2@@Z 0000000140085870 f i item_create.obj
 0001:000848c0       ?fix_length_and_dec@Item_func_binary@@UEAAXXZ 00000001400858c0 f i item_create.obj
 0001:00084900       ?func_name@Item_func_binary@@UEBAPEBDXZ 0000000140085900 f i item_create.obj
 0001:00084910       ??1Item_func_binary@@UEAA@XZ 0000000140085910 f i item_create.obj
 0001:00084970       ??0Item_load_file@@QEAA@PEAVItem@@@Z 0000000140085970 f i item_create.obj
 0001:00084a30       ?func_name@Item_load_file@@UEBAPEBDXZ 0000000140085a30 f i item_create.obj
 0001:00084a40       ?fix_length_and_dec@Item_load_file@@UEAAXXZ 0000000140085a40 f i item_create.obj
 0001:00084a80       ??1Item_load_file@@UEAA@XZ 0000000140085a80 f i item_create.obj
 0001:00084b10       ??0Item_func_inet_ntoa@@QEAA@PEAVItem@@@Z 0000000140085b10 f i item_create.obj
 0001:00084ba0       ?func_name@Item_func_inet_ntoa@@UEBAPEBDXZ 0000000140085ba0 f i item_create.obj
 0001:00084bb0       ?fix_length_and_dec@Item_func_inet_ntoa@@UEAAXXZ 0000000140085bb0 f i item_create.obj
 0001:00084bd0       ??1Item_func_inet_ntoa@@UEAA@XZ 0000000140085bd0 f i item_create.obj
 0001:00084c30       ??0Item_func_quote@@QEAA@PEAVItem@@@Z 0000000140085c30 f i item_create.obj
 0001:00084cf0       ?func_name@Item_func_quote@@UEBAPEBDXZ 0000000140085cf0 f i item_create.obj
 0001:00084d00       ?fix_length_and_dec@Item_func_quote@@UEAAXXZ 0000000140085d00 f i item_create.obj
 0001:00084d40       ??1Item_func_quote@@UEAA@XZ 0000000140085d40 f i item_create.obj
 0001:00084dd0       ??0Item_func_crc32@@QEAA@PEAVItem@@@Z 0000000140085dd0 f i item_create.obj
 0001:00084ea0       ?func_name@Item_func_crc32@@UEBAPEBDXZ 0000000140085ea0 f i item_create.obj
 0001:00084eb0       ?fix_length_and_dec@Item_func_crc32@@UEAAXXZ 0000000140085eb0 f i item_create.obj
 0001:00084ec0       ??1Item_func_crc32@@UEAA@XZ 0000000140085ec0 f i item_create.obj
 0001:00084f50       ??0Item_func_uncompressed_length@@QEAA@PEAVItem@@@Z 0000000140085f50 f i item_create.obj
 0001:00085010       ?func_name@Item_func_uncompressed_length@@UEBAPEBDXZ 0000000140086010 f i item_create.obj
 0001:00085020       ?fix_length_and_dec@Item_func_uncompressed_length@@UEAAXXZ 0000000140086020 f i item_create.obj
 0001:00085030       ??1Item_func_uncompressed_length@@UEAA@XZ 0000000140086030 f i item_create.obj
 0001:000850c0       ??0Item_func_compress@@QEAA@PEAVItem@@@Z 00000001400860c0 f i item_create.obj
 0001:00085180       ?fix_length_and_dec@Item_func_compress@@UEAAXXZ 0000000140086180 f i item_create.obj
 0001:000851b0       ?func_name@Item_func_compress@@UEBAPEBDXZ 00000001400861b0 f i item_create.obj
 0001:000851c0       ??1Item_func_compress@@UEAA@XZ 00000001400861c0 f i item_create.obj
 0001:00085250       ??0Item_func_uncompress@@QEAA@PEAVItem@@@Z 0000000140086250 f i item_create.obj
 0001:00085310       ?fix_length_and_dec@Item_func_uncompress@@UEAAXXZ 0000000140086310 f i item_create.obj
 0001:00085320       ?func_name@Item_func_uncompress@@UEBAPEBDXZ 0000000140086320 f i item_create.obj
 0001:00085330       ??1Item_func_uncompress@@UEAA@XZ 0000000140086330 f i item_create.obj
 0001:000853c0       ??0Item_func_uuid@@QEAA@XZ 00000001400863c0 f i item_create.obj
 0001:00085420       ?fix_length_and_dec@Item_func_uuid@@UEAAXXZ 0000000140086420 f i item_create.obj
 0001:00085470       ?func_name@Item_func_uuid@@UEBAPEBDXZ 0000000140086470 f i item_create.obj
 0001:00085480       ??1Item_func_uuid@@UEAA@XZ 0000000140086480 f i item_create.obj
 0001:000854e0       ??0Item_geometry_func@@QEAA@PEAVItem@@@Z 00000001400864e0 f i item_create.obj
 0001:00085570       ?field_type@Item_geometry_func@@UEBA?AW4enum_field_types@@XZ 0000000140086570 f i item_create.obj
 0001:00085580       ?is_null@Item_geometry_func@@UEAA_NXZ 0000000140086580 f i item_create.obj
 0001:000855b0       ??0Item_geometry_func@@QEAA@PEAVItem@@0@Z 00000001400865b0 f i item_create.obj
 0001:00085670       ??1Item_geometry_func@@UEAA@XZ 0000000140086670 f i item_create.obj
 0001:000856d0       ??0Item_func_as_wkt@@QEAA@PEAVItem@@@Z 00000001400866d0 f i item_create.obj
 0001:00085760       ?func_name@Item_func_as_wkt@@UEBAPEBDXZ 0000000140086760 f i item_create.obj
 0001:00085770       ??1Item_func_as_wkt@@UEAA@XZ 0000000140086770 f i item_create.obj
 0001:000857d0       ??0Item_func_as_wkb@@QEAA@PEAVItem@@@Z 00000001400867d0 f i item_create.obj
 0001:00085860       ?func_name@Item_func_as_wkb@@UEBAPEBDXZ 0000000140086860 f i item_create.obj
 0001:00085870       ?field_type@Item_func_as_wkb@@UEBA?AW4enum_field_types@@XZ 0000000140086870 f i item_create.obj
 0001:00085880       ??1Item_func_as_wkb@@UEAA@XZ 0000000140086880 f i item_create.obj
 0001:000858e0       ??0Item_func_geometry_type@@QEAA@PEAVItem@@@Z 00000001400868e0 f i item_create.obj
 0001:00085970       ?func_name@Item_func_geometry_type@@UEBAPEBDXZ 0000000140086970 f i item_create.obj
 0001:00085980       ?fix_length_and_dec@Item_func_geometry_type@@UEAAXXZ 0000000140086980 f i item_create.obj
 0001:00085990       ??1Item_func_geometry_type@@UEAA@XZ 0000000140086990 f i item_create.obj
 0001:000859f0       ??0Item_func_centroid@@QEAA@PEAVItem@@@Z 00000001400869f0 f i item_create.obj
 0001:00085a80       ?func_name@Item_func_centroid@@UEBAPEBDXZ 0000000140086a80 f i item_create.obj
 0001:00085a90       ??1Item_func_centroid@@UEAA@XZ 0000000140086a90 f i item_create.obj
 0001:00085af0       ??0Item_func_envelope@@QEAA@PEAVItem@@@Z 0000000140086af0 f i item_create.obj
 0001:00085b80       ?func_name@Item_func_envelope@@UEBAPEBDXZ 0000000140086b80 f i item_create.obj
 0001:00085b90       ??1Item_func_envelope@@UEAA@XZ 0000000140086b90 f i item_create.obj
 0001:00085bf0       ??0Item_func_point@@QEAA@PEAVItem@@0@Z 0000000140086bf0 f i item_create.obj
 0001:00085cb0       ?func_name@Item_func_point@@UEBAPEBDXZ 0000000140086cb0 f i item_create.obj
 0001:00085cc0       ??1Item_func_point@@UEAA@XZ 0000000140086cc0 f i item_create.obj
 0001:00085d20       ??0Item_func_spatial_decomp@@QEAA@PEAVItem@@W4Functype@Item_func@@@Z 0000000140086d20 f i item_create.obj
 0001:00085dc0       ?func_name@Item_func_spatial_decomp@@UEBAPEBDXZ 0000000140086dc0 f i item_create.obj
 0001:00085e10       ??1Item_func_spatial_decomp@@UEAA@XZ 0000000140086e10 f i item_create.obj
 0001:00085e70       ??0Item_func_spatial_decomp_n@@QEAA@PEAVItem@@0W4Functype@Item_func@@@Z 0000000140086e70 f i item_create.obj
 0001:00085f40       ?func_name@Item_func_spatial_decomp_n@@UEBAPEBDXZ 0000000140086f40 f i item_create.obj
 0001:00085f90       ??1Item_func_spatial_decomp_n@@UEAA@XZ 0000000140086f90 f i item_create.obj
 0001:00085ff0       ??0Item_func_spatial_rel@@QEAA@PEAVItem@@0W4Functype@Item_func@@@Z 0000000140086ff0 f i item_create.obj
 0001:00086030       ?functype@Item_func_spatial_rel@@UEBA?AW4Functype@Item_func@@XZ 0000000140087030 f i item_create.obj
 0001:00086060       ?rev_functype@Item_func_spatial_rel@@UEBA?AW4Functype@Item_func@@XZ 0000000140087060 f i item_create.obj
 0001:00086070       ?func_name@Item_func_spatial_rel@@UEBAPEBDXZ 0000000140087070 f i item_create.obj
 0001:00086120       ?print@Item_func_spatial_rel@@UEAAXPEAVString@@@Z 0000000140087120 f i item_create.obj
 0001:00086130       ?fix_length_and_dec@Item_func_spatial_rel@@UEAAXXZ 0000000140087130 f i item_create.obj
 0001:00086140       ?is_null@Item_func_spatial_rel@@UEAA_NXZ 0000000140087140 f i item_create.obj
 0001:00086170       ??1Item_func_spatial_rel@@UEAA@XZ 0000000140087170 f i item_create.obj
 0001:00086240       ??0Item_func_isempty@@QEAA@PEAVItem@@@Z 0000000140087240 f i item_create.obj
 0001:000862d0       ?select_optimize@Item_func_isempty@@UEBA?AW4optimize_type@Item_func@@XZ 00000001400872d0 f i item_create.obj
 0001:000862e0       ?func_name@Item_func_isempty@@UEBAPEBDXZ 00000001400872e0 f i item_create.obj
 0001:000862f0       ?fix_length_and_dec@Item_func_isempty@@UEAAXXZ 00000001400872f0 f i item_create.obj
 0001:00086300       ??1Item_func_isempty@@UEAA@XZ 0000000140087300 f i item_create.obj
 0001:00086360       ??0Item_func_issimple@@QEAA@PEAVItem@@@Z 0000000140087360 f i item_create.obj
 0001:000863f0       ?select_optimize@Item_func_issimple@@UEBA?AW4optimize_type@Item_func@@XZ 00000001400873f0 f i item_create.obj
 0001:00086400       ?func_name@Item_func_issimple@@UEBAPEBDXZ 0000000140087400 f i item_create.obj
 0001:00086410       ?fix_length_and_dec@Item_func_issimple@@UEAAXXZ 0000000140087410 f i item_create.obj
 0001:00086420       ??1Item_func_issimple@@UEAA@XZ 0000000140087420 f i item_create.obj
 0001:00086480       ??0Item_func_isclosed@@QEAA@PEAVItem@@@Z 0000000140087480 f i item_create.obj
 0001:00086510       ?select_optimize@Item_func_isclosed@@UEBA?AW4optimize_type@Item_func@@XZ 0000000140087510 f i item_create.obj
 0001:00086520       ?func_name@Item_func_isclosed@@UEBAPEBDXZ 0000000140087520 f i item_create.obj
 0001:00086530       ?fix_length_and_dec@Item_func_isclosed@@UEAAXXZ 0000000140087530 f i item_create.obj
 0001:00086540       ??1Item_func_isclosed@@UEAA@XZ 0000000140087540 f i item_create.obj
 0001:000865a0       ??0Item_func_dimension@@QEAA@PEAVItem@@@Z 00000001400875a0 f i item_create.obj
 0001:00086660       ?func_name@Item_func_dimension@@UEBAPEBDXZ 0000000140087660 f i item_create.obj
 0001:00086670       ?fix_length_and_dec@Item_func_dimension@@UEAAXXZ 0000000140087670 f i item_create.obj
 0001:00086680       ??1Item_func_dimension@@UEAA@XZ 0000000140087680 f i item_create.obj
 0001:00086710       ??0Item_func_x@@QEAA@PEAVItem@@@Z 0000000140087710 f i item_create.obj
 0001:000867d0       ?func_name@Item_func_x@@UEBAPEBDXZ 00000001400877d0 f i item_create.obj
 0001:000867e0       ?fix_length_and_dec@Item_func_x@@UEAAXXZ 00000001400877e0 f i item_create.obj
 0001:00086800       ??1Item_func_x@@UEAA@XZ    0000000140087800 f i item_create.obj
 0001:00086890       ??0Item_func_y@@QEAA@PEAVItem@@@Z 0000000140087890 f i item_create.obj
 0001:00086950       ?func_name@Item_func_y@@UEBAPEBDXZ 0000000140087950 f i item_create.obj
 0001:00086960       ?fix_length_and_dec@Item_func_y@@UEAAXXZ 0000000140087960 f i item_create.obj
 0001:00086980       ??1Item_func_y@@UEAA@XZ    0000000140087980 f i item_create.obj
 0001:00086a10       ??0Item_func_numgeometries@@QEAA@PEAVItem@@@Z 0000000140087a10 f i item_create.obj
 0001:00086ad0       ?func_name@Item_func_numgeometries@@UEBAPEBDXZ 0000000140087ad0 f i item_create.obj
 0001:00086ae0       ?fix_length_and_dec@Item_func_numgeometries@@UEAAXXZ 0000000140087ae0 f i item_create.obj
 0001:00086af0       ??1Item_func_numgeometries@@UEAA@XZ 0000000140087af0 f i item_create.obj
 0001:00086b80       ??0Item_func_numinteriorring@@QEAA@PEAVItem@@@Z 0000000140087b80 f i item_create.obj
 0001:00086c40       ?func_name@Item_func_numinteriorring@@UEBAPEBDXZ 0000000140087c40 f i item_create.obj
 0001:00086c50       ?fix_length_and_dec@Item_func_numinteriorring@@UEAAXXZ 0000000140087c50 f i item_create.obj
 0001:00086c60       ??1Item_func_numinteriorring@@UEAA@XZ 0000000140087c60 f i item_create.obj
 0001:00086cf0       ??0Item_func_numpoints@@QEAA@PEAVItem@@@Z 0000000140087cf0 f i item_create.obj
 0001:00086db0       ?func_name@Item_func_numpoints@@UEBAPEBDXZ 0000000140087db0 f i item_create.obj
 0001:00086dc0       ?fix_length_and_dec@Item_func_numpoints@@UEAAXXZ 0000000140087dc0 f i item_create.obj
 0001:00086dd0       ??1Item_func_numpoints@@UEAA@XZ 0000000140087dd0 f i item_create.obj
 0001:00086e60       ??0Item_func_area@@QEAA@PEAVItem@@@Z 0000000140087e60 f i item_create.obj
 0001:00086f20       ?func_name@Item_func_area@@UEBAPEBDXZ 0000000140087f20 f i item_create.obj
 0001:00086f30       ?fix_length_and_dec@Item_func_area@@UEAAXXZ 0000000140087f30 f i item_create.obj
 0001:00086f50       ??1Item_func_area@@UEAA@XZ 0000000140087f50 f i item_create.obj
 0001:00086fe0       ??0Item_func_glength@@QEAA@PEAVItem@@@Z 0000000140087fe0 f i item_create.obj
 0001:000870a0       ?func_name@Item_func_glength@@UEBAPEBDXZ 00000001400880a0 f i item_create.obj
 0001:000870b0       ?fix_length_and_dec@Item_func_glength@@UEAAXXZ 00000001400880b0 f i item_create.obj
 0001:000870d0       ??1Item_func_glength@@UEAA@XZ 00000001400880d0 f i item_create.obj
 0001:00087160       ??0Item_func_srid@@QEAA@PEAVItem@@@Z 0000000140088160 f i item_create.obj
 0001:00087220       ?func_name@Item_func_srid@@UEBAPEBDXZ 0000000140088220 f i item_create.obj
 0001:00087230       ?fix_length_and_dec@Item_func_srid@@UEAAXXZ 0000000140088230 f i item_create.obj
 0001:00087240       ??1Item_func_srid@@UEAA@XZ 0000000140088240 f i item_create.obj
 0001:000872d0       ??0Item_func_period_add@@QEAA@PEAVItem@@0@Z 00000001400882d0 f i item_create.obj
 0001:00087390       ?func_name@Item_func_period_add@@UEBAPEBDXZ 0000000140088390 f i item_create.obj
 0001:000873a0       ?fix_length_and_dec@Item_func_period_add@@UEAAXXZ 00000001400883a0 f i item_create.obj
 0001:000873b0       ??1Item_func_period_add@@UEAA@XZ 00000001400883b0 f i item_create.obj
 0001:00087410       ??0Item_func_period_diff@@QEAA@PEAVItem@@0@Z 0000000140088410 f i item_create.obj
 0001:000874d0       ?func_name@Item_func_period_diff@@UEBAPEBDXZ 00000001400884d0 f i item_create.obj
 0001:000874e0       ?fix_length_and_dec@Item_func_period_diff@@UEAAXXZ 00000001400884e0 f i item_create.obj
 0001:000874f0       ??1Item_func_period_diff@@UEAA@XZ 00000001400884f0 f i item_create.obj
 0001:00087550       ??0Item_func_to_days@@QEAA@PEAVItem@@@Z 0000000140088550 f i item_create.obj
 0001:000875e0       ?func_name@Item_func_to_days@@UEBAPEBDXZ 00000001400885e0 f i item_create.obj
 0001:000875f0       ?fix_length_and_dec@Item_func_to_days@@UEAAXXZ 00000001400885f0 f i item_create.obj
 0001:00087610       ??1Item_func_to_days@@UEAA@XZ 0000000140088610 f i item_create.obj
 0001:00087670       ??0Item_func_dayofmonth@@QEAA@PEAVItem@@@Z 0000000140088670 f i item_create.obj
 0001:00087700       ?func_name@Item_func_dayofmonth@@UEBAPEBDXZ 0000000140088700 f i item_create.obj
 0001:00087710       ?fix_length_and_dec@Item_func_dayofmonth@@UEAAXXZ 0000000140088710 f i item_create.obj
 0001:00087730       ??1Item_func_dayofmonth@@UEAA@XZ 0000000140088730 f i item_create.obj
 0001:00087790       ??0Item_func_month@@QEAA@PEAVItem@@@Z 0000000140088790 f i item_create.obj
 0001:00087820       ?val_real@Item_func_month@@UEAANXZ 0000000140088820 f i item_create.obj
 0001:00087840       ?val_str@Item_func_month@@UEAAPEAVString@@PEAV2@@Z 0000000140088840 f i item_create.obj
 0001:00087890       ?func_name@Item_func_month@@UEBAPEBDXZ 0000000140088890 f i item_create.obj
 0001:000878a0       ?result_type@Item_func_month@@UEBA?AW4Item_result@@XZ 00000001400888a0 f i item_create.obj
 0001:000878b0       ?fix_length_and_dec@Item_func_month@@UEAAXXZ 00000001400888b0 f i item_create.obj
 0001:000878f0       ??1Item_func_month@@UEAA@XZ 00000001400888f0 f i item_create.obj
 0001:00087950       ??0Item_func_monthname@@QEAA@PEAVItem@@@Z 0000000140088950 f i item_create.obj
 0001:000879e0       ?func_name@Item_func_monthname@@UEBAPEBDXZ 00000001400889e0 f i item_create.obj
 0001:000879f0       ?result_type@Item_func_monthname@@UEBA?AW4Item_result@@XZ 00000001400889f0 f i item_create.obj
 0001:00087a00       ??1Item_func_monthname@@UEAA@XZ 0000000140088a00 f i item_create.obj
 0001:00087a60       ??0Item_func_dayofyear@@QEAA@PEAVItem@@@Z 0000000140088a60 f i item_create.obj
 0001:00087af0       ?func_name@Item_func_dayofyear@@UEBAPEBDXZ 0000000140088af0 f i item_create.obj
 0001:00087b00       ?fix_length_and_dec@Item_func_dayofyear@@UEAAXXZ 0000000140088b00 f i item_create.obj
 0001:00087b20       ??1Item_func_dayofyear@@UEAA@XZ 0000000140088b20 f i item_create.obj
 0001:00087b80       ??0Item_func_week@@QEAA@PEAVItem@@0@Z 0000000140088b80 f i item_create.obj
 0001:00087c40       ?func_name@Item_func_week@@UEBAPEBDXZ 0000000140088c40 f i item_create.obj
 0001:00087c50       ?fix_length_and_dec@Item_func_week@@UEAAXXZ 0000000140088c50 f i item_create.obj
 0001:00087c70       ??1Item_func_week@@UEAA@XZ 0000000140088c70 f i item_create.obj
 0001:00087cd0       ??0Item_func_year@@QEAA@PEAVItem@@@Z 0000000140088cd0 f i item_create.obj
 0001:00087d60       ?func_name@Item_func_year@@UEBAPEBDXZ 0000000140088d60 f i item_create.obj
 0001:00087d70       ?fix_length_and_dec@Item_func_year@@UEAAXXZ 0000000140088d70 f i item_create.obj
 0001:00087d90       ??1Item_func_year@@UEAA@XZ 0000000140088d90 f i item_create.obj
 0001:00087df0       ??0Item_func_weekday@@QEAA@PEAVItem@@_N@Z 0000000140088df0 f i item_create.obj
 0001:00087e90       ?val_real@Item_func_weekday@@UEAANXZ 0000000140088e90 f i item_create.obj
 0001:00087eb0       ?val_str@Item_func_weekday@@UEAAPEAVString@@PEAV2@@Z 0000000140088eb0 f i item_create.obj
 0001:00087f00       ?func_name@Item_func_weekday@@UEBAPEBDXZ 0000000140088f00 f i item_create.obj
 0001:00087f20       ?result_type@Item_func_weekday@@UEBA?AW4Item_result@@XZ 0000000140088f20 f i item_create.obj
 0001:00087f30       ?fix_length_and_dec@Item_func_weekday@@UEAAXXZ 0000000140088f30 f i item_create.obj
 0001:00087f70       ??1Item_func_weekday@@UEAA@XZ 0000000140088f70 f i item_create.obj
 0001:00087fd0       ??0Item_func_dayname@@QEAA@PEAVItem@@@Z 0000000140088fd0 f i item_create.obj
 0001:00088060       ?func_name@Item_func_dayname@@UEBAPEBDXZ 0000000140089060 f i item_create.obj
 0001:00088070       ?result_type@Item_func_dayname@@UEBA?AW4Item_result@@XZ 0000000140089070 f i item_create.obj
 0001:00088080       ??1Item_func_dayname@@UEAA@XZ 0000000140089080 f i item_create.obj
 0001:000880e0       ??0Item_func_time_to_sec@@QEAA@PEAVItem@@@Z 00000001400890e0 f i item_create.obj
 0001:00088170       ?func_name@Item_func_time_to_sec@@UEBAPEBDXZ 0000000140089170 f i item_create.obj
 0001:00088180       ?fix_length_and_dec@Item_func_time_to_sec@@UEAAXXZ 0000000140089180 f i item_create.obj
 0001:00088190       ??1Item_func_time_to_sec@@UEAA@XZ 0000000140089190 f i item_create.obj
 0001:000881f0       ??0Item_date@@QEAA@PEAVItem@@@Z 00000001400891f0 f i item_create.obj
 0001:00088280       ?result_type@Item_date@@UEBA?AW4Item_result@@XZ 0000000140089280 f i item_create.obj
 0001:00088290       ?field_type@Item_date@@UEBA?AW4enum_field_types@@XZ 0000000140089290 f i item_create.obj
 0001:000882a0       ?val_real@Item_date@@UEAANXZ 00000001400892a0 f i item_create.obj
 0001:000882b0       ?func_name@Item_date@@UEBAPEBDXZ 00000001400892b0 f i item_create.obj
 0001:000882c0       ?fix_length_and_dec@Item_date@@UEAAXXZ 00000001400892c0 f i item_create.obj
 0001:00088300       ?tmp_table_field@Item_date@@UEAAPEAVField@@PEAUst_table@@@Z 0000000140089300 f i item_create.obj
 0001:000883d0       ?result_as_longlong@Item_date@@UEAA_NXZ 00000001400893d0 f i item_create.obj
 0001:000883e0       ?val_decimal@Item_date@@UEAAPEAVmy_decimal@@PEAV2@@Z 00000001400893e0 f i item_create.obj
 0001:000883f0       ?save_in_field@Item_date@@UEAAHPEAVField@@_N@Z 00000001400893f0 f i item_create.obj
 0001:00088400       ??1Item_date@@UEAA@XZ      0000000140089400 f i item_create.obj
 0001:00088460       ??0Item_date_func@@QEAA@PEAVItem@@0@Z 0000000140089460 f i item_create.obj
 0001:00088520       ?field_type@Item_date_func@@UEBA?AW4enum_field_types@@XZ 0000000140089520 f i item_create.obj
 0001:00088530       ?tmp_table_field@Item_date_func@@UEAAPEAVField@@PEAUst_table@@@Z 0000000140089530 f i item_create.obj
 0001:00088600       ?result_as_longlong@Item_date_func@@UEAA_NXZ 0000000140089600 f i item_create.obj
 0001:00088610       ?val_real@Item_date_func@@UEAANXZ 0000000140089610 f i item_create.obj
 0001:00088630       ?val_decimal@Item_date_func@@UEAAPEAVmy_decimal@@PEAV2@@Z 0000000140089630 f i item_create.obj
 0001:00088640       ?save_in_field@Item_date_func@@UEAAHPEAVField@@_N@Z 0000000140089640 f i item_create.obj
 0001:00088650       ??1Item_date_func@@UEAA@XZ 0000000140089650 f i item_create.obj
 0001:000886b0       ??0Item_str_timefunc@@QEAA@PEAVItem@@@Z 00000001400896b0 f i item_create.obj
 0001:00088740       ?field_type@Item_str_timefunc@@UEBA?AW4enum_field_types@@XZ 0000000140089740 f i item_create.obj
 0001:00088750       ?fix_length_and_dec@Item_str_timefunc@@UEAAXXZ 0000000140089750 f i item_create.obj
 0001:00088760       ?tmp_table_field@Item_str_timefunc@@UEAAPEAVField@@PEAUst_table@@@Z 0000000140089760 f i item_create.obj
 0001:00088830       ?val_real@Item_str_timefunc@@UEAANXZ 0000000140089830 f i item_create.obj
 0001:00088840       ?val_decimal@Item_str_timefunc@@UEAAPEAVmy_decimal@@PEAV2@@Z 0000000140089840 f i item_create.obj
 0001:00088850       ?save_in_field@Item_str_timefunc@@UEAAHPEAVField@@_N@Z 0000000140089850 f i item_create.obj
 0001:00088860       ?val_int@Item_str_timefunc@@UEAA_JXZ 0000000140089860 f i item_create.obj
 0001:00088870       ?result_as_longlong@Item_str_timefunc@@UEAA_NXZ 0000000140089870 f i item_create.obj
 0001:00088880       ??0Item_str_timefunc@@QEAA@PEAVItem@@0@Z 0000000140089880 f i item_create.obj
 0001:00088940       ??0Item_str_timefunc@@QEAA@PEAVItem@@00@Z 0000000140089940 f i item_create.obj
 0001:00088a30       ??1Item_str_timefunc@@UEAA@XZ 0000000140089a30 f i item_create.obj
 0001:00088a90       ??0Item_func_from_days@@QEAA@PEAVItem@@@Z 0000000140089a90 f i item_create.obj
 0001:00088b20       ?func_name@Item_func_from_days@@UEBAPEBDXZ 0000000140089b20 f i item_create.obj
 0001:00088b30       ??1Item_func_from_days@@UEAA@XZ 0000000140089b30 f i item_create.obj
 0001:00088b90       ??0Item_func_date_format@@QEAA@PEAVItem@@0_N@Z 0000000140089b90 f i item_create.obj
 0001:00088c90       ?func_name@Item_func_date_format@@UEBAPEBDXZ 0000000140089c90 f i item_create.obj
 0001:00088cb0       ??1Item_func_date_format@@UEAA@XZ 0000000140089cb0 f i item_create.obj
 0001:00088d40       ??0Item_func_sec_to_time@@QEAA@PEAVItem@@@Z 0000000140089d40 f i item_create.obj
 0001:00088dd0       ?val_real@Item_func_sec_to_time@@UEAANXZ 0000000140089dd0 f i item_create.obj
 0001:00088df0       ?fix_length_and_dec@Item_func_sec_to_time@@UEAAXXZ 0000000140089df0 f i item_create.obj
 0001:00088e30       ?func_name@Item_func_sec_to_time@@UEBAPEBDXZ 0000000140089e30 f i item_create.obj
 0001:00088e40       ?result_as_longlong@Item_func_sec_to_time@@UEAA_NXZ 0000000140089e40 f i item_create.obj
 0001:00088e50       ??1Item_func_sec_to_time@@UEAA@XZ 0000000140089e50 f i item_create.obj
 0001:00088eb0       ??0Item_typecast@@QEAA@PEAVItem@@@Z 0000000140089eb0 f i item_create.obj
 0001:00088f40       ?val_str@Item_typecast@@UEAAPEAVString@@PEAV2@@Z 0000000140089f40 f i item_create.obj
 0001:00088f90       ?fix_length_and_dec@Item_typecast@@UEAAXXZ 0000000140089f90 f i item_create.obj
 0001:00088fd0       ??1Item_typecast@@UEAA@XZ  0000000140089fd0 f i item_create.obj
 0001:00089030       ??0Item_typecast_maybe_null@@QEAA@PEAVItem@@@Z 000000014008a030 f i item_create.obj
 0001:000890c0       ?fix_length_and_dec@Item_typecast_maybe_null@@UEAAXXZ 000000014008a0c0 f i item_create.obj
 0001:00089110       ??1Item_typecast_maybe_null@@UEAA@XZ 000000014008a110 f i item_create.obj
 0001:00089170       ??0Item_char_typecast@@QEAA@PEAVItem@@HPEAUcharset_info_st@@@Z 000000014008a170 f i item_create.obj
 0001:00089260       ?functype@Item_char_typecast@@UEBA?AW4Functype@Item_func@@XZ 000000014008a260 f i item_create.obj
 0001:00089270       ?func_name@Item_char_typecast@@UEBAPEBDXZ 000000014008a270 f i item_create.obj
 0001:00089280       ?cast_type@Item_char_typecast@@UEBAPEBDXZ 000000014008a280 f i item_create.obj
 0001:00089290       ??1Item_char_typecast@@UEAA@XZ 000000014008a290 f i item_create.obj
 0001:00089320       ??0Item_date_typecast@@QEAA@PEAVItem@@@Z 000000014008a320 f i item_create.obj
 0001:000893b0       ?func_name@Item_date_typecast@@UEBAPEBDXZ 000000014008a3b0 f i item_create.obj
 0001:000893c0       ?cast_type@Item_date_typecast@@UEBAPEBDXZ 000000014008a3c0 f i item_create.obj
 0001:000893d0       ?field_type@Item_date_typecast@@UEBA?AW4enum_field_types@@XZ 000000014008a3d0 f i item_create.obj
 0001:000893e0       ?tmp_table_field@Item_date_typecast@@UEAAPEAVField@@PEAUst_table@@@Z 000000014008a3e0 f i item_create.obj
 0001:000894b0       ?fix_length_and_dec@Item_date_typecast@@UEAAXXZ 000000014008a4b0 f i item_create.obj
 0001:000894f0       ?result_as_longlong@Item_date_typecast@@UEAA_NXZ 000000014008a4f0 f i item_create.obj
 0001:00089500       ?val_real@Item_date_typecast@@UEAANXZ 000000014008a500 f i item_create.obj
 0001:00089520       ?val_decimal@Item_date_typecast@@UEAAPEAVmy_decimal@@PEAV2@@Z 000000014008a520 f i item_create.obj
 0001:00089530       ?save_in_field@Item_date_typecast@@UEAAHPEAVField@@_N@Z 000000014008a530 f i item_create.obj
 0001:00089540       ??1Item_date_typecast@@UEAA@XZ 000000014008a540 f i item_create.obj
 0001:000895a0       ??0Item_time_typecast@@QEAA@PEAVItem@@@Z 000000014008a5a0 f i item_create.obj
 0001:00089630       ?func_name@Item_time_typecast@@UEBAPEBDXZ 000000014008a630 f i item_create.obj
 0001:00089640       ?cast_type@Item_time_typecast@@UEBAPEBDXZ 000000014008a640 f i item_create.obj
 0001:00089650       ?field_type@Item_time_typecast@@UEBA?AW4enum_field_types@@XZ 000000014008a650 f i item_create.obj
 0001:00089660       ?tmp_table_field@Item_time_typecast@@UEAAPEAVField@@PEAUst_table@@@Z 000000014008a660 f i item_create.obj
 0001:00089730       ?result_as_longlong@Item_time_typecast@@UEAA_NXZ 000000014008a730 f i item_create.obj
 0001:00089740       ?val_real@Item_time_typecast@@UEAANXZ 000000014008a740 f i item_create.obj
 0001:00089750       ?val_decimal@Item_time_typecast@@UEAAPEAVmy_decimal@@PEAV2@@Z 000000014008a750 f i item_create.obj
 0001:00089760       ?save_in_field@Item_time_typecast@@UEAAHPEAVField@@_N@Z 000000014008a760 f i item_create.obj
 0001:00089770       ??1Item_time_typecast@@UEAA@XZ 000000014008a770 f i item_create.obj
 0001:000897d0       ??0Item_datetime_typecast@@QEAA@PEAVItem@@@Z 000000014008a7d0 f i item_create.obj
 0001:00089860       ?func_name@Item_datetime_typecast@@UEBAPEBDXZ 000000014008a860 f i item_create.obj
 0001:00089870       ?cast_type@Item_datetime_typecast@@UEBAPEBDXZ 000000014008a870 f i item_create.obj
 0001:00089880       ?field_type@Item_datetime_typecast@@UEBA?AW4enum_field_types@@XZ 000000014008a880 f i item_create.obj
 0001:00089890       ?fix_length_and_dec@Item_datetime_typecast@@UEAAXXZ 000000014008a890 f i item_create.obj
 0001:000898d0       ?tmp_table_field@Item_datetime_typecast@@UEAAPEAVField@@PEAUst_table@@@Z 000000014008a8d0 f i item_create.obj
 0001:000899a0       ?result_as_longlong@Item_datetime_typecast@@UEAA_NXZ 000000014008a9a0 f i item_create.obj
 0001:000899b0       ?val_real@Item_datetime_typecast@@UEAANXZ 000000014008a9b0 f i item_create.obj
 0001:000899c0       ?val_decimal@Item_datetime_typecast@@UEAAPEAVmy_decimal@@PEAV2@@Z 000000014008a9c0 f i item_create.obj
 0001:000899d0       ?save_in_field@Item_datetime_typecast@@UEAAHPEAVField@@_N@Z 000000014008a9d0 f i item_create.obj
 0001:000899e0       ??1Item_datetime_typecast@@UEAA@XZ 000000014008a9e0 f i item_create.obj
 0001:00089a40       ??0Item_func_makedate@@QEAA@PEAVItem@@0@Z 000000014008aa40 f i item_create.obj
 0001:00089b00       ?func_name@Item_func_makedate@@UEBAPEBDXZ 000000014008ab00 f i item_create.obj
 0001:00089b10       ?field_type@Item_func_makedate@@UEBA?AW4enum_field_types@@XZ 000000014008ab10 f i item_create.obj
 0001:00089b20       ?fix_length_and_dec@Item_func_makedate@@UEAAXXZ 000000014008ab20 f i item_create.obj
 0001:00089b30       ?tmp_table_field@Item_func_makedate@@UEAAPEAVField@@PEAUst_table@@@Z 000000014008ab30 f i item_create.obj
 0001:00089c00       ?val_decimal@Item_func_makedate@@UEAAPEAVmy_decimal@@PEAV2@@Z 000000014008ac00 f i item_create.obj
 0001:00089c10       ?save_in_field@Item_func_makedate@@UEAAHPEAVField@@_N@Z 000000014008ac10 f i item_create.obj
 0001:00089c20       ??1Item_func_makedate@@UEAA@XZ 000000014008ac20 f i item_create.obj
 0001:00089c80       ??0Item_func_add_time@@QEAA@PEAVItem@@0_N1@Z 000000014008ac80 f i item_create.obj
 0001:00089d70       ?field_type@Item_func_add_time@@UEBA?AW4enum_field_types@@XZ 000000014008ad70 f i item_create.obj
 0001:00089d80       ?func_name@Item_func_add_time@@UEBAPEBDXZ 000000014008ad80 f i item_create.obj
 0001:00089d90       ?val_real@Item_func_add_time@@UEAANXZ 000000014008ad90 f i item_create.obj
 0001:00089da0       ?val_decimal@Item_func_add_time@@UEAAPEAVmy_decimal@@PEAV2@@Z 000000014008ada0 f i item_create.obj
 0001:00089dd0       ?save_in_field@Item_func_add_time@@UEAAHPEAVField@@_N@Z 000000014008add0 f i item_create.obj
 0001:00089e00       ?tmp_table_field@Item_func_add_time@@UEAAPEAVField@@PEAUst_table@@@Z 000000014008ae00 f i item_create.obj
 0001:0008a010       ??1Item_func_add_time@@UEAA@XZ 000000014008b010 f i item_create.obj
 0001:0008a070       ??0Item_func_timediff@@QEAA@PEAVItem@@0@Z 000000014008b070 f i item_create.obj
 0001:0008a130       ?func_name@Item_func_timediff@@UEBAPEBDXZ 000000014008b130 f i item_create.obj
 0001:0008a140       ?fix_length_and_dec@Item_func_timediff@@UEAAXXZ 000000014008b140 f i item_create.obj
 0001:0008a160       ??1Item_func_timediff@@UEAA@XZ 000000014008b160 f i item_create.obj
 0001:0008a1c0       ??0Item_func_maketime@@QEAA@PEAVItem@@00@Z 000000014008b1c0 f i item_create.obj
 0001:0008a2b0       ?func_name@Item_func_maketime@@UEBAPEBDXZ 000000014008b2b0 f i item_create.obj
 0001:0008a2c0       ??1Item_func_maketime@@UEAA@XZ 000000014008b2c0 f i item_create.obj
 0001:0008a320       ??0Item_func_str_to_date@@QEAA@PEAVItem@@0@Z 000000014008b320 f i item_create.obj
 0001:0008a3e0       ?func_name@Item_func_str_to_date@@UEBAPEBDXZ 000000014008b3e0 f i item_create.obj
 0001:0008a3f0       ?field_type@Item_func_str_to_date@@UEBA?AW4enum_field_types@@XZ 000000014008b3f0 f i item_create.obj
 0001:0008a400       ??1Item_func_str_to_date@@UEAA@XZ 000000014008b400 f i item_create.obj
 0001:0008a460       ??0Item_func_last_day@@QEAA@PEAVItem@@@Z 000000014008b460 f i item_create.obj
 0001:0008a4f0       ?func_name@Item_func_last_day@@UEBAPEBDXZ 000000014008b4f0 f i item_create.obj
 0001:0008a500       ??1Item_func_last_day@@UEAA@XZ 000000014008b500 f i item_create.obj
 0001:0008a560       ?create_func_abs@@YAPEAVItem@@PEAV1@@Z 000000014008b560 f   item_create.obj
 0001:0008a620       ?create_func_acos@@YAPEAVItem@@PEAV1@@Z 000000014008b620 f   item_create.obj
 0001:0008a6d0       ?create_func_aes_encrypt@@YAPEAVItem@@PEAV1@0@Z 000000014008b6d0 f   item_create.obj
 0001:0008a7b0       ?create_func_aes_decrypt@@YAPEAVItem@@PEAV1@0@Z 000000014008b7b0 f   item_create.obj
 0001:0008a890       ?create_func_ascii@@YAPEAVItem@@PEAV1@@Z 000000014008b890 f   item_create.obj
 0001:0008a980       ?create_func_ord@@YAPEAVItem@@PEAV1@@Z 000000014008b980 f   item_create.obj
 0001:0008aa70       ?create_func_asin@@YAPEAVItem@@PEAV1@@Z 000000014008ba70 f   item_create.obj
 0001:0008ab20       ?create_func_bit_count@@YAPEAVItem@@PEAV1@@Z 000000014008bb20 f   item_create.obj
 0001:0008abe0       ?create_func_ceiling@@YAPEAVItem@@PEAV1@@Z 000000014008bbe0 f   item_create.obj
 0001:0008aca0       ?create_func_connection_id@@YAPEAVItem@@XZ 000000014008bca0 f   item_create.obj
 0001:0008ad50       ?create_func_conv@@YAPEAVItem@@PEAV1@00@Z 000000014008bd50 f   item_create.obj
 0001:0008ae60       ?create_func_cos@@YAPEAVItem@@PEAV1@@Z 000000014008be60 f   item_create.obj
 0001:0008af10       ?create_func_date_format@@YAPEAVItem@@PEAV1@0@Z 000000014008bf10 f   item_create.obj
 0001:0008b040       ?create_func_dayofmonth@@YAPEAVItem@@PEAV1@@Z 000000014008c040 f   item_create.obj
 0001:0008b100       ?create_func_dayofweek@@YAPEAVItem@@PEAV1@@Z 000000014008c100 f   item_create.obj
 0001:0008b1c0       ?create_func_dayofyear@@YAPEAVItem@@PEAV1@@Z 000000014008c1c0 f   item_create.obj
 0001:0008b280       ?create_func_dayname@@YAPEAVItem@@PEAV1@@Z 000000014008c280 f   item_create.obj
 0001:0008b340       ?create_func_degrees@@YAPEAVItem@@PEAV1@@Z 000000014008c340 f   item_create.obj
 0001:0008b430       ?create_func_exp@@YAPEAVItem@@PEAV1@@Z 000000014008c430 f   item_create.obj
 0001:0008b4e0       ?create_func_find_in_set@@YAPEAVItem@@PEAV1@0@Z 000000014008c4e0 f   item_create.obj
 0001:0008b540       ?create_func_floor@@YAPEAVItem@@PEAV1@@Z 000000014008c540 f   item_create.obj
 0001:0008b600       ?create_func_found_rows@@YAPEAVItem@@XZ 000000014008c600 f   item_create.obj
 0001:0008b6b0       ?create_func_from_days@@YAPEAVItem@@PEAV1@@Z 000000014008c6b0 f   item_create.obj
 0001:0008b760       ?create_func_get_lock@@YAPEAVItem@@PEAV1@0@Z 000000014008c760 f   item_create.obj
 0001:0008b900       ?create_func_hex@@YAPEAVItem@@PEAV1@@Z 000000014008c900 f   item_create.obj
 0001:0008b9f0       ?create_func_inet_ntoa@@YAPEAVItem@@PEAV1@@Z 000000014008c9f0 f   item_create.obj
 0001:0008baa0       ?create_func_inet_aton@@YAPEAVItem@@PEAV1@@Z 000000014008caa0 f   item_create.obj
 0001:0008bb60       ?create_func_ifnull@@YAPEAVItem@@PEAV1@0@Z 000000014008cb60 f   item_create.obj
 0001:0008bc50       ?create_func_nullif@@YAPEAVItem@@PEAV1@0@Z 000000014008cc50 f   item_create.obj
 0001:0008bce0       ?create_func_locate@@YAPEAVItem@@PEAV1@0@Z 000000014008cce0 f   item_create.obj
 0001:0008bd40       ?create_func_instr@@YAPEAVItem@@PEAV1@0@Z 000000014008cd40 f   item_create.obj
 0001:0008bda0       ?create_func_isnull@@YAPEAVItem@@PEAV1@@Z 000000014008cda0 f   item_create.obj
 0001:0008be60       ?create_func_lcase@@YAPEAVItem@@PEAV1@@Z 000000014008ce60 f   item_create.obj
 0001:0008bf50       ?create_func_length@@YAPEAVItem@@PEAV1@@Z 000000014008cf50 f   item_create.obj
 0001:0008c040       ?create_func_bit_length@@YAPEAVItem@@PEAV1@@Z 000000014008d040 f   item_create.obj
 0001:0008c130       ?create_func_coercibility@@YAPEAVItem@@PEAV1@@Z 000000014008d130 f   item_create.obj
 0001:0008c1f0       ?create_func_char_length@@YAPEAVItem@@PEAV1@@Z 000000014008d1f0 f   item_create.obj
 0001:0008c2e0       ?create_func_ln@@YAPEAVItem@@PEAV1@@Z 000000014008d2e0 f   item_create.obj
 0001:0008c390       ?create_func_log2@@YAPEAVItem@@PEAV1@@Z 000000014008d390 f   item_create.obj
 0001:0008c440       ?create_func_log10@@YAPEAVItem@@PEAV1@@Z 000000014008d440 f   item_create.obj
 0001:0008c4f0       ?create_func_lpad@@YAPEAVItem@@PEAV1@00@Z 000000014008d4f0 f   item_create.obj
 0001:0008c560       ?create_func_ltrim@@YAPEAVItem@@PEAV1@@Z 000000014008d560 f   item_create.obj
 0001:0008c680       ?create_func_md5@@YAPEAVItem@@PEAV1@@Z 000000014008d680 f   item_create.obj
 0001:0008c790       ?create_func_mod@@YAPEAVItem@@PEAV1@0@Z 000000014008d790 f   item_create.obj
 0001:0008c880       ?create_func_monthname@@YAPEAVItem@@PEAV1@@Z 000000014008d880 f   item_create.obj
 0001:0008c930       ?create_func_month@@YAPEAVItem@@PEAV1@@Z 000000014008d930 f   item_create.obj
 0001:0008c9e0       ?create_func_period_add@@YAPEAVItem@@PEAV1@0@Z 000000014008d9e0 f   item_create.obj
 0001:0008cad0       ?create_func_period_diff@@YAPEAVItem@@PEAV1@0@Z 000000014008dad0 f   item_create.obj
 0001:0008cbc0       ?create_func_pow@@YAPEAVItem@@PEAV1@0@Z 000000014008dbc0 f   item_create.obj
 0001:0008cca0       ?create_func_radians@@YAPEAVItem@@PEAV1@@Z 000000014008dca0 f   item_create.obj
 0001:0008cd90       ?create_func_release_lock@@YAPEAVItem@@PEAV1@@Z 000000014008dd90 f   item_create.obj
 0001:0008cf20       ?create_func_repeat@@YAPEAVItem@@PEAV1@0@Z 000000014008df20 f   item_create.obj
 0001:0008d040       ?create_func_reverse@@YAPEAVItem@@PEAV1@@Z 000000014008e040 f   item_create.obj
 0001:0008d130       ?create_func_rpad@@YAPEAVItem@@PEAV1@00@Z 000000014008e130 f   item_create.obj
 0001:0008d1a0       ?create_func_rtrim@@YAPEAVItem@@PEAV1@@Z 000000014008e1a0 f   item_create.obj
 0001:0008d2c0       ?create_func_sec_to_time@@YAPEAVItem@@PEAV1@@Z 000000014008e2c0 f   item_create.obj
 0001:0008d370       ?create_func_sign@@YAPEAVItem@@PEAV1@@Z 000000014008e370 f   item_create.obj
 0001:0008d430       ?create_func_sin@@YAPEAVItem@@PEAV1@@Z 000000014008e430 f   item_create.obj
 0001:0008d4e0       ?create_func_sha@@YAPEAVItem@@PEAV1@@Z 000000014008e4e0 f   item_create.obj
 0001:0008d5c0       ?create_func_sleep@@YAPEAVItem@@PEAV1@@Z 000000014008e5c0 f   item_create.obj
 0001:0008d710       ?create_func_space@@YAPEAVItem@@PEAV1@@Z 000000014008e710 f   item_create.obj
 0001:0008d940       ?create_func_soundex@@YAPEAVItem@@PEAV1@@Z 000000014008e940 f   item_create.obj
 0001:0008da30       ?create_func_sqrt@@YAPEAVItem@@PEAV1@@Z 000000014008ea30 f   item_create.obj
 0001:0008dae0       ?create_func_strcmp@@YAPEAVItem@@PEAV1@0@Z 000000014008eae0 f   item_create.obj
 0001:0008db60       ?create_func_tan@@YAPEAVItem@@PEAV1@@Z 000000014008eb60 f   item_create.obj
 0001:0008dc10       ?create_func_time_format@@YAPEAVItem@@PEAV1@0@Z 000000014008ec10 f   item_create.obj
 0001:0008dd40       ?create_func_time_to_sec@@YAPEAVItem@@PEAV1@@Z 000000014008ed40 f   item_create.obj
 0001:0008de00       ?create_func_to_days@@YAPEAVItem@@PEAV1@@Z 000000014008ee00 f   item_create.obj
 0001:0008dec0       ?create_func_ucase@@YAPEAVItem@@PEAV1@@Z 000000014008eec0 f   item_create.obj
 0001:0008dfb0       ?create_func_unhex@@YAPEAVItem@@PEAV1@@Z 000000014008efb0 f   item_create.obj
 0001:0008e0a0       ?create_func_uuid@@YAPEAVItem@@XZ 000000014008f0a0 f   item_create.obj
 0001:0008e150       ?create_func_version@@YAPEAVItem@@XZ 000000014008f150 f   item_create.obj
 0001:0008e270       ?create_func_weekday@@YAPEAVItem@@PEAV1@@Z 000000014008f270 f   item_create.obj
 0001:0008e330       ?create_func_year@@YAPEAVItem@@PEAV1@@Z 000000014008f330 f   item_create.obj
 0001:0008e3f0       ?create_load_file@@YAPEAVItem@@PEAV1@@Z 000000014008f3f0 f   item_create.obj
 0001:0008e580       ?create_func_cast@@YAPEAVItem@@PEAV1@W4Cast_target@@PEBD2PEAUcharset_info_st@@@Z 000000014008f580 f   item_create.obj
 0001:0008e970       ?create_func_is_free_lock@@YAPEAVItem@@PEAV1@@Z 000000014008f970 f   item_create.obj
 0001:0008eb00       ?create_func_is_used_lock@@YAPEAVItem@@PEAV1@@Z 000000014008fb00 f   item_create.obj
 0001:0008ec90       ?create_func_quote@@YAPEAVItem@@PEAV1@@Z 000000014008fc90 f   item_create.obj
 0001:0008ed80       ?create_func_as_wkt@@YAPEAVItem@@PEAV1@@Z 000000014008fd80 f   item_create.obj
 0001:0008ee30       ?create_func_as_wkb@@YAPEAVItem@@PEAV1@@Z 000000014008fe30 f   item_create.obj
 0001:0008eee0       ?create_func_srid@@YAPEAVItem@@PEAV1@@Z 000000014008fee0 f   item_create.obj
 0001:0008efd0       ?create_func_startpoint@@YAPEAVItem@@PEAV1@@Z 000000014008ffd0 f   item_create.obj
 0001:0008f090       ?create_func_endpoint@@YAPEAVItem@@PEAV1@@Z 0000000140090090 f   item_create.obj
 0001:0008f150       ?create_func_exteriorring@@YAPEAVItem@@PEAV1@@Z 0000000140090150 f   item_create.obj
 0001:0008f210       ?create_func_pointn@@YAPEAVItem@@PEAV1@0@Z 0000000140090210 f   item_create.obj
 0001:0008f310       ?create_func_interiorringn@@YAPEAVItem@@PEAV1@0@Z 0000000140090310 f   item_create.obj
 0001:0008f410       ?create_func_geometryn@@YAPEAVItem@@PEAV1@0@Z 0000000140090410 f   item_create.obj
 0001:0008f510       ?create_func_centroid@@YAPEAVItem@@PEAV1@@Z 0000000140090510 f   item_create.obj
 0001:0008f5c0       ?create_func_envelope@@YAPEAVItem@@PEAV1@@Z 00000001400905c0 f   item_create.obj
 0001:0008f670       ?create_func_equals@@YAPEAVItem@@PEAV1@0@Z 0000000140090670 f   item_create.obj
 0001:0008f700       ?create_func_disjoint@@YAPEAVItem@@PEAV1@0@Z 0000000140090700 f   item_create.obj
 0001:0008f790       ?create_func_intersects@@YAPEAVItem@@PEAV1@0@Z 0000000140090790 f   item_create.obj
 0001:0008f820       ?create_func_touches@@YAPEAVItem@@PEAV1@0@Z 0000000140090820 f   item_create.obj
 0001:0008f8b0       ?create_func_crosses@@YAPEAVItem@@PEAV1@0@Z 00000001400908b0 f   item_create.obj
 0001:0008f940       ?create_func_within@@YAPEAVItem@@PEAV1@0@Z 0000000140090940 f   item_create.obj
 0001:0008f9d0       ?create_func_contains@@YAPEAVItem@@PEAV1@0@Z 00000001400909d0 f   item_create.obj
 0001:0008fa60       ?create_func_overlaps@@YAPEAVItem@@PEAV1@0@Z 0000000140090a60 f   item_create.obj
 0001:0008faf0       ?create_func_isempty@@YAPEAVItem@@PEAV1@@Z 0000000140090af0 f   item_create.obj
 0001:0008fbb0       ?create_func_issimple@@YAPEAVItem@@PEAV1@@Z 0000000140090bb0 f   item_create.obj
 0001:0008fc70       ?create_func_isclosed@@YAPEAVItem@@PEAV1@@Z 0000000140090c70 f   item_create.obj
 0001:0008fd30       ?create_func_geometry_type@@YAPEAVItem@@PEAV1@@Z 0000000140090d30 f   item_create.obj
 0001:0008fde0       ?create_func_dimension@@YAPEAVItem@@PEAV1@@Z 0000000140090de0 f   item_create.obj
 0001:0008fed0       ?create_func_x@@YAPEAVItem@@PEAV1@@Z 0000000140090ed0 f   item_create.obj
 0001:0008ffc0       ?create_func_y@@YAPEAVItem@@PEAV1@@Z 0000000140090fc0 f   item_create.obj
 0001:000900b0       ?create_func_numpoints@@YAPEAVItem@@PEAV1@@Z 00000001400910b0 f   item_create.obj
 0001:000901a0       ?create_func_numinteriorring@@YAPEAVItem@@PEAV1@@Z 00000001400911a0 f   item_create.obj
 0001:00090290       ?create_func_numgeometries@@YAPEAVItem@@PEAV1@@Z 0000000140091290 f   item_create.obj
 0001:00090380       ?create_func_area@@YAPEAVItem@@PEAV1@@Z 0000000140091380 f   item_create.obj
 0001:00090470       ?create_func_glength@@YAPEAVItem@@PEAV1@@Z 0000000140091470 f   item_create.obj
 0001:00090560       ?create_func_point@@YAPEAVItem@@PEAV1@0@Z 0000000140091560 f   item_create.obj
 0001:00090640       ?create_func_crc32@@YAPEAVItem@@PEAV1@@Z 0000000140091640 f   item_create.obj
 0001:00090740       ?create_func_compress@@YAPEAVItem@@PEAV1@@Z 0000000140091740 f   item_create.obj
 0001:00090830       ?create_func_uncompress@@YAPEAVItem@@PEAV1@@Z 0000000140091830 f   item_create.obj
 0001:00090920       ?create_func_uncompressed_length@@YAPEAVItem@@PEAV1@@Z 0000000140091920 f   item_create.obj
 0001:00090a10       ?create_func_datediff@@YAPEAVItem@@PEAV1@0@Z 0000000140091a10 f   item_create.obj
 0001:00090c00       ?create_func_makedate@@YAPEAVItem@@PEAV1@0@Z 0000000140091c00 f   item_create.obj
 0001:00090ce0       ?create_func_addtime@@YAPEAVItem@@PEAV1@0@Z 0000000140091ce0 f   item_create.obj
 0001:00090de0       ?create_func_subtime@@YAPEAVItem@@PEAV1@0@Z 0000000140091de0 f   item_create.obj
 0001:00090ee0       ?create_func_timediff@@YAPEAVItem@@PEAV1@0@Z 0000000140091ee0 f   item_create.obj
 0001:00090fc0       ?create_func_maketime@@YAPEAVItem@@PEAV1@00@Z 0000000140091fc0 f   item_create.obj
 0001:000910d0       ?create_func_str_to_date@@YAPEAVItem@@PEAV1@0@Z 00000001400920d0 f   item_create.obj
 0001:000911c0       ?create_func_last_day@@YAPEAVItem@@PEAV1@@Z 00000001400921c0 f   item_create.obj
 0001:00091270       ??0Item_int@@QEAA@JI@Z     0000000140092270 f i item_create.obj
 0001:000912d0       ??0Item_static_float_func@@QEAA@PEBDNII@Z 00000001400922d0 f i item_create.obj
 0001:00091360       ?print@Item_static_float_func@@UEAAXPEAVString@@@Z 0000000140092360 f i item_create.obj
 0001:00091380       ??1Item_static_float_func@@UEAA@XZ 0000000140092380 f i item_create.obj
 0001:000913e0       ??_GItem_static_float_func@@UEAAPEAXI@Z 00000001400923e0 f i item_create.obj
 0001:000913e0       ??_EItem_static_float_func@@UEAAPEAXI@Z 00000001400923e0 f i item_create.obj
 0001:00091440       ??_EItem_real_func@@UEAAPEAXI@Z 0000000140092440 f i item_create.obj
 0001:00091440       ??_GItem_real_func@@UEAAPEAXI@Z 0000000140092440 f i item_create.obj
 0001:000914a0       ??_GItem_func_numhybrid@@UEAAPEAXI@Z 00000001400924a0 f i item_create.obj
 0001:000914a0       ??_EItem_func_numhybrid@@UEAAPEAXI@Z 00000001400924a0 f i item_create.obj
 0001:00091500       ??_EItem_func_num1@@UEAAPEAXI@Z 0000000140092500 f i item_create.obj
 0001:00091500       ??_GItem_func_num1@@UEAAPEAXI@Z 0000000140092500 f i item_create.obj
 0001:00091560       ??_GItem_num_op@@UEAAPEAXI@Z 0000000140092560 f i item_create.obj
 0001:00091560       ??_EItem_num_op@@UEAAPEAXI@Z 0000000140092560 f i item_create.obj
 0001:000915c0       ??_EItem_func_connection_id@@UEAAPEAXI@Z 00000001400925c0 f i item_create.obj
 0001:000915c0       ??_GItem_func_connection_id@@UEAAPEAXI@Z 00000001400925c0 f i item_create.obj
 0001:00091620       ??_EItem_func_signed@@UEAAPEAXI@Z 0000000140092620 f i item_create.obj
 0001:00091620       ??_GItem_func_signed@@UEAAPEAXI@Z 0000000140092620 f i item_create.obj
 0001:00091680       ??_EItem_func_unsigned@@UEAAPEAXI@Z 0000000140092680 f i item_create.obj
 0001:00091680       ??_GItem_func_unsigned@@UEAAPEAXI@Z 0000000140092680 f i item_create.obj
 0001:000916e0       ??_GItem_decimal_typecast@@UEAAPEAXI@Z 00000001400926e0 f i item_create.obj
 0001:000916e0       ??_EItem_decimal_typecast@@UEAAPEAXI@Z 00000001400926e0 f i item_create.obj
 0001:00091740       ??_EItem_func_additive_op@@UEAAPEAXI@Z 0000000140092740 f i item_create.obj
 0001:00091740       ??_GItem_func_additive_op@@UEAAPEAXI@Z 0000000140092740 f i item_create.obj
 0001:000917a0       ??_GItem_func_minus@@UEAAPEAXI@Z 00000001400927a0 f i item_create.obj
 0001:000917a0       ??_EItem_func_minus@@UEAAPEAXI@Z 00000001400927a0 f i item_create.obj
 0001:00091800       ??_GItem_func_div@@UEAAPEAXI@Z 0000000140092800 f i item_create.obj
 0001:00091800       ??_EItem_func_div@@UEAAPEAXI@Z 0000000140092800 f i item_create.obj
 0001:00091860       ??_EItem_func_mod@@UEAAPEAXI@Z 0000000140092860 f i item_create.obj
 0001:00091860       ??_GItem_func_mod@@UEAAPEAXI@Z 0000000140092860 f i item_create.obj
 0001:000918c0       ??_EItem_func_abs@@UEAAPEAXI@Z 00000001400928c0 f i item_create.obj
 0001:000918c0       ??_GItem_func_abs@@UEAAPEAXI@Z 00000001400928c0 f i item_create.obj
 0001:00091920       ??_EItem_dec_func@@UEAAPEAXI@Z 0000000140092920 f i item_create.obj
 0001:00091920       ??_GItem_dec_func@@UEAAPEAXI@Z 0000000140092920 f i item_create.obj
 0001:00091980       ??_GItem_func_exp@@UEAAPEAXI@Z 0000000140092980 f i item_create.obj
 0001:00091980       ??_EItem_func_exp@@UEAAPEAXI@Z 0000000140092980 f i item_create.obj
 0001:000919e0       ??_GItem_func_ln@@UEAAPEAXI@Z 00000001400929e0 f i item_create.obj
 0001:000919e0       ??_EItem_func_ln@@UEAAPEAXI@Z 00000001400929e0 f i item_create.obj
 0001:00091a40       ??_EItem_func_log2@@UEAAPEAXI@Z 0000000140092a40 f i item_create.obj
 0001:00091a40       ??_GItem_func_log2@@UEAAPEAXI@Z 0000000140092a40 f i item_create.obj
 0001:00091aa0       ??_EItem_func_log10@@UEAAPEAXI@Z 0000000140092aa0 f i item_create.obj
 0001:00091aa0       ??_GItem_func_log10@@UEAAPEAXI@Z 0000000140092aa0 f i item_create.obj
 0001:00091b00       ??_GItem_func_sqrt@@UEAAPEAXI@Z 0000000140092b00 f i item_create.obj
 0001:00091b00       ??_EItem_func_sqrt@@UEAAPEAXI@Z 0000000140092b00 f i item_create.obj
 0001:00091b60       ??_GItem_func_pow@@UEAAPEAXI@Z 0000000140092b60 f i item_create.obj
 0001:00091b60       ??_EItem_func_pow@@UEAAPEAXI@Z 0000000140092b60 f i item_create.obj
 0001:00091bc0       ??_GItem_func_acos@@UEAAPEAXI@Z 0000000140092bc0 f i item_create.obj
 0001:00091bc0       ??_EItem_func_acos@@UEAAPEAXI@Z 0000000140092bc0 f i item_create.obj
 0001:00091c20       ??_GItem_func_asin@@UEAAPEAXI@Z 0000000140092c20 f i item_create.obj
 0001:00091c20       ??_EItem_func_asin@@UEAAPEAXI@Z 0000000140092c20 f i item_create.obj
 0001:00091c80       ??_GItem_func_cos@@UEAAPEAXI@Z 0000000140092c80 f i item_create.obj
 0001:00091c80       ??_EItem_func_cos@@UEAAPEAXI@Z 0000000140092c80 f i item_create.obj
 0001:00091ce0       ??_GItem_func_sin@@UEAAPEAXI@Z 0000000140092ce0 f i item_create.obj
 0001:00091ce0       ??_EItem_func_sin@@UEAAPEAXI@Z 0000000140092ce0 f i item_create.obj
 0001:00091d40       ??_GItem_func_tan@@UEAAPEAXI@Z 0000000140092d40 f i item_create.obj
 0001:00091d40       ??_EItem_func_tan@@UEAAPEAXI@Z 0000000140092d40 f i item_create.obj
 0001:00091da0       ??_GItem_func_int_val@@UEAAPEAXI@Z 0000000140092da0 f i item_create.obj
 0001:00091da0       ??_EItem_func_int_val@@UEAAPEAXI@Z 0000000140092da0 f i item_create.obj
 0001:00091e00       ??_GItem_func_ceiling@@UEAAPEAXI@Z 0000000140092e00 f i item_create.obj
 0001:00091e00       ??_EItem_func_ceiling@@UEAAPEAXI@Z 0000000140092e00 f i item_create.obj
 0001:00091e60       ??_GItem_func_floor@@UEAAPEAXI@Z 0000000140092e60 f i item_create.obj
 0001:00091e60       ??_EItem_func_floor@@UEAAPEAXI@Z 0000000140092e60 f i item_create.obj
 0001:00091ec0       ??_EItem_func_sign@@UEAAPEAXI@Z 0000000140092ec0 f i item_create.obj
 0001:00091ec0       ??_GItem_func_sign@@UEAAPEAXI@Z 0000000140092ec0 f i item_create.obj
 0001:00091f20       ??_GItem_func_units@@UEAAPEAXI@Z 0000000140092f20 f i item_create.obj
 0001:00091f20       ??_EItem_func_units@@UEAAPEAXI@Z 0000000140092f20 f i item_create.obj
 0001:00091f80       ??_EItem_func_length@@UEAAPEAXI@Z 0000000140092f80 f i item_create.obj
 0001:00091f80       ??_GItem_func_length@@UEAAPEAXI@Z 0000000140092f80 f i item_create.obj
 0001:00092010       ??_GItem_func_bit_length@@UEAAPEAXI@Z 0000000140093010 f i item_create.obj
 0001:00092010       ??_EItem_func_bit_length@@UEAAPEAXI@Z 0000000140093010 f i item_create.obj
 0001:000920a0       ??_GItem_func_char_length@@UEAAPEAXI@Z 00000001400930a0 f i item_create.obj
 0001:000920a0       ??_EItem_func_char_length@@UEAAPEAXI@Z 00000001400930a0 f i item_create.obj
 0001:00092130       ??_GItem_func_coercibility@@UEAAPEAXI@Z 0000000140093130 f i item_create.obj
 0001:00092130       ??_EItem_func_coercibility@@UEAAPEAXI@Z 0000000140093130 f i item_create.obj
 0001:00092190       ??_GItem_func_locate@@UEAAPEAXI@Z 0000000140093190 f i item_create.obj
 0001:00092190       ??_EItem_func_locate@@UEAAPEAXI@Z 0000000140093190 f i item_create.obj
 0001:00092260       ??_GItem_func_ascii@@UEAAPEAXI@Z 0000000140093260 f i item_create.obj
 0001:00092260       ??_EItem_func_ascii@@UEAAPEAXI@Z 0000000140093260 f i item_create.obj
 0001:000922f0       ??_EItem_func_ord@@UEAAPEAXI@Z 00000001400932f0 f i item_create.obj
 0001:000922f0       ??_GItem_func_ord@@UEAAPEAXI@Z 00000001400932f0 f i item_create.obj
 0001:00092380       ??_GItem_func_find_in_set@@UEAAPEAXI@Z 0000000140093380 f i item_create.obj
 0001:00092380       ??_EItem_func_find_in_set@@UEAAPEAXI@Z 0000000140093380 f i item_create.obj
 0001:00092450       ??_GItem_func_bit_count@@UEAAPEAXI@Z 0000000140093450 f i item_create.obj
 0001:00092450       ??_EItem_func_bit_count@@UEAAPEAXI@Z 0000000140093450 f i item_create.obj
 0001:000924b0       ??_GItem_func_sleep@@UEAAPEAXI@Z 00000001400934b0 f i item_create.obj
 0001:000924b0       ??_EItem_func_sleep@@UEAAPEAXI@Z 00000001400934b0 f i item_create.obj
 0001:00092510       ??_GItem_func_get_lock@@UEAAPEAXI@Z 0000000140093510 f i item_create.obj
 0001:00092510       ??_EItem_func_get_lock@@UEAAPEAXI@Z 0000000140093510 f i item_create.obj
 0001:000925a0       ??_EItem_func_release_lock@@UEAAPEAXI@Z 00000001400935a0 f i item_create.obj
 0001:000925a0       ??_GItem_func_release_lock@@UEAAPEAXI@Z 00000001400935a0 f i item_create.obj
 0001:00092630       ??_GItem_func_inet_aton@@UEAAPEAXI@Z 0000000140093630 f i item_create.obj
 0001:00092630       ??_EItem_func_inet_aton@@UEAAPEAXI@Z 0000000140093630 f i item_create.obj
 0001:00092690       ??_EItem_func_is_free_lock@@UEAAPEAXI@Z 0000000140093690 f i item_create.obj
 0001:00092690       ??_GItem_func_is_free_lock@@UEAAPEAXI@Z 0000000140093690 f i item_create.obj
 0001:00092720       ??_GItem_func_is_used_lock@@UEAAPEAXI@Z 0000000140093720 f i item_create.obj
 0001:00092720       ??_EItem_func_is_used_lock@@UEAAPEAXI@Z 0000000140093720 f i item_create.obj
 0001:000927b0       ??_EItem_func_found_rows@@UEAAPEAXI@Z 00000001400937b0 f i item_create.obj
 0001:000927b0       ??_GItem_func_found_rows@@UEAAPEAXI@Z 00000001400937b0 f i item_create.obj
 0001:00092810       ??_GItem_func_strcmp@@UEAAPEAXI@Z 0000000140093810 f i item_create.obj
 0001:00092810       ??_EItem_func_strcmp@@UEAAPEAXI@Z 0000000140093810 f i item_create.obj
 0001:000928e0       ??_GItem_func_coalesce@@UEAAPEAXI@Z 00000001400938e0 f i item_create.obj
 0001:000928e0       ??_EItem_func_coalesce@@UEAAPEAXI@Z 00000001400938e0 f i item_create.obj
 0001:00092940       ??_GItem_func_ifnull@@UEAAPEAXI@Z 0000000140093940 f i item_create.obj
 0001:00092940       ??_EItem_func_ifnull@@UEAAPEAXI@Z 0000000140093940 f i item_create.obj
 0001:000929a0       ??_EItem_func_nullif@@UEAAPEAXI@Z 00000001400939a0 f i item_create.obj
 0001:000929a0       ??_GItem_func_nullif@@UEAAPEAXI@Z 00000001400939a0 f i item_create.obj
 0001:00092a70       ??_EItem_func_md5@@UEAAPEAXI@Z 0000000140093a70 f i item_create.obj
 0001:00092a70       ??_GItem_func_md5@@UEAAPEAXI@Z 0000000140093a70 f i item_create.obj
 0001:00092b00       ??_GItem_func_sha@@UEAAPEAXI@Z 0000000140093b00 f i item_create.obj
 0001:00092b00       ??_EItem_func_sha@@UEAAPEAXI@Z 0000000140093b00 f i item_create.obj
 0001:00092b60       ??_EItem_func_aes_encrypt@@UEAAPEAXI@Z 0000000140093b60 f i item_create.obj
 0001:00092b60       ??_GItem_func_aes_encrypt@@UEAAPEAXI@Z 0000000140093b60 f i item_create.obj
 0001:00092bc0       ??_GItem_func_aes_decrypt@@UEAAPEAXI@Z 0000000140093bc0 f i item_create.obj
 0001:00092bc0       ??_EItem_func_aes_decrypt@@UEAAPEAXI@Z 0000000140093bc0 f i item_create.obj
 0001:00092c20       ??_GItem_func_reverse@@UEAAPEAXI@Z 0000000140093c20 f i item_create.obj
 0001:00092c20       ??_EItem_func_reverse@@UEAAPEAXI@Z 0000000140093c20 f i item_create.obj
 0001:00092cb0       ??_GItem_str_conv@@UEAAPEAXI@Z 0000000140093cb0 f i item_create.obj
 0001:00092cb0       ??_EItem_str_conv@@UEAAPEAXI@Z 0000000140093cb0 f i item_create.obj
 0001:00092d40       ??_EItem_func_lcase@@UEAAPEAXI@Z 0000000140093d40 f i item_create.obj
 0001:00092d40       ??_GItem_func_lcase@@UEAAPEAXI@Z 0000000140093d40 f i item_create.obj
 0001:00092dd0       ??_EItem_func_ucase@@UEAAPEAXI@Z 0000000140093dd0 f i item_create.obj
 0001:00092dd0       ??_GItem_func_ucase@@UEAAPEAXI@Z 0000000140093dd0 f i item_create.obj
 0001:00092e60       ??_GItem_func_trim@@UEAAPEAXI@Z 0000000140093e60 f i item_create.obj
 0001:00092e60       ??_EItem_func_trim@@UEAAPEAXI@Z 0000000140093e60 f i item_create.obj
 0001:00092f30       ??_EItem_func_ltrim@@UEAAPEAXI@Z 0000000140093f30 f i item_create.obj
 0001:00092f30       ??_GItem_func_ltrim@@UEAAPEAXI@Z 0000000140093f30 f i item_create.obj
 0001:00093000       ??_EItem_func_rtrim@@UEAAPEAXI@Z 0000000140094000 f i item_create.obj
 0001:00093000       ??_GItem_func_rtrim@@UEAAPEAXI@Z 0000000140094000 f i item_create.obj
 0001:000930d0       ??_EItem_func_soundex@@UEAAPEAXI@Z 00000001400940d0 f i item_create.obj
 0001:000930d0       ??_GItem_func_soundex@@UEAAPEAXI@Z 00000001400940d0 f i item_create.obj
 0001:00093160       ??_EItem_func_repeat@@UEAAPEAXI@Z 0000000140094160 f i item_create.obj
 0001:00093160       ??_GItem_func_repeat@@UEAAPEAXI@Z 0000000140094160 f i item_create.obj
 0001:000931f0       ??_EItem_func_rpad@@UEAAPEAXI@Z 00000001400941f0 f i item_create.obj
 0001:000931f0       ??_GItem_func_rpad@@UEAAPEAXI@Z 00000001400941f0 f i item_create.obj
 0001:000932c0       ??_GItem_func_lpad@@UEAAPEAXI@Z 00000001400942c0 f i item_create.obj
 0001:000932c0       ??_EItem_func_lpad@@UEAAPEAXI@Z 00000001400942c0 f i item_create.obj
 0001:00093390       ??_GItem_func_conv@@UEAAPEAXI@Z 0000000140094390 f i item_create.obj
 0001:00093390       ??_EItem_func_conv@@UEAAPEAXI@Z 0000000140094390 f i item_create.obj
 0001:000933f0       ??_GItem_func_hex@@UEAAPEAXI@Z 00000001400943f0 f i item_create.obj
 0001:000933f0       ??_EItem_func_hex@@UEAAPEAXI@Z 00000001400943f0 f i item_create.obj
 0001:00093480       ??_EItem_func_unhex@@UEAAPEAXI@Z 0000000140094480 f i item_create.obj
 0001:00093480       ??_GItem_func_unhex@@UEAAPEAXI@Z 0000000140094480 f i item_create.obj
 0001:00093510       ??_EItem_func_binary@@UEAAPEAXI@Z 0000000140094510 f i item_create.obj
 0001:00093510       ??_GItem_func_binary@@UEAAPEAXI@Z 0000000140094510 f i item_create.obj
 0001:00093570       ??_GItem_load_file@@UEAAPEAXI@Z 0000000140094570 f i item_create.obj
 0001:00093570       ??_EItem_load_file@@UEAAPEAXI@Z 0000000140094570 f i item_create.obj
 0001:00093600       ??_EItem_func_inet_ntoa@@UEAAPEAXI@Z 0000000140094600 f i item_create.obj
 0001:00093600       ??_GItem_func_inet_ntoa@@UEAAPEAXI@Z 0000000140094600 f i item_create.obj
 0001:00093660       ??_EItem_func_quote@@UEAAPEAXI@Z 0000000140094660 f i item_create.obj
 0001:00093660       ??_GItem_func_quote@@UEAAPEAXI@Z 0000000140094660 f i item_create.obj
 0001:000936f0       ??_EItem_func_crc32@@UEAAPEAXI@Z 00000001400946f0 f i item_create.obj
 0001:000936f0       ??_GItem_func_crc32@@UEAAPEAXI@Z 00000001400946f0 f i item_create.obj
 0001:00093780       ??_EItem_func_uncompressed_length@@UEAAPEAXI@Z 0000000140094780 f i item_create.obj
 0001:00093780       ??_GItem_func_uncompressed_length@@UEAAPEAXI@Z 0000000140094780 f i item_create.obj
 0001:00093810       ??_EItem_func_compress@@UEAAPEAXI@Z 0000000140094810 f i item_create.obj
 0001:00093810       ??_GItem_func_compress@@UEAAPEAXI@Z 0000000140094810 f i item_create.obj
 0001:000938a0       ??_EItem_func_uncompress@@UEAAPEAXI@Z 00000001400948a0 f i item_create.obj
 0001:000938a0       ??_GItem_func_uncompress@@UEAAPEAXI@Z 00000001400948a0 f i item_create.obj
 0001:00093930       ??_GItem_func_uuid@@UEAAPEAXI@Z 0000000140094930 f i item_create.obj
 0001:00093930       ??_EItem_func_uuid@@UEAAPEAXI@Z 0000000140094930 f i item_create.obj
 0001:00093990       ??_EItem_geometry_func@@UEAAPEAXI@Z 0000000140094990 f i item_create.obj
 0001:00093990       ??_GItem_geometry_func@@UEAAPEAXI@Z 0000000140094990 f i item_create.obj
 0001:000939f0       ??_EItem_func_as_wkt@@UEAAPEAXI@Z 00000001400949f0 f i item_create.obj
 0001:000939f0       ??_GItem_func_as_wkt@@UEAAPEAXI@Z 00000001400949f0 f i item_create.obj
 0001:00093a50       ??_GItem_func_as_wkb@@UEAAPEAXI@Z 0000000140094a50 f i item_create.obj
 0001:00093a50       ??_EItem_func_as_wkb@@UEAAPEAXI@Z 0000000140094a50 f i item_create.obj
 0001:00093ab0       ??_EItem_func_geometry_type@@UEAAPEAXI@Z 0000000140094ab0 f i item_create.obj
 0001:00093ab0       ??_GItem_func_geometry_type@@UEAAPEAXI@Z 0000000140094ab0 f i item_create.obj
 0001:00093b10       ??_GItem_func_centroid@@UEAAPEAXI@Z 0000000140094b10 f i item_create.obj
 0001:00093b10       ??_EItem_func_centroid@@UEAAPEAXI@Z 0000000140094b10 f i item_create.obj
 0001:00093b70       ??_EItem_func_envelope@@UEAAPEAXI@Z 0000000140094b70 f i item_create.obj
 0001:00093b70       ??_GItem_func_envelope@@UEAAPEAXI@Z 0000000140094b70 f i item_create.obj
 0001:00093bd0       ??_GItem_func_point@@UEAAPEAXI@Z 0000000140094bd0 f i item_create.obj
 0001:00093bd0       ??_EItem_func_point@@UEAAPEAXI@Z 0000000140094bd0 f i item_create.obj
 0001:00093c30       ??_EItem_func_spatial_decomp@@UEAAPEAXI@Z 0000000140094c30 f i item_create.obj
 0001:00093c30       ??_GItem_func_spatial_decomp@@UEAAPEAXI@Z 0000000140094c30 f i item_create.obj
 0001:00093c90       ??_EItem_func_spatial_decomp_n@@UEAAPEAXI@Z 0000000140094c90 f i item_create.obj
 0001:00093c90       ??_GItem_func_spatial_decomp_n@@UEAAPEAXI@Z 0000000140094c90 f i item_create.obj
 0001:00093cf0       ??_GItem_func_spatial_rel@@UEAAPEAXI@Z 0000000140094cf0 f i item_create.obj
 0001:00093cf0       ??_EItem_func_spatial_rel@@UEAAPEAXI@Z 0000000140094cf0 f i item_create.obj
 0001:00093dc0       ??_GItem_func_isempty@@UEAAPEAXI@Z 0000000140094dc0 f i item_create.obj
 0001:00093dc0       ??_EItem_func_isempty@@UEAAPEAXI@Z 0000000140094dc0 f i item_create.obj
 0001:00093e20       ??_GItem_func_issimple@@UEAAPEAXI@Z 0000000140094e20 f i item_create.obj
 0001:00093e20       ??_EItem_func_issimple@@UEAAPEAXI@Z 0000000140094e20 f i item_create.obj
 0001:00093e80       ??_EItem_func_isclosed@@UEAAPEAXI@Z 0000000140094e80 f i item_create.obj
 0001:00093e80       ??_GItem_func_isclosed@@UEAAPEAXI@Z 0000000140094e80 f i item_create.obj
 0001:00093ee0       ??_GItem_func_dimension@@UEAAPEAXI@Z 0000000140094ee0 f i item_create.obj
 0001:00093ee0       ??_EItem_func_dimension@@UEAAPEAXI@Z 0000000140094ee0 f i item_create.obj
 0001:00093f70       ??_EItem_func_x@@UEAAPEAXI@Z 0000000140094f70 f i item_create.obj
 0001:00093f70       ??_GItem_func_x@@UEAAPEAXI@Z 0000000140094f70 f i item_create.obj
 0001:00094000       ??_GItem_func_y@@UEAAPEAXI@Z 0000000140095000 f i item_create.obj
 0001:00094000       ??_EItem_func_y@@UEAAPEAXI@Z 0000000140095000 f i item_create.obj
 0001:00094090       ??_EItem_func_numgeometries@@UEAAPEAXI@Z 0000000140095090 f i item_create.obj
 0001:00094090       ??_GItem_func_numgeometries@@UEAAPEAXI@Z 0000000140095090 f i item_create.obj
 0001:00094120       ??_GItem_func_numinteriorring@@UEAAPEAXI@Z 0000000140095120 f i item_create.obj
 0001:00094120       ??_EItem_func_numinteriorring@@UEAAPEAXI@Z 0000000140095120 f i item_create.obj
 0001:000941b0       ??_GItem_func_numpoints@@UEAAPEAXI@Z 00000001400951b0 f i item_create.obj
 0001:000941b0       ??_EItem_func_numpoints@@UEAAPEAXI@Z 00000001400951b0 f i item_create.obj
 0001:00094240       ??_GItem_func_area@@UEAAPEAXI@Z 0000000140095240 f i item_create.obj
 0001:00094240       ??_EItem_func_area@@UEAAPEAXI@Z 0000000140095240 f i item_create.obj
 0001:000942d0       ??_GItem_func_glength@@UEAAPEAXI@Z 00000001400952d0 f i item_create.obj
 0001:000942d0       ??_EItem_func_glength@@UEAAPEAXI@Z 00000001400952d0 f i item_create.obj
 0001:00094360       ??_GItem_func_srid@@UEAAPEAXI@Z 0000000140095360 f i item_create.obj
 0001:00094360       ??_EItem_func_srid@@UEAAPEAXI@Z 0000000140095360 f i item_create.obj
 0001:000943f0       ??_GItem_func_period_add@@UEAAPEAXI@Z 00000001400953f0 f i item_create.obj
 0001:000943f0       ??_EItem_func_period_add@@UEAAPEAXI@Z 00000001400953f0 f i item_create.obj
 0001:00094450       ??_GItem_func_period_diff@@UEAAPEAXI@Z 0000000140095450 f i item_create.obj
 0001:00094450       ??_EItem_func_period_diff@@UEAAPEAXI@Z 0000000140095450 f i item_create.obj
 0001:000944b0       ??_GItem_func_to_days@@UEAAPEAXI@Z 00000001400954b0 f i item_create.obj
 0001:000944b0       ??_EItem_func_to_days@@UEAAPEAXI@Z 00000001400954b0 f i item_create.obj
 0001:00094510       ??_GItem_func_dayofmonth@@UEAAPEAXI@Z 0000000140095510 f i item_create.obj
 0001:00094510       ??_EItem_func_dayofmonth@@UEAAPEAXI@Z 0000000140095510 f i item_create.obj
 0001:00094570       ??_EItem_func_month@@UEAAPEAXI@Z 0000000140095570 f i item_create.obj
 0001:00094570       ??_GItem_func_month@@UEAAPEAXI@Z 0000000140095570 f i item_create.obj
 0001:000945d0       ??_EItem_func_monthname@@UEAAPEAXI@Z 00000001400955d0 f i item_create.obj
 0001:000945d0       ??_GItem_func_monthname@@UEAAPEAXI@Z 00000001400955d0 f i item_create.obj
 0001:00094630       ??_GItem_func_dayofyear@@UEAAPEAXI@Z 0000000140095630 f i item_create.obj
 0001:00094630       ??_EItem_func_dayofyear@@UEAAPEAXI@Z 0000000140095630 f i item_create.obj
 0001:00094690       ??_EItem_func_week@@UEAAPEAXI@Z 0000000140095690 f i item_create.obj
 0001:00094690       ??_GItem_func_week@@UEAAPEAXI@Z 0000000140095690 f i item_create.obj
 0001:000946f0       ??_GItem_func_year@@UEAAPEAXI@Z 00000001400956f0 f i item_create.obj
 0001:000946f0       ??_EItem_func_year@@UEAAPEAXI@Z 00000001400956f0 f i item_create.obj
 0001:00094750       ??_GItem_func_weekday@@UEAAPEAXI@Z 0000000140095750 f i item_create.obj
 0001:00094750       ??_EItem_func_weekday@@UEAAPEAXI@Z 0000000140095750 f i item_create.obj
 0001:000947b0       ??_EItem_func_dayname@@UEAAPEAXI@Z 00000001400957b0 f i item_create.obj
 0001:000947b0       ??_GItem_func_dayname@@UEAAPEAXI@Z 00000001400957b0 f i item_create.obj
 0001:00094810       ??_EItem_func_time_to_sec@@UEAAPEAXI@Z 0000000140095810 f i item_create.obj
 0001:00094810       ??_GItem_func_time_to_sec@@UEAAPEAXI@Z 0000000140095810 f i item_create.obj
 0001:00094870       ??_GItem_date@@UEAAPEAXI@Z 0000000140095870 f i item_create.obj
 0001:00094870       ??_EItem_date@@UEAAPEAXI@Z 0000000140095870 f i item_create.obj
 0001:000948d0       ??_GItem_date_func@@UEAAPEAXI@Z 00000001400958d0 f i item_create.obj
 0001:000948d0       ??_EItem_date_func@@UEAAPEAXI@Z 00000001400958d0 f i item_create.obj
 0001:00094930       ??_GItem_str_timefunc@@UEAAPEAXI@Z 0000000140095930 f i item_create.obj
 0001:00094930       ??_EItem_str_timefunc@@UEAAPEAXI@Z 0000000140095930 f i item_create.obj
 0001:00094990       ??_GItem_func_from_days@@UEAAPEAXI@Z 0000000140095990 f i item_create.obj
 0001:00094990       ??_EItem_func_from_days@@UEAAPEAXI@Z 0000000140095990 f i item_create.obj
 0001:000949f0       ??_GItem_func_date_format@@UEAAPEAXI@Z 00000001400959f0 f i item_create.obj
 0001:000949f0       ??_EItem_func_date_format@@UEAAPEAXI@Z 00000001400959f0 f i item_create.obj
 0001:00094a80       ??_EItem_func_sec_to_time@@UEAAPEAXI@Z 0000000140095a80 f i item_create.obj
 0001:00094a80       ??_GItem_func_sec_to_time@@UEAAPEAXI@Z 0000000140095a80 f i item_create.obj
 0001:00094ae0       ??_EItem_typecast@@UEAAPEAXI@Z 0000000140095ae0 f i item_create.obj
 0001:00094ae0       ??_GItem_typecast@@UEAAPEAXI@Z 0000000140095ae0 f i item_create.obj
 0001:00094b40       ??_EItem_typecast_maybe_null@@UEAAPEAXI@Z 0000000140095b40 f i item_create.obj
 0001:00094b40       ??_GItem_typecast_maybe_null@@UEAAPEAXI@Z 0000000140095b40 f i item_create.obj
 0001:00094ba0       ??_EItem_char_typecast@@UEAAPEAXI@Z 0000000140095ba0 f i item_create.obj
 0001:00094ba0       ??_GItem_char_typecast@@UEAAPEAXI@Z 0000000140095ba0 f i item_create.obj
 0001:00094c30       ??_GItem_date_typecast@@UEAAPEAXI@Z 0000000140095c30 f i item_create.obj
 0001:00094c30       ??_EItem_date_typecast@@UEAAPEAXI@Z 0000000140095c30 f i item_create.obj
 0001:00094c90       ??_EItem_time_typecast@@UEAAPEAXI@Z 0000000140095c90 f i item_create.obj
 0001:00094c90       ??_GItem_time_typecast@@UEAAPEAXI@Z 0000000140095c90 f i item_create.obj
 0001:00094cf0       ??_GItem_datetime_typecast@@UEAAPEAXI@Z 0000000140095cf0 f i item_create.obj
 0001:00094cf0       ??_EItem_datetime_typecast@@UEAAPEAXI@Z 0000000140095cf0 f i item_create.obj
 0001:00094d50       ??_GItem_func_makedate@@UEAAPEAXI@Z 0000000140095d50 f i item_create.obj
 0001:00094d50       ??_EItem_func_makedate@@UEAAPEAXI@Z 0000000140095d50 f i item_create.obj
 0001:00094db0       ??_GItem_func_add_time@@UEAAPEAXI@Z 0000000140095db0 f i item_create.obj
 0001:00094db0       ??_EItem_func_add_time@@UEAAPEAXI@Z 0000000140095db0 f i item_create.obj
 0001:00094e10       ??_EItem_func_timediff@@UEAAPEAXI@Z 0000000140095e10 f i item_create.obj
 0001:00094e10       ??_GItem_func_timediff@@UEAAPEAXI@Z 0000000140095e10 f i item_create.obj
 0001:00094e70       ??_EItem_func_maketime@@UEAAPEAXI@Z 0000000140095e70 f i item_create.obj
 0001:00094e70       ??_GItem_func_maketime@@UEAAPEAXI@Z 0000000140095e70 f i item_create.obj
 0001:00094ed0       ??_EItem_func_str_to_date@@UEAAPEAXI@Z 0000000140095ed0 f i item_create.obj
 0001:00094ed0       ??_GItem_func_str_to_date@@UEAAPEAXI@Z 0000000140095ed0 f i item_create.obj
 0001:00094f30       ??_EItem_func_last_day@@UEAAPEAXI@Z 0000000140095f30 f i item_create.obj
 0001:00094f30       ??_GItem_func_last_day@@UEAAPEAXI@Z 0000000140095f30 f i item_create.obj
 0001:00094f90       ?create_func_bin@@YAPEAVItem@@PEAV1@@Z 0000000140095f90 f   item_create.obj
 0001:00095140       ?create_func_cot@@YAPEAVItem@@PEAV1@@Z 0000000140096140 f   item_create.obj
 0001:00095300       ?create_func_oct@@YAPEAVItem@@PEAV1@@Z 0000000140096300 f   item_create.obj
 0001:000954b0       ?create_func_pi@@YAPEAVItem@@XZ 00000001400964b0 f   item_create.obj
 0001:00095550       ?create_func_weekofyear@@YAPEAVItem@@PEAV1@@Z 0000000140096550 f   item_create.obj
 0001:000957b0       ?is_set@?$Bitmap@$0EA@@@QEBADI@Z 00000001400967b0 f i item_func.obj
 0001:000957d0       ??3String@@SAXPEAX_K@Z     00000001400967d0 f i item_func.obj
 0001:000957e0       ??AString@@QEBAAEADK@Z     00000001400967e0 f i item_func.obj
 0001:000957f0       ?my_decimal_floor@@YAHIPEBVmy_decimal@@PEAV1@@Z 00000001400967f0 f i item_func.obj
 0001:00095840       ?my_decimal_ceiling@@YAHIPEBVmy_decimal@@PEAV1@@Z 0000000140096840 f i item_func.obj
 0001:00095890       ?my_decimal_sub@@YAHIPEAVmy_decimal@@PEBV1@1@Z 0000000140096890 f i item_func.obj
 0001:00095920       ?my_decimal_mul@@YAHIPEAVmy_decimal@@PEBV1@1@Z 0000000140096920 f i item_func.obj
 0001:000959b0       ?my_decimal_mod@@YAHIPEAVmy_decimal@@PEBV1@1@Z 00000001400969b0 f i item_func.obj
 0001:00095a40       ?my_decimal_intg@@YAHPEBVmy_decimal@@@Z 0000000140096a40 f i item_func.obj
 0001:00095a50       ?move_field@Field@@QEAAXPEAD@Z 0000000140096a50 f i item_func.obj
 0001:00095a60       ??0Field_long@@QEAA@K_NPEBDPEAUst_table@@0@Z 0000000140096a60 f i item_func.obj
 0001:00095af0       ??0Field_longlong@@QEAA@K_NPEBDPEAUst_table@@0@Z 0000000140096af0 f i item_func.obj
 0001:00095b80       ?agg_arg_collations_for_comparison@Item_func@@QEAA_NAEAVDTCollation@@PEAPEAVItem@@II@Z 0000000140096b80 f i item_func.obj
 0001:00095be0       ?fix_result@Item_dec_func@@QEAANN@Z 0000000140096be0 f i item_func.obj
 0001:00095c40       ?get_name@Item_func_get_user_var@@QEAA?AUst_lex_string@@XZ 0000000140096c40 f i item_func.obj
 0001:00095c60       ??1?$List@Vkey_part_spec@@@@QEAA@XZ 0000000140096c60 f i item_func.obj
 0001:00095c70       ??0set_var_base@@QEAA@XZ   0000000140096c70 f i item_func.obj
 0001:00095c90       ??1set_var_base@@UEAA@XZ   0000000140096c90 f i item_func.obj
 0001:00095ca0       ?light_check@set_var_base@@UEAAHPEAVTHD@@@Z 0000000140096ca0 f i item_func.obj
 0001:00095cb0       ?no_support_one_shot@set_var_base@@UEAA_NXZ 0000000140096cb0 f i item_func.obj
 0001:00095cc0       ??_Eset_var_base@@UEAAPEAXI@Z 0000000140096cc0 f i item_func.obj
 0001:00095cc0       ??_Gset_var_base@@UEAAPEAXI@Z 0000000140096cc0 f i item_func.obj
 0001:00095ce0       ??0set_var_user@@QEAA@PEAVItem_func_set_user_var@@@Z 0000000140096ce0 f i item_func.obj
 0001:00095d00       ??1set_var_user@@UEAA@XZ   0000000140096d00 f i item_func.obj
 0001:00095d10       ??1st_select_lex_node@@UEAA@XZ 0000000140096d10 f i item_func.obj
 0001:00095d20       ??3st_select_lex_node@@SAXPEAX_K@Z 0000000140096d20 f i item_func.obj
 0001:00095d30       ?set_lock_for_tables@st_select_lex_node@@UEAAXW4thr_lock_type@@@Z 0000000140096d30 f i item_func.obj
 0001:00095d40       ??_Gst_select_lex_node@@UEAAPEAXI@Z 0000000140096d40 f i item_func.obj
 0001:00095d40       ??_Est_select_lex_node@@UEAAPEAXI@Z 0000000140096d40 f i item_func.obj
 0001:00095d60       ??1Name_resolution_context@@QEAA@XZ 0000000140096d60 f i item_func.obj
 0001:00095d70       ??1?$List@VItem_func_match@@@@QEAA@XZ 0000000140096d70 f i item_func.obj
 0001:00095d80       ??1?$List@UTABLE_LIST@@@@QEAA@XZ 0000000140096d80 f i item_func.obj
 0001:00095d90       ??1?$List@V?$List@VItem@@@@@@QEAA@XZ 0000000140096d90 f i item_func.obj
 0001:00095da0       ??1?$List@VItem_outer_ref@@@@QEAA@XZ 0000000140096da0 f i item_func.obj
 0001:00095db0       ??1?$List@Ust_udf_func@@@@QEAA@XZ 0000000140096db0 f i item_func.obj
 0001:00095dc0       ??1?$List@VAlter_drop@@@@QEAA@XZ 0000000140096dc0 f i item_func.obj
 0001:00095dd0       ??1?$List@VAlter_column@@@@QEAA@XZ 0000000140096dd0 f i item_func.obj
 0001:00095de0       ??1?$List@VKey@@@@QEAA@XZ  0000000140096de0 f i item_func.obj
 0001:00095df0       ??1?$List@Vcreate_field@@@@QEAA@XZ 0000000140096df0 f i item_func.obj
 0001:00095e00       ??1Query_tables_list@@QEAA@XZ 0000000140096e00 f i item_func.obj
 0001:00095e10       ??1st_select_lex_unit@@UEAA@XZ 0000000140096e10 f i item_func.obj
 0001:00095e20       ??1?$List@Ust_lex_user@@@@QEAA@XZ 0000000140096e20 f i item_func.obj
 0001:00095e30       ??1?$List@VLEX_COLUMN@@@@QEAA@XZ 0000000140096e30 f i item_func.obj
 0001:00095e40       ??1?$List@Vset_var_base@@@@QEAA@XZ 0000000140096e40 f i item_func.obj
 0001:00095e50       ??1?$List@VItem_param@@@@QEAA@XZ 0000000140096e50 f i item_func.obj
 0001:00095e60       ??1?$List@UName_resolution_context@@@@QEAA@XZ 0000000140096e60 f i item_func.obj
 0001:00095e70       ??1Alter_info@@QEAA@XZ     0000000140096e70 f i item_func.obj
 0001:00095e80       ?found_rows@THD@@QEAA_KXZ  0000000140096e80 f i item_func.obj
 0001:00095e90       ?fatal_error@THD@@QEAAXXZ  0000000140096e90 f i item_func.obj
 0001:00095eb0       ?killed_errno@THD@@QEBAHXZ 0000000140096eb0 f i item_func.obj
 0001:00095ed0       ?send_kill_message@THD@@QEBAXXZ 0000000140096ed0 f i item_func.obj
 0001:00095f40       ?check_reserved_words@@YA_NPEAUst_lex_string@@@Z 0000000140096f40 f   item_func.obj
 0001:00095fe0       ?eval_const_cond@@YA_NPEAVItem@@@Z 0000000140096fe0 f   item_func.obj
 0001:00096000       ?fix_fields@Item_func@@UEAA_NPEAVTHD@@PEAPEAVItem@@@Z 0000000140097000 f   item_func.obj
 0001:00096210       ?walk@Item_func@@UEAA_NP8Item@@EAA_NPEAE@Z0@Z 0000000140097210 f   item_func.obj
 0001:000962c0       ?traverse_cond@Item_func@@UEAAXP6AXPEBVItem@@PEAX@Z1W4traverse_order@2@@Z 00000001400972c0 f   item_func.obj
 0001:000963f0       ?transform@Item_func@@UEAAPEAVItem@@P82@EAAPEAV2@PEAE@Z0@Z 00000001400973f0 f   item_func.obj
 0001:00096500       ?compile@Item_func@@UEAAPEAVItem@@P82@EAA_NPEAPEAE@Z0P82@EAAPEAV2@PEAE@Z2@Z 0000000140097500 f   item_func.obj
 0001:00096690       ?split_sum_func@Item_func@@UEAAXPEAVTHD@@PEAPEAVItem@@AEAV?$List@VItem@@@@@Z 0000000140097690 f   item_func.obj
 0001:00096730       ?update_used_tables@Item_func@@UEAAXXZ 0000000140097730 f   item_func.obj
 0001:000967f0       ?used_tables@Item_func@@UEBA_KXZ 00000001400977f0 f   item_func.obj
 0001:00096800       ?not_null_tables@Item_func@@UEBA_KXZ 0000000140097800 f   item_func.obj
 0001:00096810       ?print_args@Item_func@@QEAAXPEAVString@@I@Z 0000000140097810 f   item_func.obj
 0001:000968f0       ?print_op@Item_func@@QEAAXPEAVString@@@Z 00000001400978f0 f   item_func.obj
 0001:00096ac0       ?eq@Item_func@@UEBA_NPEBVItem@@_N@Z 0000000140097ac0 f   item_func.obj
 0001:00096c70       ?is_expensive_processor@Item_func@@UEAA_NPEAE@Z 0000000140097c70 f   item_func.obj
 0001:00096c80       ?val_decimal@Item_func@@UEAAPEAVmy_decimal@@PEAV2@@Z 0000000140097c80 f   item_func.obj
 0001:00096ce0       ?val_str@Item_real_func@@UEAAPEAVString@@PEAV2@@Z 0000000140097ce0 f   item_func.obj
 0001:00096d50       ?val_decimal@Item_real_func@@UEAAPEAVmy_decimal@@PEAV2@@Z 0000000140097d50 f   item_func.obj
 0001:00096de0       ?fix_num_length_and_dec@Item_func@@UEAAXXZ 0000000140097de0 f   item_func.obj
 0001:00096e80       ?fix_num_length_and_dec@Item_func_numhybrid@@UEAAXXZ 0000000140097e80 f   item_func.obj
 0001:00096e90       ?count_decimal_length@Item_func@@QEAAXXZ 0000000140097e90 f   item_func.obj
 0001:00096ff0       ?count_only_length@Item_func@@QEAAXXZ 0000000140097ff0 f   item_func.obj
 0001:00097060       ?count_real_length@Item_func@@QEAAXXZ 0000000140098060 f   item_func.obj
 0001:00097130       ?signal_divide_by_null@Item_func@@QEAAXXZ 0000000140098130 f   item_func.obj
 0001:000971a0       ?get_tmp_table_item@Item_func@@UEAAPEAVItem@@PEAVTHD@@@Z 00000001400981a0 f   item_func.obj
 0001:00097230       ?val_real@Item_int_func@@UEAANXZ 0000000140098230 f   item_func.obj
 0001:00097280       ?val_str@Item_int_func@@UEAAPEAVString@@PEAV2@@Z 0000000140098280 f   item_func.obj
 0001:00097300       ?fix_length_and_dec@Item_func_connection_id@@UEAAXXZ 0000000140098300 f   item_func.obj
 0001:00097310       ?fix_fields@Item_func_connection_id@@UEAA_NPEAVTHD@@PEAPEAVItem@@@Z 0000000140098310 f   item_func.obj
 0001:00097370       ?find_num_type@Item_num_op@@UEAAXXZ 0000000140098370 f   item_func.obj
 0001:00097470       ?find_num_type@Item_func_num1@@UEAAXXZ 0000000140098470 f   item_func.obj
 0001:00097500       ?fix_num_length_and_dec@Item_func_num1@@UEAAXXZ 0000000140098500 f   item_func.obj
 0001:00097520       ?fix_length_and_dec@Item_func_numhybrid@@UEAAXXZ 0000000140098520 f   item_func.obj
 0001:00097550       ?val_decimal@Item_func_numhybrid@@UEAAPEAVmy_decimal@@PEAV2@@Z 0000000140098550 f   item_func.obj
 0001:000976c0       ?print@Item_func_signed@@UEAAXPEAVString@@@Z 00000001400986c0 f   item_func.obj
 0001:00097730       ?print@Item_func_unsigned@@UEAAXPEAVString@@@Z 0000000140098730 f   item_func.obj
 0001:000977a0       ?print@Item_decimal_typecast@@UEAAXPEAVString@@@Z 00000001400987a0 f   item_func.obj
 0001:00097980       ?real_op@Item_func_plus@@UEAANXZ 0000000140098980 f   item_func.obj
 0001:00097a20       ?int_op@Item_func_plus@@UEAA_JXZ 0000000140098a20 f   item_func.obj
 0001:00097ab0       ?result_precision@Item_func_additive_op@@UEAAXXZ 0000000140098ab0 f   item_func.obj
 0001:00097be0       ?fix_length_and_dec@Item_func_minus@@UEAAXXZ 0000000140098be0 f   item_func.obj
 0001:00097c40       ?real_op@Item_func_minus@@UEAANXZ 0000000140098c40 f   item_func.obj
 0001:00097ce0       ?int_op@Item_func_minus@@UEAA_JXZ 0000000140098ce0 f   item_func.obj
 0001:00097d70       ?real_op@Item_func_mul@@UEAANXZ 0000000140098d70 f   item_func.obj
 0001:00097e10       ?int_op@Item_func_mul@@UEAA_JXZ 0000000140098e10 f   item_func.obj
 0001:00097ea0       ?result_precision@Item_func_mul@@UEAAXXZ 0000000140098ea0 f   item_func.obj
 0001:00097fb0       ?real_op@Item_func_div@@UEAANXZ 0000000140098fb0 f   item_func.obj
 0001:00098060       ?result_precision@Item_func_div@@UEAAXXZ 0000000140099060 f   item_func.obj
 0001:00098190       ?fix_length_and_dec@Item_func_div@@UEAAXXZ 0000000140099190 f   item_func.obj
 0001:000982d0       ?val_int@Item_func_int_div@@UEAA_JXZ 00000001400992d0 f   item_func.obj
 0001:00098390       ?fix_length_and_dec@Item_func_int_div@@UEAAXXZ 0000000140099390 f   item_func.obj
 0001:00098410       ?int_op@Item_func_mod@@UEAA_JXZ 0000000140099410 f   item_func.obj
 0001:00098510       ?real_op@Item_func_mod@@UEAANXZ 0000000140099510 f   item_func.obj
 0001:000985c0       ?result_precision@Item_func_mod@@UEAAXXZ 00000001400995c0 f   item_func.obj
 0001:00098620       ?fix_length_and_dec@Item_func_mod@@UEAAXXZ 0000000140099620 f   item_func.obj
 0001:00098650       ?real_op@Item_func_neg@@UEAANXZ 0000000140099650 f   item_func.obj
 0001:000986a0       ?int_op@Item_func_neg@@UEAA_JXZ 00000001400996a0 f   item_func.obj
 0001:000986e0       ?fix_num_length_and_dec@Item_func_neg@@UEAAXXZ 00000001400996e0 f   item_func.obj
 0001:00098710       ?fix_length_and_dec@Item_func_neg@@UEAAXXZ 0000000140099710 f   item_func.obj
 0001:000987a0       ?real_op@Item_func_abs@@UEAANXZ 00000001400997a0 f   item_func.obj
 0001:000987e0       ?int_op@Item_func_abs@@UEAA_JXZ 00000001400997e0 f   item_func.obj
 0001:00098840       ?fix_length_and_dec@Item_func_abs@@UEAAXXZ 0000000140099840 f   item_func.obj
 0001:00098870       ?val_real@Item_func_ln@@UEAANXZ 0000000140099870 f   item_func.obj
 0001:000988f0       ?val_real@Item_func_log@@UEAANXZ 00000001400998f0 f   item_func.obj
 0001:00098a10       ?val_real@Item_func_log2@@UEAANXZ 0000000140099a10 f   item_func.obj
 0001:00098aa0       ?val_real@Item_func_log10@@UEAANXZ 0000000140099aa0 f   item_func.obj
 0001:00098b20       ?val_real@Item_func_exp@@UEAANXZ 0000000140099b20 f   item_func.obj
 0001:00098b70       ?val_real@Item_func_sqrt@@UEAANXZ 0000000140099b70 f   item_func.obj
 0001:00098bd0       ?val_real@Item_func_pow@@UEAANXZ 0000000140099bd0 f   item_func.obj
 0001:00098c70       ?val_real@Item_func_acos@@UEAANXZ 0000000140099c70 f   item_func.obj
 0001:00098d40       ?val_real@Item_func_asin@@UEAANXZ 0000000140099d40 f   item_func.obj
 0001:00098e10       ?val_real@Item_func_atan@@UEAANXZ 0000000140099e10 f   item_func.obj
 0001:00098ef0       ?val_real@Item_func_cos@@UEAANXZ 0000000140099ef0 f   item_func.obj
 0001:00098f80       ?val_real@Item_func_sin@@UEAANXZ 0000000140099f80 f   item_func.obj
 0001:00099010       ?val_real@Item_func_tan@@UEAANXZ 000000014009a010 f   item_func.obj
 0001:000990a0       ?val_int@Item_func_shift_left@@UEAA_JXZ 000000014009a0a0 f   item_func.obj
 0001:00099130       ?val_int@Item_func_shift_right@@UEAA_JXZ 000000014009a130 f   item_func.obj
 0001:000991c0       ?val_int@Item_func_bit_neg@@UEAA_JXZ 000000014009a1c0 f   item_func.obj
 0001:00099210       ?fix_length_and_dec@Item_func_integer@@UEAAXXZ 000000014009a210 f   item_func.obj
 0001:00099260       ?fix_num_length_and_dec@Item_func_int_val@@UEAAXXZ 000000014009a260 f   item_func.obj
 0001:000992c0       ?find_num_type@Item_func_int_val@@UEAAXXZ 000000014009a2c0 f   item_func.obj
 0001:00099380       ?real_op@Item_func_ceiling@@UEAANXZ 000000014009a380 f   item_func.obj
 0001:000993d0       ?real_op@Item_func_floor@@UEAANXZ 000000014009a3d0 f   item_func.obj
 0001:00099420       ?fix_length_and_dec@Item_func_round@@UEAAXXZ 000000014009a420 f   item_func.obj
 0001:00099720       ?my_double_round@@YANN_J_N1@Z 000000014009a720 f   item_func.obj
 0001:00099910       ?real_op@Item_func_round@@UEAANXZ 000000014009a910 f   item_func.obj
 0001:00099a00       ?int_op@Item_func_round@@UEAA_JXZ 000000014009aa00 f   item_func.obj
 0001:00099bb0       ?fix_fields@Item_func_rand@@UEAA_NPEAVTHD@@PEAPEAVItem@@@Z 000000014009abb0 f   item_func.obj
 0001:00099d30       ?update_used_tables@Item_func_rand@@UEAAXXZ 000000014009ad30 f   item_func.obj
 0001:00099d60       ?val_real@Item_func_rand@@UEAANXZ 000000014009ad60 f   item_func.obj
 0001:00099d70       ?val_int@Item_func_sign@@UEAA_JXZ 000000014009ad70 f   item_func.obj
 0001:00099de0       ?val_real@Item_func_units@@UEAANXZ 000000014009ade0 f   item_func.obj
 0001:00099e40       ?fix_length_and_dec@Item_func_min_max@@UEAAXXZ 000000014009ae40 f   item_func.obj
 0001:0009a140       ?cmp_datetimes@Item_func_min_max@@QEAAIPEA_K@Z 000000014009b140 f   item_func.obj
 0001:0009a2a0       ?val_real@Item_func_min_max@@UEAANXZ 000000014009b2a0 f   item_func.obj
 0001:0009a3e0       ?val_int@Item_func_min_max@@UEAA_JXZ 000000014009b3e0 f   item_func.obj
 0001:0009a4f0       ?val_int@Item_func_length@@UEAA_JXZ 000000014009b4f0 f   item_func.obj
 0001:0009a540       ?val_int@Item_func_char_length@@UEAA_JXZ 000000014009b540 f   item_func.obj
 0001:0009a590       ?val_int@Item_func_coercibility@@UEAA_JXZ 000000014009b590 f   item_func.obj
 0001:0009a5b0       ?fix_length_and_dec@Item_func_locate@@UEAAXXZ 000000014009b5b0 f   item_func.obj
 0001:0009a620       ?val_int@Item_func_locate@@UEAA_JXZ 000000014009b620 f   item_func.obj
 0001:0009a7a0       ?print@Item_func_locate@@UEAAXPEAVString@@@Z 000000014009b7a0 f   item_func.obj
 0001:0009a8f0       ?fix_length_and_dec@Item_func_field@@UEAAXXZ 000000014009b8f0 f   item_func.obj
 0001:0009a9f0       ?val_int@Item_func_ascii@@UEAA_JXZ 000000014009b9f0 f   item_func.obj
 0001:0009aa60       ?val_int@Item_func_ord@@UEAA_JXZ 000000014009ba60 f   item_func.obj
 0001:0009ab50       ?fix_length_and_dec@Item_func_find_in_set@@UEAAXXZ 000000014009bb50 f   item_func.obj
 0001:0009ac90       ?val_int@Item_func_find_in_set@@UEAA_JXZ 000000014009bc90 f   item_func.obj
 0001:0009af00       ?val_int@Item_func_bit_count@@UEAA_JXZ 000000014009bf00 f   item_func.obj
 0001:0009af60       ?fix_fields@udf_handler@@QEAA_NPEAVTHD@@PEAVItem_result_field@@IPEAPEAVItem@@@Z 000000014009bf60 f   item_func.obj
 0001:0009b690       ?get_arguments@udf_handler@@QEAA_NXZ 000000014009c690 f   item_func.obj
 0001:0009b850       ?val_decimal@udf_handler@@QEAAPEAVmy_decimal@@PEADPEAV2@@Z 000000014009c850 f   item_func.obj
 0001:0009b9b0       ?print@Item_udf_func@@UEAAXPEAVString@@@Z 000000014009c9b0 f   item_func.obj
 0001:0009bb10       ?val_str@Item_func_udf_float@@UEAAPEAVString@@PEAV2@@Z 000000014009cb10 f   item_func.obj
 0001:0009bb80       ?val_str@Item_func_udf_int@@UEAAPEAVString@@PEAV2@@Z 000000014009cb80 f   item_func.obj
 0001:0009bc00       ?val_decimal@Item_func_udf_decimal@@UEAAPEAVmy_decimal@@PEAV2@@Z 000000014009cc00 f   item_func.obj
 0001:0009bc20       ?fix_length_and_dec@Item_func_udf_decimal@@UEAAXXZ 000000014009cc20 f   item_func.obj
 0001:0009bc30       ?fix_length_and_dec@Item_func_udf_str@@UEAAXXZ 000000014009cc30 f   item_func.obj
 0001:0009bc80       ??1udf_handler@@QEAA@XZ    000000014009cc80 f   item_func.obj
 0001:0009bc90       ??0User_level_lock@@QEAA@PEBDIK@Z 000000014009cc90 f i item_func.obj
 0001:0009bd20       ??1User_level_lock@@QEAA@XZ 000000014009cd20 f i item_func.obj
 0001:0009bd70       ?initialized@User_level_lock@@QEAA_NXZ 000000014009cd70 f i item_func.obj
 0001:0009bd80       ?ull_get_key@@YAPEADPEBVUser_level_lock@@PEAID@Z 000000014009cd80 f   item_func.obj
 0001:0009bd90       ?item_user_lock_init@@YAXXZ 000000014009cd90 f   item_func.obj
 0001:0009be00       ?item_user_lock_free@@YAXXZ 000000014009ce00 f   item_func.obj
 0001:0009be40       ??_GUser_level_lock@@QEAAPEAXI@Z 000000014009ce40 f i item_func.obj
 0001:0009beb0       ?val_int@Item_master_pos_wait@@UEAA_JXZ 000000014009ceb0 f   item_func.obj
 0001:0009bfd0       ?fix_fields@Item_func_last_insert_id@@UEAA_NPEAVTHD@@PEAPEAVItem@@@Z 000000014009cfd0 f   item_func.obj
 0001:0009c0b0       ?val_int@Item_func_last_insert_id@@UEAA_JXZ 000000014009d0b0 f   item_func.obj
 0001:0009c160       ?val_int@Item_func_sleep@@UEAA_JXZ 000000014009d160 f   item_func.obj
 0001:0009c540       ?fix_fields@Item_func_set_user_var@@UEAA_NPEAVTHD@@PEAPEAVItem@@@Z 000000014009d540 f   item_func.obj
 0001:0009c680       ?fix_length_and_dec@Item_func_set_user_var@@UEAAXXZ 000000014009d680 f   item_func.obj
 0001:0009c860       ?update_hash@Item_func_set_user_var@@QEAA_NPEAXIW4Item_result@@PEAUcharset_info_st@@W4Derivation@@_N@Z 000000014009d860 f   item_func.obj
 0001:0009c950       ?val_real@user_var_entry@@QEAANPEAD@Z 000000014009d950 f   item_func.obj
 0001:0009c9f0       ?val_str@user_var_entry@@QEAAPEAVString@@PEADPEAV2@I@Z 000000014009d9f0 f   item_func.obj
 0001:0009cb10       ?val_decimal@user_var_entry@@QEAAPEAVmy_decimal@@PEADPEAV2@@Z 000000014009db10 f   item_func.obj
 0001:0009cc50       ?check@Item_func_set_user_var@@QEAA_N_N@Z 000000014009dc50 f   item_func.obj
 0001:0009ce00       ?save_item_result@Item_func_set_user_var@@QEAAXPEAVItem@@@Z 000000014009de00 f   item_func.obj
 0001:0009cef0       ?update@Item_func_set_user_var@@QEAA_NXZ 000000014009def0 f   item_func.obj
 0001:0009d070       ?val_real@Item_func_set_user_var@@UEAANXZ 000000014009e070 f   item_func.obj
 0001:0009d0b0       ?val_str@Item_func_set_user_var@@UEAAPEAVString@@PEAV2@@Z 000000014009e0b0 f   item_func.obj
 0001:0009d110       ?val_decimal@Item_func_set_user_var@@UEAAPEAVmy_decimal@@PEAV2@@Z 000000014009e110 f   item_func.obj
 0001:0009d160       ?val_result@Item_func_set_user_var@@UEAANXZ 000000014009e160 f   item_func.obj
 0001:0009d1a0       ?str_result@Item_func_set_user_var@@UEAAPEAVString@@PEAV2@@Z 000000014009e1a0 f   item_func.obj
 0001:0009d200       ?val_decimal_result@Item_func_set_user_var@@UEAAPEAVmy_decimal@@PEAV2@@Z 000000014009e200 f   item_func.obj
 0001:0009d250       ?is_null_result@Item_func_set_user_var@@UEAA_NXZ 000000014009e250 f   item_func.obj
 0001:0009d290       ?print@Item_func_set_user_var@@UEAAXPEAVString@@@Z 000000014009e290 f   item_func.obj
 0001:0009d370       ?print_as_stmt@Item_func_set_user_var@@QEAAXPEAVString@@@Z 000000014009e370 f   item_func.obj
 0001:0009d450       ?send@Item_func_set_user_var@@UEAA_NPEAVProtocol@@PEAVString@@@Z 000000014009e450 f   item_func.obj
 0001:0009d4b0       ?make_field@Item_func_set_user_var@@UEAAXPEAVSend_field@@@Z 000000014009e4b0 f   item_func.obj
 0001:0009d510       ?val_str@Item_func_get_user_var@@UEAAPEAVString@@PEAV2@@Z 000000014009e510 f   item_func.obj
 0001:0009d540       ?val_real@Item_func_get_user_var@@UEAANXZ 000000014009e540 f   item_func.obj
 0001:0009d570       ?val_decimal@Item_func_get_user_var@@UEAAPEAVmy_decimal@@PEAV2@@Z 000000014009e570 f   item_func.obj
 0001:0009d5a0       ?const_item@Item_func_get_user_var@@UEBA_NXZ 000000014009e5a0 f   item_func.obj
 0001:0009d5f0       ?result_type@Item_func_get_user_var@@UEBA?AW4Item_result@@XZ 000000014009e5f0 f   item_func.obj
 0001:0009d660       ?print@Item_func_get_user_var@@UEAAXPEAVString@@@Z 000000014009e660 f   item_func.obj
 0001:0009d710       ?eq@Item_func_get_user_var@@UEBA_NPEBVItem@@_N@Z 000000014009e710 f   item_func.obj
 0001:0009d7f0       ?fix_fields@Item_user_var_as_out_param@@UEAA_NPEAVTHD@@PEAPEAVItem@@@Z 000000014009e7f0 f   item_func.obj
 0001:0009d8b0       ?set_null_value@Item_user_var_as_out_param@@QEAAXPEAUcharset_info_st@@@Z 000000014009e8b0 f   item_func.obj
 0001:0009d930       ?set_value@Item_user_var_as_out_param@@QEAAXPEBDIPEAUcharset_info_st@@@Z 000000014009e930 f   item_func.obj
 0001:0009d9b0       ?val_real@Item_user_var_as_out_param@@UEAANXZ 000000014009e9b0 f   item_func.obj
 0001:0009d9c0       ?val_int@Item_user_var_as_out_param@@UEAA_JXZ 000000014009e9c0 f   item_func.obj
 0001:0009d9d0       ?val_str@Item_user_var_as_out_param@@UEAAPEAVString@@PEAV2@@Z 000000014009e9d0 f   item_func.obj
 0001:0009d9e0       ?val_decimal@Item_user_var_as_out_param@@UEAAPEAVmy_decimal@@PEAV2@@Z 000000014009e9e0 f   item_func.obj
 0001:0009d9f0       ?print@Item_user_var_as_out_param@@UEAAXPEAVString@@@Z 000000014009e9f0 f   item_func.obj
 0001:0009da60       ?fix_fields@Item_func_get_system_var@@UEAA_NPEAVTHD@@PEAPEAVItem@@@Z 000000014009ea60 f   item_func.obj
 0001:0009db20       ?fix_index@Item_func_match@@QEAA_NXZ 000000014009eb20 f   item_func.obj
 0001:0009dea0       ?eq@Item_func_match@@UEBA_NPEBVItem@@_N@Z 000000014009eea0 f   item_func.obj
 0001:0009dfa0       ?val_real@Item_func_match@@UEAANXZ 000000014009efa0 f   item_func.obj
 0001:0009e0d0       ?print@Item_func_match@@UEAAXPEAVString@@@Z 000000014009f0d0 f   item_func.obj
 0001:0009e1c0       ?val_int@Item_func_bit_xor@@UEAA_JXZ 000000014009f1c0 f   item_func.obj
 0001:0009e250       ?val_int@Item_func_is_free_lock@@UEAA_JXZ 000000014009f250 f   item_func.obj
 0001:0009e310       ?val_int@Item_func_is_used_lock@@UEAA_JXZ 000000014009f310 f   item_func.obj
 0001:0009e3c0       ?val_int@Item_func_row_count@@UEAA_JXZ 000000014009f3c0 f   item_func.obj
 0001:0009e3f0       ?cleanup@Item_func_sp@@UEAAXXZ 000000014009f3f0 f   item_func.obj
 0001:0009e460       ?init_result_field@Item_func_sp@@AEAA_NPEAVTHD@@@Z 000000014009f460 f   item_func.obj
 0001:0009e630       ?fix_length_and_dec@Item_func_sp@@UEAAXXZ 000000014009f630 f   item_func.obj
 0001:0009e6b0       ?make_field@Item_func_sp@@UEAAXPEAVSend_field@@@Z 000000014009f6b0 f   item_func.obj
 0001:0009e700       ?field_type@Item_func_sp@@UEBA?AW4enum_field_types@@XZ 000000014009f700 f   item_func.obj
 0001:0009e720       ?result_type@Item_func_sp@@UEBA?AW4Item_result@@XZ 000000014009f720 f   item_func.obj
 0001:0009e740       ?val_int@Item_func_found_rows@@UEAA_JXZ 000000014009f740 f   item_func.obj
 0001:0009e770       ?tmp_table_field@Item_func_sp@@UEAAPEAVField@@PEAUst_table@@@Z 000000014009f770 f   item_func.obj
 0001:0009e780       ?sp_check_access@Item_func_sp@@QEAA_NPEAVTHD@@@Z 000000014009f780 f   item_func.obj
 0001:0009e7d0       ?fix_fields@Item_func_sp@@UEAA_NPEAVTHD@@PEAPEAVItem@@@Z 000000014009f7d0 f   item_func.obj
 0001:0009e8c0       ?update_used_tables@Item_func_sp@@UEAAXXZ 000000014009f8c0 f   item_func.obj
 0001:0009e910       ??0?$List@Vset_var_base@@@@QEAA@XZ 000000014009f910 f i item_func.obj
 0001:0009e930       ?push_back@?$List@Vset_var_base@@@@QEAA_NPEAVset_var_base@@@Z 000000014009f930 f i item_func.obj
 0001:0009e9c0       ??0Field_double@@QEAA@K_NPEBDPEAUst_table@@E@Z 000000014009f9c0 f i item_func.obj
 0001:0009ea70       ?val@udf_handler@@QEAANPEAD@Z 000000014009fa70 f i item_func.obj
 0001:0009eb20       ?val_int@udf_handler@@QEAA_JPEAD@Z 000000014009fb20 f i item_func.obj
 0001:0009ebd0       ??0Item_result_field@@QEAA@PEAVTHD@@PEAV0@@Z 000000014009fbd0 f i item_func.obj
 0001:0009ec20       ??0Item_func_set_user_var@@QEAA@Ust_lex_string@@PEAVItem@@@Z 000000014009fc20 f i item_func.obj
 0001:0009ed30       ?functype@Item_func_set_user_var@@UEBA?AW4Functype@Item_func@@XZ 000000014009fd30 f i item_func.obj
 0001:0009ed40       ?result_type@Item_func_set_user_var@@UEBA?AW4Item_result@@XZ 000000014009fd40 f i item_func.obj
 0001:0009ed50       ?func_name@Item_func_set_user_var@@UEBAPEBDXZ 000000014009fd50 f i item_func.obj
 0001:0009ed60       ??1Item_func_set_user_var@@UEAA@XZ 000000014009fd60 f i item_func.obj
 0001:0009edf0       ??_Gset_var_user@@UEAAPEAXI@Z 000000014009fdf0 f i item_func.obj
 0001:0009edf0       ??_Eset_var_user@@UEAAPEAXI@Z 000000014009fdf0 f i item_func.obj
 0001:0009ee10       ??1st_select_lex@@UEAA@XZ  000000014009fe10 f i item_func.obj
 0001:0009ee20       ??1st_lex@@UEAA@XZ         000000014009fe20 f i item_func.obj
 0001:0009ee70       ??_Est_lex@@UEAAPEAXI@Z    000000014009fe70 f i item_func.obj
 0001:0009ee70       ??_Gst_lex@@UEAAPEAXI@Z    000000014009fe70 f i item_func.obj
 0001:0009eee0       ??0Item_func@@QEAA@PEAVTHD@@PEAV0@@Z 000000014009fee0 f   item_func.obj
 0001:0009eff0       ?print@Item_func@@UEAAXPEAVString@@@Z 000000014009fff0 f   item_func.obj
 0001:0009f0c0       ?tmp_table_field@Item_func@@UEAAPEAVField@@PEAUst_table@@@Z 00000001400a00c0 f   item_func.obj
 0001:0009f350       ?val_str@Item_func_numhybrid@@UEAAPEAVString@@PEAV2@@Z 00000001400a0350 f   item_func.obj
 0001:0009f500       ?val_real@Item_func_numhybrid@@UEAANXZ 00000001400a0500 f   item_func.obj
 0001:0009f650       ?val_int@Item_func_numhybrid@@UEAA_JXZ 00000001400a0650 f   item_func.obj
 0001:0009f800       ?val_int_from_str@Item_func_signed@@QEAA_JPEAH@Z 00000001400a0800 f   item_func.obj
 0001:0009fa80       ?val_int@Item_func_signed@@UEAA_JXZ 00000001400a0a80 f   item_func.obj
 0001:0009fb60       ?val_int@Item_func_unsigned@@UEAA_JXZ 00000001400a0b60 f   item_func.obj
 0001:0009fd40       ?val_str@Item_decimal_typecast@@UEAAPEAVString@@PEAV2@@Z 00000001400a0d40 f   item_func.obj
 0001:0009fdd0       ?val_real@Item_decimal_typecast@@UEAANXZ 00000001400a0dd0 f   item_func.obj
 0001:0009fe40       ?val_int@Item_decimal_typecast@@UEAA_JXZ 00000001400a0e40 f   item_func.obj
 0001:0009ff10       ?val_decimal@Item_decimal_typecast@@UEAAPEAVmy_decimal@@PEAV2@@Z 00000001400a0f10 f   item_func.obj
 0001:000a00d0       ?decimal_op@Item_func_plus@@UEAAPEAVmy_decimal@@PEAV2@@Z 00000001400a10d0 f   item_func.obj
 0001:000a0220       ?decimal_op@Item_func_minus@@UEAAPEAVmy_decimal@@PEAV2@@Z 00000001400a1220 f   item_func.obj
 0001:000a0370       ?decimal_op@Item_func_mul@@UEAAPEAVmy_decimal@@PEAV2@@Z 00000001400a1370 f   item_func.obj
 0001:000a04c0       ?decimal_op@Item_func_div@@UEAAPEAVmy_decimal@@PEAV2@@Z 00000001400a14c0 f   item_func.obj
 0001:000a0630       ?decimal_op@Item_func_mod@@UEAAPEAVmy_decimal@@PEAV2@@Z 00000001400a1630 f   item_func.obj
 0001:000a0790       ?decimal_op@Item_func_neg@@UEAAPEAVmy_decimal@@PEAV2@@Z 00000001400a1790 f   item_func.obj
 0001:000a08a0       ?decimal_op@Item_func_abs@@UEAAPEAVmy_decimal@@PEAV2@@Z 00000001400a18a0 f   item_func.obj
 0001:000a09b0       ?decimal_op@Item_func_ceiling@@UEAAPEAVmy_decimal@@PEAV2@@Z 00000001400a19b0 f   item_func.obj
 0001:000a0a70       ?decimal_op@Item_func_floor@@UEAAPEAVmy_decimal@@PEAV2@@Z 00000001400a1a70 f   item_func.obj
 0001:000a0b30       ?decimal_op@Item_func_round@@UEAAPEAVmy_decimal@@PEAV2@@Z 00000001400a1b30 f   item_func.obj
 0001:000a0c80       ?val_str@Item_func_min_max@@UEAAPEAVString@@PEAV2@@Z 00000001400a1c80 f   item_func.obj
 0001:000a0f60       ?val_decimal@Item_func_min_max@@UEAAPEAVmy_decimal@@PEAV2@@Z 00000001400a1f60 f   item_func.obj
 0001:000a1140       ?val_int@Item_func_field@@UEAA_JXZ 00000001400a2140 f   item_func.obj
 0001:000a1470       ??_EString@@QEAAPEAXI@Z    00000001400a2470 f i item_func.obj
 0001:000a1560       ?val_str@udf_handler@@QEAAPEAVString@@PEAV2@0@Z 00000001400a2560 f   item_func.obj
 0001:000a1690       ?val_real@Item_func_udf_float@@UEAANXZ 00000001400a2690 f   item_func.obj
 0001:000a1760       ?val_int@Item_func_udf_int@@UEAA_JXZ 00000001400a2760 f   item_func.obj
 0001:000a1830       ?val_int@Item_func_udf_decimal@@UEAA_JXZ 00000001400a2830 f   item_func.obj
 0001:000a1920       ?val_real@Item_func_udf_decimal@@UEAANXZ 00000001400a2920 f   item_func.obj
 0001:000a1990       ?val_str@Item_func_udf_decimal@@UEAAPEAVString@@PEAV2@@Z 00000001400a2990 f   item_func.obj
 0001:000a1a80       ?val_str@Item_func_udf_str@@UEAAPEAVString@@PEAV2@@Z 00000001400a2a80 f   item_func.obj
 0001:000a1ac0       ?item_user_lock_release@@YAXPEAVUser_level_lock@@@Z 00000001400a2ac0 f   item_func.obj
 0001:000a1b40       ?val_int@Item_func_get_lock@@UEAA_JXZ 00000001400a2b40 f   item_func.obj
 0001:000a1f60       ?val_int@Item_func_release_lock@@UEAA_JXZ 00000001400a2f60 f   item_func.obj
 0001:000a20a0       ?val_int@Item_func_benchmark@@UEAA_JXZ 00000001400a30a0 f   item_func.obj
 0001:000a2250       ?print@Item_func_benchmark@@UEAAXPEAVString@@@Z 00000001400a3250 f   item_func.obj
 0001:000a23c0       ?val_int@user_var_entry@@QEBA_JPEAD@Z 00000001400a33c0 f   item_func.obj
 0001:000a24a0       ?val_int@Item_func_set_user_var@@UEAA_JXZ 00000001400a34a0 f   item_func.obj
 0001:000a24e0       ?val_int_result@Item_func_set_user_var@@UEAA_JXZ 00000001400a34e0 f   item_func.obj
 0001:000a2520       ?val_bool_result@Item_func_set_user_var@@UEAA_NXZ 00000001400a3520 f   item_func.obj
 0001:000a2570       ?save_in_field@Item_func_set_user_var@@QEAAHPEAVField@@_N1@Z 00000001400a3570 f   item_func.obj
 0001:000a2890       ?val_int@Item_func_get_user_var@@UEAA_JXZ 00000001400a3890 f   item_func.obj
 0001:000a28b0       ?get_var_with_binlog@@YAHPEAVTHD@@W4enum_sql_command@@AEAUst_lex_string@@PEAPEAVuser_var_entry@@@Z 00000001400a38b0 f   item_func.obj
 0001:000a2ca0       ?fix_length_and_dec@Item_func_get_user_var@@UEAAXXZ 00000001400a3ca0 f   item_func.obj
 0001:000a2e10       ?set_value@Item_func_get_user_var@@EEAA_NPEAVTHD@@PEAVsp_rcontext@@PEAPEAVItem@@@Z 00000001400a3e10 f   item_func.obj
 0001:000a2fc0       ??0Item_func_get_system_var@@QEAA@PEAVsys_var@@W4enum_var_type@@PEAUst_lex_string@@PEBD_K@Z 00000001400a3fc0 f   item_func.obj
 0001:000a3090       ?val_real@Item_func_get_system_var@@UEAANXZ 00000001400a4090 f i item_func.obj
 0001:000a30a0       ?val_int@Item_func_get_system_var@@UEAA_JXZ 00000001400a40a0 f i item_func.obj
 0001:000a30b0       ?val_str@Item_func_get_system_var@@UEAAPEAVString@@PEAV2@@Z 00000001400a40b0 f i item_func.obj
 0001:000a30c0       ?fix_length_and_dec@Item_func_get_system_var@@UEAAXXZ 00000001400a40c0 f i item_func.obj
 0001:000a30d0       ?func_name@Item_func_get_system_var@@UEBAPEBDXZ 00000001400a40d0 f i item_func.obj
 0001:000a30e0       ??1Item_func_get_system_var@@UEAA@XZ 00000001400a40e0 f i item_func.obj
 0001:000a3140       ?val_int@Item_func_inet_aton@@UEAA_JXZ 00000001400a4140 f   item_func.obj
 0001:000a32e0       ?fix_fields@Item_func_match@@UEAA_NPEAVTHD@@PEAPEAVItem@@@Z 00000001400a42e0 f   item_func.obj
 0001:000a3670       ?get_system_var@@YAPEAVItem@@PEAVTHD@@W4enum_var_type@@Ust_lex_string@@2@Z 00000001400a4670 f   item_func.obj
 0001:000a37d0       ??0Item_func_sp@@QEAA@PEAUName_resolution_context@@PEAVsp_name@@@Z 00000001400a47d0 f   item_func.obj
 0001:000a38b0       ?change_context_processor@Item_func_sp@@UEAA_NPEAE@Z 00000001400a48b0 f i item_func.obj
 0001:000a38c0       ?functype@Item_func_sp@@UEBA?AW4Functype@Item_func@@XZ 00000001400a48c0 f i item_func.obj
 0001:000a38d0       ?is_expensive@Item_func_sp@@UEAA_NXZ 00000001400a48d0 f i item_func.obj
 0001:000a38e0       ??1Item_func_sp@@UEAA@XZ   00000001400a48e0 f i item_func.obj
 0001:000a3940       ??_EItem_func_sp@@UEAAPEAXI@Z 00000001400a4940 f i item_func.obj
 0001:000a3940       ??_GItem_func_sp@@UEAAPEAXI@Z 00000001400a4940 f i item_func.obj
 0001:000a39a0       ?func_name@Item_func_sp@@UEBAPEBDXZ 00000001400a49a0 f   item_func.obj
 0001:000a3b20       ?execute_impl@Item_func_sp@@AEAA_NPEAVTHD@@@Z 00000001400a4b20 f   item_func.obj
 0001:000a3c00       ?save_in_field@Item_func_set_user_var@@UEAAHPEAVField@@_N@Z 00000001400a4c00 f i item_func.obj
 0001:000a3c10       ?save_org_in_field@Item_func_set_user_var@@UEAAXPEAVField@@@Z 00000001400a4c10 f i item_func.obj
 0001:000a3c20       ??_EItem_func_set_user_var@@UEAAPEAXI@Z 00000001400a4c20 f i item_func.obj
 0001:000a3c20       ??_GItem_func_set_user_var@@UEAAPEAXI@Z 00000001400a4c20 f i item_func.obj
 0001:000a3cb0       ?set_arguments@Item_func@@QEAAXAEAV?$List@VItem@@@@@Z 00000001400a4cb0 f   item_func.obj
 0001:000a3d70       ??0Item_func@@QEAA@AEAV?$List@VItem@@@@@Z 00000001400a4d70 f   item_func.obj
 0001:000a3dd0       ?int_op@Item_func_ceiling@@UEAA_JXZ 00000001400a4dd0 f   item_func.obj
 0001:000a3f10       ?int_op@Item_func_floor@@UEAA_JXZ 00000001400a4f10 f   item_func.obj
 0001:000a4050       ?cleanup@udf_handler@@QEAAXXZ 00000001400a5050 f   item_func.obj
 0001:000a4140       ?cleanup@Item_udf_func@@UEAAXXZ 00000001400a5140 f   item_func.obj
 0001:000a4170       ??_EItem_func_get_system_var@@UEAAPEAXI@Z 00000001400a5170 f i item_func.obj
 0001:000a4170       ??_GItem_func_get_system_var@@UEAAPEAXI@Z 00000001400a5170 f i item_func.obj
 0001:000a41d0       ??0Item_func_sp@@QEAA@PEAUName_resolution_context@@PEAVsp_name@@AEAV?$List@VItem@@@@@Z 00000001400a51d0 f   item_func.obj
 0001:000a4290       ?execute@Item_func_sp@@AEAA_NXZ 00000001400a5290 f   item_func.obj
 0001:000a43c0       ?val_int@Item_func_sp@@UEAA_JXZ 00000001400a53c0 f i item_func.obj
 0001:000a4400       ?val_real@Item_func_sp@@UEAANXZ 00000001400a5400 f i item_func.obj
 0001:000a4440       ?val_decimal@Item_func_sp@@UEAAPEAVmy_decimal@@PEAV2@@Z 00000001400a5440 f i item_func.obj
 0001:000a44a0       ?val_str@Item_func_sp@@UEAAPEAVString@@PEAV2@@Z 00000001400a54a0 f i item_func.obj
 0001:000a45b0       ??0Item_str_func@@QEAA@AEAV?$List@VItem@@@@@Z 00000001400a55b0 f i item_func.obj
 0001:000a45e0       ??0Item_func_concat_ws@@QEAA@AEAV?$List@VItem@@@@@Z 00000001400a55e0 f i item_func.obj
 0001:000a4650       ?func_name@Item_func_concat_ws@@UEBAPEBDXZ 00000001400a5650 f i item_func.obj
 0001:000a4660       ?not_null_tables@Item_func_concat_ws@@UEBA_KXZ 00000001400a5660 f i item_func.obj
 0001:000a4670       ??1Item_func_concat_ws@@UEAA@XZ 00000001400a5670 f i item_func.obj
 0001:000a4700       ??_EItem_func_concat_ws@@UEAAPEAXI@Z 00000001400a5700 f i item_func.obj
 0001:000a4700       ??_GItem_func_concat_ws@@UEAAPEAXI@Z 00000001400a5700 f i item_func.obj
 0001:000a4790       ?init_search@Item_func_match@@QEAAX_N@Z 00000001400a5790 f   item_func.obj
 0001:000a4c00       ?q_append@String@@QEAAXD@Z 00000001400a5c00 f i item_geofunc.obj
 0001:000a4c20       ?q_append@String@@QEAAXK@Z 00000001400a5c20 f i item_geofunc.obj
 0001:000a4c40       ?q_append@String@@QEAAXN@Z 00000001400a5c40 f i item_geofunc.obj
 0001:000a4c80       ?qs_append@String@@QEAAXD@Z 00000001400a5c80 f i item_geofunc.obj
 0001:000a4ca0       ?append@String@@QEAA_NPEBDKK@Z 00000001400a5ca0 f i item_geofunc.obj
 0001:000a4d30       ??0Gis_read_stream@@QEAA@PEAUcharset_info_st@@PEBDH@Z 00000001400a5d30 f i item_geofunc.obj
 0001:000a4d60       ??1Gis_read_stream@@QEAA@XZ 00000001400a5d60 f i item_geofunc.obj
 0001:000a4d70       ??0MBR@@QEAA@NNNN@Z        00000001400a5d70 f i item_geofunc.obj
 0001:000a4da0       ?equals@MBR@@QEAAHPEBU1@@Z 00000001400a5da0 f i item_geofunc.obj
 0001:000a4df0       ?disjoint@MBR@@QEAAHPEBU1@@Z 00000001400a5df0 f i item_geofunc.obj
 0001:000a4e40       ?intersects@MBR@@QEAAHPEBU1@@Z 00000001400a5e40 f i item_geofunc.obj
 0001:000a4ea0       ?touches@MBR@@QEAAHPEBU1@@Z 00000001400a5ea0 f i item_geofunc.obj
 0001:000a4f60       ?within@MBR@@QEAAHPEBU1@@Z 00000001400a5f60 f i item_geofunc.obj
 0001:000a4fb0       ?contains@MBR@@QEAAHPEBU1@@Z 00000001400a5fb0 f i item_geofunc.obj
 0001:000a5000       ?dimension@MBR@@QEBAHXZ    00000001400a6000 f i item_geofunc.obj
 0001:000a5050       ?overlaps@MBR@@QEAAHPEBU1@@Z 00000001400a6050 f i item_geofunc.obj
 0001:000a5220       ?as_wkt@Geometry@@QEAAHPEAVString@@PEAPEBD@Z 00000001400a6220 f i item_geofunc.obj
 0001:000a52f0       ?fix_length_and_dec@Item_geometry_func@@UEAAXXZ 00000001400a62f0 f   item_geofunc.obj
 0001:000a5330       ?fix_length_and_dec@Item_func_as_wkt@@UEAAXXZ 00000001400a6330 f   item_geofunc.obj
 0001:000a5340       ?val_str@Item_func_geometry_type@@UEAAPEAVString@@PEAV2@@Z 00000001400a6340 f   item_geofunc.obj
 0001:000a5430       ?get_geometry_type@Item_func_envelope@@UEBA?AW4geometry_type@Field@@XZ 00000001400a6430 f   item_geofunc.obj
 0001:000a5440       ?get_geometry_type@Item_func_centroid@@UEBA?AW4geometry_type@Field@@XZ 00000001400a6440 f   item_geofunc.obj
 0001:000a5450       ?get_geometry_type@Item_func_point@@UEBA?AW4geometry_type@Field@@XZ 00000001400a6450 f   item_geofunc.obj
 0001:000a5460       ?val_str@Item_func_point@@UEAAPEAVString@@PEAV2@@Z 00000001400a6460 f   item_geofunc.obj
 0001:000a55c0       ?val_int@Item_func_spatial_rel@@UEAA_JXZ 00000001400a65c0 f   item_geofunc.obj
 0001:000a5a50       ?val_int@Item_func_dimension@@UEAA_JXZ 00000001400a6a50 f   item_geofunc.obj
 0001:000a5b00       ?val_int@Item_func_numinteriorring@@UEAA_JXZ 00000001400a6b00 f   item_geofunc.obj
 0001:000a5b90       ?val_int@Item_func_numgeometries@@UEAA_JXZ 00000001400a6b90 f   item_geofunc.obj
 0001:000a5c20       ?val_int@Item_func_numpoints@@UEAA_JXZ 00000001400a6c20 f   item_geofunc.obj
 0001:000a5cc0       ?val_real@Item_func_x@@UEAANXZ 00000001400a6cc0 f   item_geofunc.obj
 0001:000a5d60       ?val_real@Item_func_y@@UEAANXZ 00000001400a6d60 f   item_geofunc.obj
 0001:000a5e00       ?val_real@Item_func_area@@UEAANXZ 00000001400a6e00 f   item_geofunc.obj
 0001:000a5ea0       ?val_real@Item_func_glength@@UEAANXZ 00000001400a6ea0 f   item_geofunc.obj
 0001:000a5f40       ?val_int@Item_func_srid@@UEAA_JXZ 00000001400a6f40 f   item_geofunc.obj
 0001:000a5fd0       ?tmp_table_field@Item_geometry_func@@UEAAPEAVField@@PEAUst_table@@@Z 00000001400a6fd0 f   item_geofunc.obj
 0001:000a6120       ?val_str@Item_func_geometry_from_text@@UEAAPEAVString@@PEAV2@@Z 00000001400a7120 f   item_geofunc.obj
 0001:000a6310       ?val_str@Item_func_geometry_from_wkb@@UEAAPEAVString@@PEAV2@@Z 00000001400a7310 f   item_geofunc.obj
 0001:000a6500       ?val_str@Item_func_as_wkt@@UEAAPEAVString@@PEAV2@@Z 00000001400a7500 f   item_geofunc.obj
 0001:000a66e0       ?val_str@Item_func_as_wkb@@UEAAPEAVString@@PEAV2@@Z 00000001400a76e0 f   item_geofunc.obj
 0001:000a6810       ?val_str@Item_func_envelope@@UEAAPEAVString@@PEAV2@@Z 00000001400a7810 f   item_geofunc.obj
 0001:000a6980       ?val_str@Item_func_centroid@@UEAAPEAVString@@PEAV2@@Z 00000001400a7980 f   item_geofunc.obj
 0001:000a6b00       ?val_str@Item_func_spatial_decomp@@UEAAPEAVString@@PEAV2@@Z 00000001400a7b00 f   item_geofunc.obj
 0001:000a6cc0       ?val_str@Item_func_spatial_decomp_n@@UEAAPEAVString@@PEAV2@@Z 00000001400a7cc0 f   item_geofunc.obj
 0001:000a6ec0       ?val_str@Item_func_spatial_collection@@UEAAPEAVString@@PEAV2@@Z 00000001400a7ec0 f   item_geofunc.obj
 0001:000a72c0       ?val_int@Item_func_isempty@@UEAA_JXZ 00000001400a82c0 f   item_geofunc.obj
 0001:000a7390       ?val_int@Item_func_issimple@@UEAA_JXZ 00000001400a8390 f   item_geofunc.obj
 0001:000a7450       ?val_int@Item_func_isclosed@@UEAA_JXZ 00000001400a8450 f   item_geofunc.obj
 0001:000a7530       ?illegal_method_call@Item_row@@QEAAXPEBD@Z 00000001400a8530 f   item_row.obj
 0001:000a7550       ?fix_fields@Item_row@@UEAA_NPEAVTHD@@PEAPEAVItem@@@Z 00000001400a8550 f   item_row.obj
 0001:000a76b0       ?cleanup@Item_row@@UEAAXXZ 00000001400a86b0 f   item_row.obj
 0001:000a76f0       ?split_sum_func@Item_row@@UEAAXPEAVTHD@@PEAPEAVItem@@AEAV?$List@VItem@@@@@Z 00000001400a86f0 f   item_row.obj
 0001:000a7790       ?update_used_tables@Item_row@@UEAAXXZ 00000001400a8790 f   item_row.obj
 0001:000a7840       ?check_cols@Item_row@@UEAA_NI@Z 00000001400a8840 f   item_row.obj
 0001:000a7880       ?print@Item_row@@UEAAXPEAVString@@@Z 00000001400a8880 f   item_row.obj
 0001:000a79d0       ?walk@Item_row@@UEAA_NP8Item@@EAA_NPEAE@Z0@Z 00000001400a89d0 f   item_row.obj
 0001:000a7a80       ?transform@Item_row@@UEAAPEAVItem@@P82@EAAPEAV2@PEAE@Z0@Z 00000001400a8a80 f   item_row.obj
 0001:000a7b90       ?bring_value@Item_row@@UEAAXXZ 00000001400a8b90 f   item_row.obj
 0001:000a7c00       ??0Item_row@@QEAA@AEAV?$List@VItem@@@@@Z 00000001400a8c00 f   item_row.obj
 0001:000a7cd0       ?type@Item_row@@UEBA?AW4Type@Item@@XZ 00000001400a8cd0 f i item_row.obj
 0001:000a7ce0       ?is_null@Item_row@@UEAA_NXZ 00000001400a8ce0 f i item_row.obj
 0001:000a7cf0       ?used_tables@Item_row@@UEBA_KXZ 00000001400a8cf0 f i item_row.obj
 0001:000a7d00       ?const_item@Item_row@@UEBA_NXZ 00000001400a8d00 f i item_row.obj
 0001:000a7d10       ?result_type@Item_row@@UEBA?AW4Item_result@@XZ 00000001400a8d10 f i item_row.obj
 0001:000a7d20       ?cols@Item_row@@UEAAIXZ    00000001400a8d20 f i item_row.obj
 0001:000a7d30       ?element_index@Item_row@@UEAAPEAVItem@@I@Z 00000001400a8d30 f i item_row.obj
 0001:000a7d40       ?addr@Item_row@@UEAAPEAPEAVItem@@I@Z 00000001400a8d40 f i item_row.obj
 0001:000a7d50       ?null_inside@Item_row@@UEAA_NXZ 00000001400a8d50 f i item_row.obj
 0001:000a7d60       ?make_field@Item_row@@UEAAXPEAVSend_field@@@Z 00000001400a8d60 f i item_row.obj
 0001:000a7d70       ?val_real@Item_row@@UEAANXZ 00000001400a8d70 f i item_row.obj
 0001:000a7d90       ?val_int@Item_row@@UEAA_JXZ 00000001400a8d90 f i item_row.obj
 0001:000a7db0       ?val_str@Item_row@@UEAAPEAVString@@PEAV2@@Z 00000001400a8db0 f i item_row.obj
 0001:000a7dd0       ?val_decimal@Item_row@@UEAAPEAVmy_decimal@@PEAV2@@Z 00000001400a8dd0 f i item_row.obj
 0001:000a7df0       ??1Item_row@@UEAA@XZ       00000001400a8df0 f i item_row.obj
 0001:000a7e50       ??_GItem_row@@UEAAPEAXI@Z  00000001400a8e50 f i item_row.obj
 0001:000a7e50       ??_EItem_row@@UEAAPEAXI@Z  00000001400a8e50 f i item_row.obj
 0001:000a7eb0       ??0String@@QEAA@PEBDPEAUcharset_info_st@@@Z 00000001400a8eb0 f i item_strfunc.obj
 0001:000a7f00       ?init@SQL_CRYPT@@QEAAXXZ   00000001400a8f00 f i item_strfunc.obj
 0001:000a7f30       ?sql_rnd_with_mutex@@YAKXZ 00000001400a8f30 f i item_strfunc.obj
 0001:000a7f90       ?hexchar_to_int@@YAHD@Z    00000001400a8f90 f i item_strfunc.obj
 0001:000a7fc0       ?fix_fields@Item_str_func@@UEAA_NPEAVTHD@@PEAPEAVItem@@@Z 00000001400a8fc0 f   item_strfunc.obj
 0001:000a8020       ?val_str@Item_func_md5@@UEAAPEAVString@@PEAV2@@Z 00000001400a9020 f   item_strfunc.obj
 0001:000a82b0       ?fix_length_and_dec@Item_func_md5@@UEAAXXZ 00000001400a92b0 f   item_strfunc.obj
 0001:000a8320       ?val_str@Item_func_sha@@UEAAPEAVString@@PEAV2@@Z 00000001400a9320 f   item_strfunc.obj
 0001:000a8610       ?fix_length_and_dec@Item_func_sha@@UEAAXXZ 00000001400a9610 f   item_strfunc.obj
 0001:000a8680       ?fix_length_and_dec@Item_func_aes_encrypt@@UEAAXXZ 00000001400a9680 f   item_strfunc.obj
 0001:000a86b0       ?fix_length_and_dec@Item_func_aes_decrypt@@UEAAXXZ 00000001400a96b0 f   item_strfunc.obj
 0001:000a86d0       ?val_str@Item_func_concat@@UEAAPEAVString@@PEAV2@@Z 00000001400a96d0 f   item_strfunc.obj
 0001:000a8ab0       ?fix_length_and_dec@Item_func_concat@@UEAAXXZ 00000001400a9ab0 f   item_strfunc.obj
 0001:000a8bd0       ?val_str@Item_func_des_encrypt@@UEAAPEAVString@@PEAV2@@Z 00000001400a9bd0 f   item_strfunc.obj
 0001:000a9050       ?val_str@Item_func_des_decrypt@@UEAAPEAVString@@PEAV2@@Z 00000001400aa050 f   item_strfunc.obj
 0001:000a93f0       ?fix_length_and_dec@Item_func_concat_ws@@UEAAXXZ 00000001400aa3f0 f   item_strfunc.obj
 0001:000a94e0       ?val_str@Item_func_reverse@@UEAAPEAVString@@PEAV2@@Z 00000001400aa4e0 f   item_strfunc.obj
 0001:000a9690       ?fix_length_and_dec@Item_func_reverse@@UEAAXXZ 00000001400aa690 f   item_strfunc.obj
 0001:000a96d0       ?val_str@Item_func_replace@@UEAAPEAVString@@PEAV2@@Z 00000001400aa6d0 f   item_strfunc.obj
 0001:000a9ac0       ?fix_length_and_dec@Item_func_replace@@UEAAXXZ 00000001400aaac0 f   item_strfunc.obj
 0001:000a9b80       ?val_str@Item_func_insert@@UEAAPEAVString@@PEAV2@@Z 00000001400aab80 f   item_strfunc.obj
 0001:000a9dc0       ?fix_length_and_dec@Item_func_insert@@UEAAXXZ 00000001400aadc0 f   item_strfunc.obj
 0001:000a9e60       ?val_str@Item_str_conv@@UEAAPEAVString@@PEAV2@@Z 00000001400aae60 f   item_strfunc.obj
 0001:000a9f80       ?left_right_max_length@Item_str_func@@QEAAXXZ 00000001400aaf80 f   item_strfunc.obj
 0001:000aa000       ?fix_length_and_dec@Item_func_left@@UEAAXXZ 00000001400ab000 f   item_strfunc.obj
 0001:000aa030       ?fix_length_and_dec@Item_func_right@@UEAAXXZ 00000001400ab030 f   item_strfunc.obj
 0001:000aa060       ?fix_length_and_dec@Item_func_substr@@UEAAXXZ 00000001400ab060 f   item_strfunc.obj
 0001:000aa170       ?fix_length_and_dec@Item_func_substr_index@@UEAAXXZ 00000001400ab170 f   item_strfunc.obj
 0001:000aa1e0       ?fix_length_and_dec@Item_func_trim@@UEAAXXZ 00000001400ab1e0 f   item_strfunc.obj
 0001:000aa2b0       ?print@Item_func_trim@@UEAAXPEAVString@@@Z 00000001400ab2b0 f   item_strfunc.obj
 0001:000aa430       ?alloc@Item_func_password@@SAPEADPEAVTHD@@PEBD_K@Z 00000001400ab430 f   item_strfunc.obj
 0001:000aa490       ?alloc@Item_func_old_password@@SAPEADPEAVTHD@@PEBD_K@Z 00000001400ab490 f   item_strfunc.obj
 0001:000aa4f0       ?val_str@Item_func_encrypt@@UEAAPEAVString@@PEAV2@@Z 00000001400ab4f0 f   item_strfunc.obj
 0001:000aa520       ?fix_length_and_dec@Item_func_encode@@UEAAXXZ 00000001400ab520 f   item_strfunc.obj
 0001:000aa570       ?val_str@Item_func_encode@@UEAAPEAVString@@PEAV2@@Z 00000001400ab570 f   item_strfunc.obj
 0001:000aa630       ?print@Item_func_encode@@UEAAXPEAVString@@@Z 00000001400ab630 f   item_strfunc.obj
 0001:000aa7d0       ?val_str@Item_func_decode@@UEAAPEAVString@@PEAV2@@Z 00000001400ab7d0 f   item_strfunc.obj
 0001:000aa880       ?val_str@Item_func_database@@UEAAPEAVString@@PEAV2@@Z 00000001400ab880 f   item_strfunc.obj
 0001:000aa900       ?init@Item_func_user@@IEAA_NPEBD0@Z 00000001400ab900 f   item_strfunc.obj
 0001:000aa9f0       ?fix_fields@Item_func_user@@UEAA_NPEAVTHD@@PEAPEAVItem@@@Z 00000001400ab9f0 f   item_strfunc.obj
 0001:000aaa50       ?fix_fields@Item_func_current_user@@UEAA_NPEAVTHD@@PEAPEAVItem@@@Z 00000001400aba50 f   item_strfunc.obj
 0001:000aaac0       ?fix_length_and_dec@Item_func_soundex@@UEAAXXZ 00000001400abac0 f   item_strfunc.obj
 0001:000aabb0       ?val_str@Item_func_soundex@@UEAAPEAVString@@PEAV2@@Z 00000001400abbb0 f   item_strfunc.obj
 0001:000aaf30       ?fix_length_and_dec@Item_func_elt@@UEAAXXZ 00000001400abf30 f   item_strfunc.obj
 0001:000ab020       ?val_real@Item_func_elt@@UEAANXZ 00000001400ac020 f   item_strfunc.obj
 0001:000ab0a0       ?val_int@Item_func_elt@@UEAA_JXZ 00000001400ac0a0 f   item_strfunc.obj
 0001:000ab120       ?val_str@Item_func_elt@@UEAAPEAVString@@PEAV2@@Z 00000001400ac120 f   item_strfunc.obj
 0001:000ab1c0       ?split_sum_func@Item_func_make_set@@UEAAXPEAVTHD@@PEAPEAVItem@@AEAV?$List@VItem@@@@@Z 00000001400ac1c0 f   item_strfunc.obj
 0001:000ab240       ?fix_length_and_dec@Item_func_make_set@@UEAAXXZ 00000001400ac240 f   item_strfunc.obj
 0001:000ab390       ?update_used_tables@Item_func_make_set@@UEAAXXZ 00000001400ac390 f   item_strfunc.obj
 0001:000ab400       ?val_str@Item_func_make_set@@UEAAPEAVString@@PEAV2@@Z 00000001400ac400 f   item_strfunc.obj
 0001:000ab5e0       ?transform@Item_func_make_set@@UEAAPEAVItem@@P82@EAAPEAV2@PEAE@Z0@Z 00000001400ac5e0 f   item_strfunc.obj
 0001:000ab6d0       ?print@Item_func_make_set@@UEAAXPEAVString@@@Z 00000001400ac6d0 f   item_strfunc.obj
 0001:000ab7d0       ?val_str@Item_func_char@@UEAAPEAVString@@PEAV2@@Z 00000001400ac7d0 f   item_strfunc.obj
 0001:000ab9b0       ?alloc_buffer@@YAPEAVString@@PEAV1@00K@Z 00000001400ac9b0 f i item_strfunc.obj
 0001:000aba60       ?fix_length_and_dec@Item_func_repeat@@UEAAXXZ 00000001400aca60 f   item_strfunc.obj
 0001:000abb10       ?val_str@Item_func_repeat@@UEAAPEAVString@@PEAV2@@Z 00000001400acb10 f   item_strfunc.obj
 0001:000abcf0       ?fix_length_and_dec@Item_func_rpad@@UEAAXXZ 00000001400accf0 f   item_strfunc.obj
 0001:000abe00       ?val_str@Item_func_rpad@@UEAAPEAVString@@PEAV2@@Z 00000001400ace00 f   item_strfunc.obj
 0001:000ac0a0       ?fix_length_and_dec@Item_func_lpad@@UEAAXXZ 00000001400ad0a0 f   item_strfunc.obj
 0001:000ac1b0       ?val_str@Item_func_lpad@@UEAAPEAVString@@PEAV2@@Z 00000001400ad1b0 f   item_strfunc.obj
 0001:000ac440       ?val_str@Item_func_conv@@UEAAPEAVString@@PEAV2@@Z 00000001400ad440 f   item_strfunc.obj
 0001:000ac650       ?val_str@Item_func_conv_charset@@UEAAPEAVString@@PEAV2@@Z 00000001400ad650 f   item_strfunc.obj
 0001:000ac720       ?fix_length_and_dec@Item_func_conv_charset@@UEAAXXZ 00000001400ad720 f   item_strfunc.obj
 0001:000ac780       ?print@Item_func_conv_charset@@UEAAXPEAVString@@@Z 00000001400ad780 f   item_strfunc.obj
 0001:000ac850       ?val_str@Item_func_set_collation@@UEAAPEAVString@@PEAV2@@Z 00000001400ad850 f   item_strfunc.obj
 0001:000ac8b0       ?eq@Item_func_set_collation@@UEBA_NPEBVItem@@_N@Z 00000001400ad8b0 f   item_strfunc.obj
 0001:000aca00       ?print@Item_func_set_collation@@UEAAXPEAVString@@@Z 00000001400ada00 f   item_strfunc.obj
 0001:000acaf0       ?val_str@Item_func_charset@@UEAAPEAVString@@PEAV2@@Z 00000001400adaf0 f   item_strfunc.obj
 0001:000acb70       ?val_str@Item_func_collation@@UEAAPEAVString@@PEAV2@@Z 00000001400adb70 f   item_strfunc.obj
 0001:000acbf0       ?val_str@Item_func_hex@@UEAAPEAVString@@PEAV2@@Z 00000001400adbf0 f   item_strfunc.obj
 0001:000ace50       ?val_str@Item_func_unhex@@UEAAPEAVString@@PEAV2@@Z 00000001400ade50 f   item_strfunc.obj
 0001:000ad020       ?print@Item_func_binary@@UEAAXPEAVString@@@Z 00000001400ae020 f   item_strfunc.obj
 0001:000ad090       ?val_str@Item_load_file@@UEAAPEAVString@@PEAV2@@Z 00000001400ae090 f   item_strfunc.obj
 0001:000ad2d0       ?fix_length_and_dec@Item_func_export_set@@UEAAXXZ 00000001400ae2d0 f   item_strfunc.obj
 0001:000ad3a0       ?val_str@Item_func_inet_ntoa@@UEAAPEAVString@@PEAV2@@Z 00000001400ae3a0 f   item_strfunc.obj
 0001:000ad520       ?val_str@Item_func_quote@@UEAAPEAVString@@PEAV2@@Z 00000001400ae520 f   item_strfunc.obj
 0001:000ad770       ?val_int@Item_func_uncompressed_length@@UEAA_JXZ 00000001400ae770 f   item_strfunc.obj
 0001:000ad820       ?val_int@Item_func_crc32@@UEAA_JXZ 00000001400ae820 f   item_strfunc.obj
 0001:000ad880       ?val_str@Item_func_compress@@UEAAPEAVString@@PEAV2@@Z 00000001400ae880 f   item_strfunc.obj
 0001:000ada30       ?val_str@Item_func_uncompress@@UEAAPEAVString@@PEAV2@@Z 00000001400aea30 f   item_strfunc.obj
 0001:000adcd0       ?val_str@Item_func_uuid@@UEAAPEAVString@@PEAV2@@Z 00000001400aecd0 f   item_strfunc.obj
 0001:000ae0c0       ?set@String@@QEAAXAEAV1@KK@Z 00000001400af0c0 f i item_strfunc.obj
 0001:000ae170       ?val_decimal@Item_str_func@@UEAAPEAVmy_decimal@@PEAV2@@Z 00000001400af170 f   item_strfunc.obj
 0001:000ae270       ?val_real@Item_str_func@@UEAANXZ 00000001400af270 f   item_strfunc.obj
 0001:000ae380       ?val_int@Item_str_func@@UEAA_JXZ 00000001400af380 f   item_strfunc.obj
 0001:000ae480       ?val_str@Item_func_aes_encrypt@@UEAAPEAVString@@PEAV2@@Z 00000001400af480 f   item_strfunc.obj
 0001:000ae610       ?val_str@Item_func_aes_decrypt@@UEAAPEAVString@@PEAV2@@Z 00000001400af610 f   item_strfunc.obj
 0001:000ae780       ?val_str@Item_func_concat_ws@@UEAAPEAVString@@PEAV2@@Z 00000001400af780 f   item_strfunc.obj
 0001:000aecf0       ?val_str@Item_func_left@@UEAAPEAVString@@PEAV2@@Z 00000001400afcf0 f   item_strfunc.obj
 0001:000aee80       ?val_str@Item_func_right@@UEAAPEAVString@@PEAV2@@Z 00000001400afe80 f   item_strfunc.obj
 0001:000aefc0       ?val_str@Item_func_substr@@UEAAPEAVString@@PEAV2@@Z 00000001400affc0 f   item_strfunc.obj
 0001:000af1f0       ?val_str@Item_func_substr_index@@UEAAPEAVString@@PEAV2@@Z 00000001400b01f0 f   item_strfunc.obj
 0001:000af620       ?val_str@Item_func_ltrim@@UEAAPEAVString@@PEAV2@@Z 00000001400b0620 f   item_strfunc.obj
 0001:000af8d0       ?val_str@Item_func_rtrim@@UEAAPEAVString@@PEAV2@@Z 00000001400b08d0 f   item_strfunc.obj
 0001:000afcb0       ?val_str@Item_func_trim@@UEAAPEAVString@@PEAV2@@Z 00000001400b0cb0 f   item_strfunc.obj
 0001:000b0040       ?val_str@Item_func_password@@UEAAPEAVString@@PEAV2@@Z 00000001400b1040 f   item_strfunc.obj
 0001:000b0150       ?val_str@Item_func_old_password@@UEAAPEAVString@@PEAV2@@Z 00000001400b1150 f   item_strfunc.obj
 0001:000b0260       ?safe_charset_converter@Item_func_sysconst@@UEAAPEAVItem@@PEAUcharset_info_st@@@Z 00000001400b1260 f   item_strfunc.obj
 0001:000b0550       ??0Item_func_format@@QEAA@PEAVItem@@H@Z 00000001400b1550 f   item_strfunc.obj
 0001:000b0630       ?fix_length_and_dec@Item_func_format@@UEAAXXZ 00000001400b1630 f i item_strfunc.obj
 0001:000b06c0       ?func_name@Item_func_format@@UEBAPEBDXZ 00000001400b16c0 f i item_strfunc.obj
 0001:000b06d0       ??1Item_func_format@@UEAA@XZ 00000001400b16d0 f i item_strfunc.obj
 0001:000b0760       ?val_str@Item_func_format@@UEAAPEAVString@@PEAV2@@Z 00000001400b1760 f   item_strfunc.obj
 0001:000b0a90       ?print@Item_func_format@@UEAAXPEAVString@@@Z 00000001400b1a90 f   item_strfunc.obj
 0001:000b0c00       ?fix_length_and_dec@Item_func_set_collation@@UEAAXXZ 00000001400b1c00 f   item_strfunc.obj
 0001:000b0da0       ?val_str@Item_func_export_set@@UEAAPEAVString@@PEAV2@@Z 00000001400b1da0 f   item_strfunc.obj
 0001:000b11c0       ??_EItem_func_format@@UEAAPEAXI@Z 00000001400b21c0 f i item_strfunc.obj
 0001:000b11c0       ??_GItem_func_format@@UEAAPEAXI@Z 00000001400b21c0 f i item_strfunc.obj
 0001:000b1250       ?get_cache@Item_in_optimizer@@QEAAPEAPEAVItem_cache@@XZ 00000001400b2250 f i item_subselect.obj
 0001:000b1260       ?top_level@Item_func_not_all@@QEAA_NXZ 00000001400b2260 f i item_subselect.obj
 0001:000b1270       ?set_sum_test@Item_func_not_all@@QEAAXPEAVItem_sum_hybrid@@@Z 00000001400b2270 f i item_subselect.obj
 0001:000b1280       ?set_sub_test@Item_func_not_all@@QEAAXPEAVItem_maxmin_subselect@@@Z 00000001400b2280 f i item_subselect.obj
 0001:000b1290       ?reset@Item_subselect@@UEAAXXZ 00000001400b2290 f i item_subselect.obj
 0001:000b12a0       ?assigned@Item_subselect@@QEAA_NXZ 00000001400b22a0 f i item_subselect.obj
 0001:000b12b0       ?assigned@Item_subselect@@QEAAX_N@Z 00000001400b22b0 f i item_subselect.obj
 0001:000b12c0       ?get_used_tables_cache@Item_subselect@@QEAA_KXZ 00000001400b22c0 f i item_subselect.obj
 0001:000b12d0       ?get_const_item_cache@Item_subselect@@QEAA_NXZ 00000001400b22d0 f i item_subselect.obj
 0001:000b12e0       ?get_cond_guard@Item_in_subselect@@QEAAPEA_NH@Z 00000001400b22e0 f i item_subselect.obj
 0001:000b1300       ?reset@Item_in_subselect@@UEAAXXZ 00000001400b2300 f i item_subselect.obj
 0001:000b1320       ??0subselect_engine@@QEAA@PEAVItem_subselect@@PEAVselect_subselect@@@Z 00000001400b2320 f i item_subselect.obj
 0001:000b1360       ??1subselect_engine@@UEAA@XZ 00000001400b2360 f i item_subselect.obj
 0001:000b1370       ?type@subselect_engine@@QEAA?AW4Item_result@@XZ 00000001400b2370 f i item_subselect.obj
 0001:000b1380       ?field_type@subselect_engine@@QEAA?AW4enum_field_types@@XZ 00000001400b2380 f i item_subselect.obj
 0001:000b1390       ?may_be_null@subselect_engine@@UEAA_NXZ 00000001400b2390 f i item_subselect.obj
 0001:000b13a0       ?is_executed@subselect_engine@@UEBA_NXZ 00000001400b23a0 f i item_subselect.obj
 0001:000b13b0       ??_Esubselect_engine@@UEAAPEAXI@Z 00000001400b23b0 f i item_subselect.obj
 0001:000b13b0       ??_Gsubselect_engine@@UEAAPEAXI@Z 00000001400b23b0 f i item_subselect.obj
 0001:000b13d0       ?next_select@st_select_lex@@QEAAPEAV1@XZ 00000001400b23d0 f i item_subselect.obj
 0001:000b13e0       ?is_stmt_prepare_or_first_sp_execute@Query_arena@@QEBA_NXZ 00000001400b23e0 f i item_subselect.obj
 0001:000b13f0       ??1select_result@@UEAA@XZ  00000001400b23f0 f i item_subselect.obj
 0001:000b1400       ?prepare@select_result@@UEAAHAEAV?$List@VItem@@@@PEAVst_select_lex_unit@@@Z 00000001400b2400 f i item_subselect.obj
 0001:000b1410       ?prepare2@select_result@@UEAAHXZ 00000001400b2410 f i item_subselect.obj
 0001:000b1420       ?field_count@select_result@@UEBAIAEAV?$List@VItem@@@@@Z 00000001400b2420 f i item_subselect.obj
 0001:000b1430       ?initialize_tables@select_result@@UEAA_NPEAVJOIN@@@Z 00000001400b2430 f i item_subselect.obj
 0001:000b1440       ?abort@select_result@@UEAAXXZ 00000001400b2440 f i item_subselect.obj
 0001:000b1450       ?set_thd@select_result@@QEAAXPEAVTHD@@@Z 00000001400b2450 f i item_subselect.obj
 0001:000b1460       ??_Gselect_result@@UEAAPEAXI@Z 00000001400b2460 f i item_subselect.obj
 0001:000b1460       ??_Eselect_result@@UEAAPEAXI@Z 00000001400b2460 f i item_subselect.obj
 0001:000b1480       ??1select_result_interceptor@@UEAA@XZ 00000001400b2480 f i item_subselect.obj
 0001:000b1490       ??1select_subselect@@UEAA@XZ 00000001400b2490 f i item_subselect.obj
 0001:000b14a0       ??0select_max_min_finder_subselect@@QEAA@PEAVItem_subselect@@_N@Z 00000001400b24a0 f i item_subselect.obj
 0001:000b14f0       ?field_count@select_result_interceptor@@UEBAIAEAV?$List@VItem@@@@@Z 00000001400b24f0 f i item_subselect.obj
 0001:000b1500       ?send_fields@select_result_interceptor@@UEAA_NAEAV?$List@VItem@@@@I@Z 00000001400b2500 f i item_subselect.obj
 0001:000b1510       ?send_eof@select_subselect@@UEAA_NXZ 00000001400b2510 f i item_subselect.obj
 0001:000b1520       ??1select_max_min_finder_subselect@@UEAA@XZ 00000001400b2520 f i item_subselect.obj
 0001:000b1530       ??0select_exists_subselect@@QEAA@PEAVItem_subselect@@@Z 00000001400b2530 f i item_subselect.obj
 0001:000b1560       ??1select_exists_subselect@@UEAA@XZ 00000001400b2560 f i item_subselect.obj
 0001:000b1570       ?init@JOIN@@QEAAXPEAVTHD@@AEAV?$List@VItem@@@@_KPEAVselect_result@@@Z 00000001400b2570 f i item_subselect.obj
 0001:000b17e0       ??1?$List@VCached_item@@@@QEAA@XZ 00000001400b27e0 f i item_subselect.obj
 0001:000b17f0       ?copy@store_key@@QEAA?AW4store_key_result@1@XZ 00000001400b27f0 f i item_subselect.obj
 0001:000b1870       ?get_select_lex@Item_subselect@@QEAAPEAVst_select_lex@@XZ 00000001400b2870 f   item_subselect.obj
 0001:000b1880       ?cleanup@Item_subselect@@UEAAXXZ 00000001400b2880 f   item_subselect.obj
 0001:000b1910       ?cleanup@Item_singlerow_subselect@@UEAAXXZ 00000001400b2910 f   item_subselect.obj
 0001:000b1930       ?select_transformer@Item_subselect@@UEAA?AW4trans_res@1@PEAVJOIN@@@Z 00000001400b2930 f   item_subselect.obj
 0001:000b1940       ?exec@Item_subselect@@UEAA_NXZ 00000001400b2940 f   item_subselect.obj
 0001:000b19c0       ?type@Item_subselect@@UEBA?AW4Type@Item@@XZ 00000001400b29c0 f   item_subselect.obj
 0001:000b19d0       ?fix_length_and_dec@Item_subselect@@UEAAXXZ 00000001400b29d0 f   item_subselect.obj
 0001:000b19f0       ?used_tables@Item_subselect@@UEBA_KXZ 00000001400b29f0 f   item_subselect.obj
 0001:000b1a30       ?const_item@Item_subselect@@UEBA_NXZ 00000001400b2a30 f   item_subselect.obj
 0001:000b1a40       ?get_tmp_table_item@Item_subselect@@UEAAPEAVItem@@PEAVTHD@@@Z 00000001400b2a40 f   item_subselect.obj
 0001:000b1ad0       ?update_used_tables@Item_subselect@@UEAAXXZ 00000001400b2ad0 f   item_subselect.obj
 0001:000b1b20       ?print@Item_subselect@@UEAAXPEAVString@@@Z 00000001400b2b20 f   item_subselect.obj
 0001:000b1c10       ?invalidate_and_restore_select_lex@Item_singlerow_subselect@@QEAAPEAVst_select_lex@@XZ 00000001400b2c10 f   item_subselect.obj
 0001:000b1c40       ?cleanup@Item_maxmin_subselect@@UEAAXXZ 00000001400b2c40 f   item_subselect.obj
 0001:000b1c70       ?print@Item_maxmin_subselect@@UEAAXPEAVString@@@Z 00000001400b2c70 f   item_subselect.obj
 0001:000b1cd0       ?reset@Item_singlerow_subselect@@UEAAXXZ 00000001400b2cd0 f   item_subselect.obj
 0001:000b1cf0       ?store@Item_singlerow_subselect@@QEAAXIPEAVItem@@@Z 00000001400b2cf0 f   item_subselect.obj
 0001:000b1d10       ?result_type@Item_singlerow_subselect@@UEBA?AW4Item_result@@XZ 00000001400b2d10 f   item_subselect.obj
 0001:000b1d20       ?field_type@Item_singlerow_subselect@@UEBA?AW4enum_field_types@@XZ 00000001400b2d20 f   item_subselect.obj
 0001:000b1d30       ?fix_length_and_dec@Item_singlerow_subselect@@UEAAXXZ 00000001400b2d30 f   item_subselect.obj
 0001:000b1e20       ?cols@Item_singlerow_subselect@@UEAAIXZ 00000001400b2e20 f   item_subselect.obj
 0001:000b1e40       ?check_cols@Item_singlerow_subselect@@UEAA_NI@Z 00000001400b2e40 f   item_subselect.obj
 0001:000b1e90       ?null_inside@Item_singlerow_subselect@@UEAA_NXZ 00000001400b2e90 f   item_subselect.obj
 0001:000b1ed0       ?bring_value@Item_singlerow_subselect@@UEAAXXZ 00000001400b2ed0 f   item_subselect.obj
 0001:000b1ee0       ?val_real@Item_singlerow_subselect@@UEAANXZ 00000001400b2ee0 f   item_subselect.obj
 0001:000b1f40       ?val_int@Item_singlerow_subselect@@UEAA_JXZ 00000001400b2f40 f   item_subselect.obj
 0001:000b1fa0       ?val_str@Item_singlerow_subselect@@UEAAPEAVString@@PEAV2@@Z 00000001400b2fa0 f   item_subselect.obj
 0001:000b2010       ?val_decimal@Item_singlerow_subselect@@UEAAPEAVmy_decimal@@PEAV2@@Z 00000001400b3010 f   item_subselect.obj
 0001:000b2090       ?val_bool@Item_singlerow_subselect@@UEAA_NXZ 00000001400b3090 f   item_subselect.obj
 0001:000b20f0       ?print@Item_exists_subselect@@UEAAXPEAVString@@@Z 00000001400b30f0 f   item_subselect.obj
 0001:000b2140       ?test_limit@Item_in_subselect@@QEAA_NPEAVst_select_lex_unit@@@Z 00000001400b3140 f   item_subselect.obj
 0001:000b21a0       ?val_real@Item_exists_subselect@@UEAANXZ 00000001400b31a0 f   item_subselect.obj
 0001:000b21f0       ?val_int@Item_exists_subselect@@UEAA_JXZ 00000001400b31f0 f   item_subselect.obj
 0001:000b2240       ?val_str@Item_exists_subselect@@UEAAPEAVString@@PEAV2@@Z 00000001400b3240 f   item_subselect.obj
 0001:000b22b0       ?val_decimal@Item_exists_subselect@@UEAAPEAVmy_decimal@@PEAV2@@Z 00000001400b32b0 f   item_subselect.obj
 0001:000b2330       ?val_bool@Item_exists_subselect@@UEAA_NXZ 00000001400b3330 f   item_subselect.obj
 0001:000b2380       ?val_real@Item_in_subselect@@UEAANXZ 00000001400b3380 f   item_subselect.obj
 0001:000b2400       ?val_int@Item_in_subselect@@UEAA_JXZ 00000001400b3400 f   item_subselect.obj
 0001:000b2470       ?val_str@Item_in_subselect@@UEAAPEAVString@@PEAV2@@Z 00000001400b3470 f   item_subselect.obj
 0001:000b2510       ?val_bool@Item_in_subselect@@UEAA_NXZ 00000001400b3510 f   item_subselect.obj
 0001:000b2580       ?val_decimal@Item_in_subselect@@UEAAPEAVmy_decimal@@PEAV2@@Z 00000001400b3580 f   item_subselect.obj
 0001:000b2620       ?print@Item_in_subselect@@UEAAXPEAVString@@@Z 00000001400b3620 f   item_subselect.obj
 0001:000b26a0       ?print@Item_allany_subselect@@UEAAXPEAVString@@@Z 00000001400b36a0 f   item_subselect.obj
 0001:000b27a0       ?set_thd@subselect_engine@@QEAAXPEAVTHD@@@Z 00000001400b37a0 f   item_subselect.obj
 0001:000b27c0       ??0subselect_single_select_engine@@QEAA@PEAVst_select_lex@@PEAVselect_subselect@@PEAVItem_subselect@@@Z 00000001400b37c0 f   item_subselect.obj
 0001:000b2840       ?is_executed@subselect_single_select_engine@@UEBA_NXZ 00000001400b3840 f i item_subselect.obj
 0001:000b2850       ??1subselect_single_select_engine@@UEAA@XZ 00000001400b3850 f i item_subselect.obj
 0001:000b2860       ?cleanup@subselect_single_select_engine@@UEAAXXZ 00000001400b3860 f   item_subselect.obj
 0001:000b2890       ?cleanup@subselect_union_engine@@UEAAXXZ 00000001400b3890 f   item_subselect.obj
 0001:000b28c0       ?is_executed@subselect_union_engine@@UEBA_NXZ 00000001400b38c0 f   item_subselect.obj
 0001:000b28d0       ?no_rows@subselect_union_engine@@UEAA_NXZ 00000001400b38d0 f   item_subselect.obj
 0001:000b2900       ?cleanup@subselect_uniquesubquery_engine@@UEAAXXZ 00000001400b3900 f   item_subselect.obj
 0001:000b2910       ??0subselect_union_engine@@QEAA@PEAVst_select_lex_unit@@PEAVselect_subselect@@PEAVItem_subselect@@@Z 00000001400b3910 f   item_subselect.obj
 0001:000b29a0       ??1subselect_union_engine@@UEAA@XZ 00000001400b39a0 f i item_subselect.obj
 0001:000b29b0       ?prepare@subselect_union_engine@@UEAAHXZ 00000001400b39b0 f   item_subselect.obj
 0001:000b29e0       ?prepare@subselect_uniquesubquery_engine@@UEAAHXZ 00000001400b39e0 f   item_subselect.obj
 0001:000b29f0       ?no_rows@subselect_single_select_engine@@UEAA_NXZ 00000001400b39f0 f   item_subselect.obj
 0001:000b2a00       ?fix_length_and_dec@subselect_uniquesubquery_engine@@UEAAXPEAPEAVItem_cache@@@Z 00000001400b3a00 f   item_subselect.obj
 0001:000b2a10       ?exec@subselect_single_select_engine@@UEAAHXZ 00000001400b3a10 f   item_subselect.obj
 0001:000b2e90       ?exec@subselect_union_engine@@UEAAHXZ 00000001400b3e90 f   item_subselect.obj
 0001:000b2ee0       ?scan_table@subselect_uniquesubquery_engine@@QEAAHXZ 00000001400b3ee0 f   item_subselect.obj
 0001:000b3030       ?copy_ref_key@subselect_uniquesubquery_engine@@QEAA_NXZ 00000001400b4030 f   item_subselect.obj
 0001:000b3160       ?exec@subselect_uniquesubquery_engine@@UEAAHXZ 00000001400b4160 f   item_subselect.obj
 0001:000b3310       ??1subselect_uniquesubquery_engine@@UEAA@XZ 00000001400b4310 f   item_subselect.obj
 0001:000b3360       ?cols@subselect_uniquesubquery_engine@@UEAAIXZ 00000001400b4360 f i item_subselect.obj
 0001:000b3370       ?uncacheable@subselect_uniquesubquery_engine@@UEAAEXZ 00000001400b4370 f i item_subselect.obj
 0001:000b3380       ?upper_select_const_tables@subselect_uniquesubquery_engine@@UEAA_KXZ 00000001400b4380 f i item_subselect.obj
 0001:000b3390       ?no_rows@subselect_uniquesubquery_engine@@UEAA_NXZ 00000001400b4390 f i item_subselect.obj
 0001:000b33a0       ?exec@subselect_indexsubquery_engine@@UEAAHXZ 00000001400b43a0 f   item_subselect.obj
 0001:000b3610       ?cols@subselect_single_select_engine@@UEAAIXZ 00000001400b4610 f   item_subselect.obj
 0001:000b3630       ?cols@subselect_union_engine@@UEAAIXZ 00000001400b4630 f   item_subselect.obj
 0001:000b3640       ?uncacheable@subselect_single_select_engine@@UEAAEXZ 00000001400b4640 f   item_subselect.obj
 0001:000b3650       ?uncacheable@subselect_union_engine@@UEAAEXZ 00000001400b4650 f   item_subselect.obj
 0001:000b3660       ?exclude@subselect_single_select_engine@@UEAAXXZ 00000001400b4660 f   item_subselect.obj
 0001:000b3680       ?exclude@subselect_union_engine@@UEAAXXZ 00000001400b4680 f   item_subselect.obj
 0001:000b3690       ?exclude@subselect_uniquesubquery_engine@@UEAAXXZ 00000001400b4690 f   item_subselect.obj
 0001:000b36a0       ?calc_const_tables@subselect_engine@@SA_KPEAUTABLE_LIST@@@Z 00000001400b46a0 f   item_subselect.obj
 0001:000b36f0       ?upper_select_const_tables@subselect_single_select_engine@@UEAA_KXZ 00000001400b46f0 f   item_subselect.obj
 0001:000b3720       ?upper_select_const_tables@subselect_union_engine@@UEAA_KXZ 00000001400b4720 f   item_subselect.obj
 0001:000b3750       ?print@subselect_single_select_engine@@UEAAXPEAVString@@@Z 00000001400b4750 f   item_subselect.obj
 0001:000b3770       ?print@subselect_union_engine@@UEAAXPEAVString@@@Z 00000001400b4770 f   item_subselect.obj
 0001:000b3780       ?print@subselect_uniquesubquery_engine@@UEAAXPEAVString@@@Z 00000001400b4780 f   item_subselect.obj
 0001:000b38e0       ?print@subselect_indexsubquery_engine@@UEAAXPEAVString@@@Z 00000001400b48e0 f   item_subselect.obj
 0001:000b3a90       ?change_result@subselect_single_select_engine@@UEAA_NPEAVItem_subselect@@PEAVselect_subselect@@@Z 00000001400b4a90 f   item_subselect.obj
 0001:000b3ac0       ?change_result@subselect_union_engine@@UEAA_NPEAVItem_subselect@@PEAVselect_subselect@@@Z 00000001400b4ac0 f   item_subselect.obj
 0001:000b3b10       ?change_result@subselect_uniquesubquery_engine@@UEAA_NPEAVItem_subselect@@PEAVselect_subselect@@@Z 00000001400b4b10 f   item_subselect.obj
 0001:000b3b20       ?no_tables@subselect_single_select_engine@@UEAA_NXZ 00000001400b4b20 f   item_subselect.obj
 0001:000b3b40       ?may_be_null@subselect_single_select_engine@@UEAA_NXZ 00000001400b4b40 f   item_subselect.obj
 0001:000b3b90       ?no_tables@subselect_union_engine@@UEAA_NXZ 00000001400b4b90 f   item_subselect.obj
 0001:000b3bd0       ?no_tables@subselect_uniquesubquery_engine@@UEAA_NXZ 00000001400b4bd0 f   item_subselect.obj
 0001:000b3be0       ?head@?$List@VItem@@@@QEAAPEAVItem@@XZ 00000001400b4be0 f i item_subselect.obj
 0001:000b3bf0       ??0?$List@VCached_item@@@@QEAA@XZ 00000001400b4bf0 f i item_subselect.obj
 0001:000b3c10       ??_9Item@@$BBNA@AA         00000001400b4c10 f i item_subselect.obj
 0001:000b3c20       ??1Copy_field@@QEAA@XZ     00000001400b4c20 f i item_subselect.obj
 0001:000b3c70       ??0Item_ref_null_helper@@QEAA@PEAUName_resolution_context@@PEAVItem_in_subselect@@PEAPEAVItem@@PEBD3@Z 00000001400b4c70 f i item_subselect.obj
 0001:000b3ce0       ?used_tables@Item_ref_null_helper@@UEBA_KXZ 00000001400b4ce0 f i item_subselect.obj
 0001:000b3d40       ??1Item_ref_null_helper@@UEAA@XZ 00000001400b4d40 f i item_subselect.obj
 0001:000b3da0       ??0Item_sum@@QEAA@PEAVItem@@@Z 00000001400b4da0 f i item_subselect.obj
 0001:000b3e50       ?type@Item_sum@@UEBA?AW4Type@Item@@XZ 00000001400b4e50 f i item_subselect.obj
 0001:000b3e60       ?keep_field_type@Item_sum@@UEBA_NXZ 00000001400b4e60 f i item_subselect.obj
 0001:000b3e70       ?fix_length_and_dec@Item_sum@@UEAAXXZ 00000001400b4e70 f i item_subselect.obj
 0001:000b3e80       ?result_item@Item_sum@@UEAAPEAVItem@@PEAVField@@@Z 00000001400b4e80 f i item_subselect.obj
 0001:000b3ec0       ?used_tables@Item_sum@@UEBA_KXZ 00000001400b4ec0 f i item_subselect.obj
 0001:000b3ed0       ?cleanup@Item_sum@@UEAAXXZ 00000001400b4ed0 f i item_subselect.obj
 0001:000b3f00       ?is_null@Item_sum@@UEAA_NXZ 00000001400b4f00 f i item_subselect.obj
 0001:000b3f10       ?const_item@Item_sum@@UEBA_NXZ 00000001400b4f10 f i item_subselect.obj
 0001:000b3f20       ?no_rows_in_result@Item_sum@@UEAAXXZ 00000001400b4f20 f i item_subselect.obj
 0001:000b3f30       ?setup@Item_sum@@UEAA_NPEAVTHD@@@Z 00000001400b4f30 f i item_subselect.obj
 0001:000b3f40       ?make_unique@Item_sum@@UEAAXXZ 00000001400b4f40 f i item_subselect.obj
 0001:000b3f50       ??1Item_sum@@UEAA@XZ       00000001400b4f50 f i item_subselect.obj
 0001:000b3fb0       ??0Item_sum_hybrid@@QEAA@PEAVItem@@H@Z 00000001400b4fb0 f i item_subselect.obj
 0001:000b4160       ?keep_field_type@Item_sum_hybrid@@UEBA_NXZ 00000001400b5160 f i item_subselect.obj
 0001:000b4170       ?result_type@Item_sum_hybrid@@UEBA?AW4Item_result@@XZ 00000001400b5170 f i item_subselect.obj
 0001:000b4180       ?field_type@Item_sum_hybrid@@UEBA?AW4enum_field_types@@XZ 00000001400b5180 f i item_subselect.obj
 0001:000b4190       ??1Item_sum_hybrid@@UEAA@XZ 00000001400b5190 f i item_subselect.obj
 0001:000b4260       ??0Item_sum_min@@QEAA@PEAVItem@@@Z 00000001400b5260 f i item_subselect.obj
 0001:000b4290       ?sum_func@Item_sum_min@@UEBA?AW4Sumfunctype@Item_sum@@XZ 00000001400b5290 f i item_subselect.obj
 0001:000b42a0       ?func_name@Item_sum_min@@UEBAPEBDXZ 00000001400b52a0 f i item_subselect.obj
 0001:000b42b0       ??1Item_sum_min@@UEAA@XZ   00000001400b52b0 f i item_subselect.obj
 0001:000b4380       ??0Item_sum_max@@QEAA@PEAVItem@@@Z 00000001400b5380 f i item_subselect.obj
 0001:000b43b0       ?sum_func@Item_sum_max@@UEBA?AW4Sumfunctype@Item_sum@@XZ 00000001400b53b0 f i item_subselect.obj
 0001:000b43c0       ?func_name@Item_sum_max@@UEBAPEBDXZ 00000001400b53c0 f i item_subselect.obj
 0001:000b43d0       ??1Item_sum_max@@UEAA@XZ   00000001400b53d0 f i item_subselect.obj
 0001:000b44a0       ??0Item_bool_func@@QEAA@PEAVItem@@0@Z 00000001400b54a0 f i item_subselect.obj
 0001:000b4560       ??0Item_in_optimizer@@QEAA@PEAVItem@@PEAVItem_in_subselect@@@Z 00000001400b5560 f i item_subselect.obj
 0001:000b4630       ?func_name@Item_in_optimizer@@UEBAPEBDXZ 00000001400b5630 f i item_subselect.obj
 0001:000b4640       ??1Item_in_optimizer@@UEAA@XZ 00000001400b5640 f i item_subselect.obj
 0001:000b46a0       ??0Item_func_trig_cond@@QEAA@PEAVItem@@PEA_N@Z 00000001400b56a0 f i item_subselect.obj
 0001:000b4750       ?val_int@Item_func_trig_cond@@UEAA_JXZ 00000001400b5750 f i item_subselect.obj
 0001:000b4780       ?functype@Item_func_trig_cond@@UEBA?AW4Functype@Item_func@@XZ 00000001400b5780 f i item_subselect.obj
 0001:000b4790       ?func_name@Item_func_trig_cond@@UEBAPEBDXZ 00000001400b5790 f i item_subselect.obj
 0001:000b47a0       ?const_item@Item_func_trig_cond@@UEBA_NXZ 00000001400b57a0 f i item_subselect.obj
 0001:000b47b0       ??1Item_func_trig_cond@@UEAA@XZ 00000001400b57b0 f i item_subselect.obj
 0001:000b4810       ??0Item_is_not_null_test@@QEAA@PEAVItem_in_subselect@@PEAVItem@@@Z 00000001400b5810 f i item_subselect.obj
 0001:000b48c0       ?functype@Item_is_not_null_test@@UEBA?AW4Functype@Item_func@@XZ 00000001400b58c0 f i item_subselect.obj
 0001:000b48d0       ?func_name@Item_is_not_null_test@@UEBAPEBDXZ 00000001400b58d0 f i item_subselect.obj
 0001:000b48e0       ?used_tables@Item_is_not_null_test@@UEBA_KXZ 00000001400b58e0 f i item_subselect.obj
 0001:000b4900       ??1Item_is_not_null_test@@UEAA@XZ 00000001400b5900 f i item_subselect.obj
 0001:000b4960       ??0Item_cond_or@@QEAA@PEAVItem@@0@Z 00000001400b5960 f i item_subselect.obj
 0001:000b4990       ??_Gsubselect_uniquesubquery_engine@@UEAAPEAXI@Z 00000001400b5990 f i item_subselect.obj
 0001:000b4990       ??_Esubselect_uniquesubquery_engine@@UEAAPEAXI@Z 00000001400b5990 f i item_subselect.obj
 0001:000b49b0       ??0TMP_TABLE_PARAM@@QEAA@XZ 00000001400b59b0 f i item_subselect.obj
 0001:000b4a30       ??_ECopy_field@@QEAAPEAXI@Z 00000001400b5a30 f i item_subselect.obj
 0001:000b4b00       ??0select_singlerow_subselect@@QEAA@PEAVItem_subselect@@@Z 00000001400b5b00 f i item_subselect.obj
 0001:000b4b30       ??1select_singlerow_subselect@@UEAA@XZ 00000001400b5b30 f i item_subselect.obj
 0001:000b4b40       ??_Eselect_singlerow_subselect@@UEAAPEAXI@Z 00000001400b5b40 f i item_subselect.obj
 0001:000b4b40       ??_Gselect_singlerow_subselect@@UEAAPEAXI@Z 00000001400b5b40 f i item_subselect.obj
 0001:000b4b60       ??_Gselect_max_min_finder_subselect@@UEAAPEAXI@Z 00000001400b5b60 f i item_subselect.obj
 0001:000b4b60       ??_Eselect_max_min_finder_subselect@@UEAAPEAXI@Z 00000001400b5b60 f i item_subselect.obj
 0001:000b4b80       ??_Gselect_exists_subselect@@UEAAPEAXI@Z 00000001400b5b80 f i item_subselect.obj
 0001:000b4b80       ??_Eselect_exists_subselect@@UEAAPEAXI@Z 00000001400b5b80 f i item_subselect.obj
 0001:000b4ba0       ?and_items@@YAPEAVItem@@PEAV1@0@Z 00000001400b5ba0 f i item_subselect.obj
 0001:000b4c70       ??0Item_subselect@@QEAA@XZ 00000001400b5c70 f   item_subselect.obj
 0001:000b4d10       ?substype@Item_subselect@@UEAA?AW4subs_type@1@XZ 00000001400b5d10 f i item_subselect.obj
 0001:000b4d20       ?is_null@Item_subselect@@UEAA_NXZ 00000001400b5d20 f i item_subselect.obj
 0001:000b4d50       ?not_null_tables@Item_subselect@@UEBA_KXZ 00000001400b5d50 f i item_subselect.obj
 0001:000b4d60       ?have_guarded_conds@Item_subselect@@UEAA_NXZ 00000001400b5d60 f i item_subselect.obj
 0001:000b4d70       ?reset_value_registration@Item_subselect@@UEAAXXZ 00000001400b5d70 f i item_subselect.obj
 0001:000b4d80       ?init@Item_subselect@@UEAAXPEAVst_select_lex@@PEAVselect_subselect@@@Z 00000001400b5d80 f   item_subselect.obj
 0001:000b4f30       ??1Item_subselect@@UEAA@XZ 00000001400b5f30 f   item_subselect.obj
 0001:000b4fb0       ?fix_fields@Item_subselect@@UEAA_NPEAVTHD@@PEAPEAVItem@@@Z 00000001400b5fb0 f   item_subselect.obj
 0001:000b5250       ??0Item_singlerow_subselect@@QEAA@PEAVst_select_lex@@@Z 00000001400b6250 f   item_subselect.obj
 0001:000b5300       ?substype@Item_singlerow_subselect@@UEAA?AW4subs_type@Item_subselect@@XZ 00000001400b6300 f i item_subselect.obj
 0001:000b5310       ?element_index@Item_singlerow_subselect@@UEAAPEAVItem@@I@Z 00000001400b6310 f i item_subselect.obj
 0001:000b5330       ?addr@Item_singlerow_subselect@@UEAAPEAPEAVItem@@I@Z 00000001400b6330 f i item_subselect.obj
 0001:000b5350       ?select_transformer@Item_singlerow_subselect@@UEAA?AW4trans_res@Item_subselect@@PEAVJOIN@@@Z 00000001400b6350 f   item_subselect.obj
 0001:000b5560       ??0Item_exists_subselect@@QEAA@PEAVst_select_lex@@@Z 00000001400b6560 f   item_subselect.obj
 0001:000b5610       ?substype@Item_exists_subselect@@UEAA?AW4subs_type@Item_subselect@@XZ 00000001400b6610 f i item_subselect.obj
 0001:000b5620       ?reset@Item_exists_subselect@@UEAAXXZ 00000001400b6620 f i item_subselect.obj
 0001:000b5630       ?result_type@Item_exists_subselect@@UEBA?AW4Item_result@@XZ 00000001400b6630 f i item_subselect.obj
 0001:000b5640       ?row_value_transformer@Item_in_subselect@@QEAA?AW4trans_res@Item_subselect@@PEAVJOIN@@@Z 00000001400b6640 f   item_subselect.obj
 0001:000b6670       ?fix_fields@Item_in_subselect@@UEAA_NPEAVTHD@@PEAPEAVItem@@@Z 00000001400b7670 f   item_subselect.obj
 0001:000b6710       ??_Gsubselect_single_select_engine@@UEAAPEAXI@Z 00000001400b7710 f i item_subselect.obj
 0001:000b6710       ??_Esubselect_single_select_engine@@UEAAPEAXI@Z 00000001400b7710 f i item_subselect.obj
 0001:000b6730       ??_Gsubselect_union_engine@@UEAAPEAXI@Z 00000001400b7730 f i item_subselect.obj
 0001:000b6730       ??_Esubselect_union_engine@@UEAAPEAXI@Z 00000001400b7730 f i item_subselect.obj
 0001:000b6750       ??_GItem_ref_null_helper@@UEAAPEAXI@Z 00000001400b7750 f i item_subselect.obj
 0001:000b6750       ??_EItem_ref_null_helper@@UEAAPEAXI@Z 00000001400b7750 f i item_subselect.obj
 0001:000b67b0       ??_EItem_sum@@UEAAPEAXI@Z  00000001400b77b0 f i item_subselect.obj
 0001:000b67b0       ??_GItem_sum@@UEAAPEAXI@Z  00000001400b77b0 f i item_subselect.obj
 0001:000b6810       ??_GItem_sum_hybrid@@UEAAPEAXI@Z 00000001400b7810 f i item_subselect.obj
 0001:000b6810       ??_EItem_sum_hybrid@@UEAAPEAXI@Z 00000001400b7810 f i item_subselect.obj
 0001:000b68e0       ??_GItem_sum_min@@UEAAPEAXI@Z 00000001400b78e0 f i item_subselect.obj
 0001:000b68e0       ??_EItem_sum_min@@UEAAPEAXI@Z 00000001400b78e0 f i item_subselect.obj
 0001:000b69b0       ??_GItem_sum_max@@UEAAPEAXI@Z 00000001400b79b0 f i item_subselect.obj
 0001:000b69b0       ??_EItem_sum_max@@UEAAPEAXI@Z 00000001400b79b0 f i item_subselect.obj
 0001:000b6a80       ??_GItem_in_optimizer@@UEAAPEAXI@Z 00000001400b7a80 f i item_subselect.obj
 0001:000b6a80       ??_EItem_in_optimizer@@UEAAPEAXI@Z 00000001400b7a80 f i item_subselect.obj
 0001:000b6ae0       ??_GItem_func_trig_cond@@UEAAPEAXI@Z 00000001400b7ae0 f i item_subselect.obj
 0001:000b6ae0       ??_EItem_func_trig_cond@@UEAAPEAXI@Z 00000001400b7ae0 f i item_subselect.obj
 0001:000b6b40       ??_EItem_is_not_null_test@@UEAAPEAXI@Z 00000001400b7b40 f i item_subselect.obj
 0001:000b6b40       ??_GItem_is_not_null_test@@UEAAPEAXI@Z 00000001400b7b40 f i item_subselect.obj
 0001:000b6ba0       ??0Item_singlerow_subselect@@QEAA@XZ 00000001400b7ba0 f i item_subselect.obj
 0001:000b6be0       ??1Item_singlerow_subselect@@UEAA@XZ 00000001400b7be0 f i item_subselect.obj
 0001:000b6bf0       ??0Item_exists_subselect@@QEAA@XZ 00000001400b7bf0 f i item_subselect.obj
 0001:000b6c20       ??1Item_exists_subselect@@UEAA@XZ 00000001400b7c20 f i item_subselect.obj
 0001:000b6c30       ??0Item_in_subselect@@QEAA@XZ 00000001400b7c30 f i item_subselect.obj
 0001:000b6c90       ?have_guarded_conds@Item_in_subselect@@UEAA_NXZ 00000001400b7c90 f i item_subselect.obj
 0001:000b6ca0       ?substype@Item_in_subselect@@UEAA?AW4subs_type@Item_subselect@@XZ 00000001400b7ca0 f i item_subselect.obj
 0001:000b6cb0       ?update_null_value@Item_in_subselect@@UEAAXXZ 00000001400b7cb0 f i item_subselect.obj
 0001:000b6cc0       ?top_level_item@Item_in_subselect@@UEAAXXZ 00000001400b7cc0 f i item_subselect.obj
 0001:000b6cd0       ??1Item_in_subselect@@UEAA@XZ 00000001400b7cd0 f i item_subselect.obj
 0001:000b6ce0       ?cleanup@TMP_TABLE_PARAM@@QEAAXXZ 00000001400b7ce0 f i item_subselect.obj
 0001:000b6d90       ??_GItem_subselect@@UEAAPEAXI@Z 00000001400b7d90 f i item_subselect.obj
 0001:000b6d90       ??_EItem_subselect@@UEAAPEAXI@Z 00000001400b7d90 f i item_subselect.obj
 0001:000b6db0       ??0Item_maxmin_subselect@@QEAA@PEAVTHD@@PEAVItem_subselect@@PEAVst_select_lex@@_N@Z 00000001400b7db0 f   item_subselect.obj
 0001:000b6ee0       ?reset_value_registration@Item_maxmin_subselect@@UEAAXXZ 00000001400b7ee0 f i item_subselect.obj
 0001:000b6ef0       ??1Item_maxmin_subselect@@UEAA@XZ 00000001400b7ef0 f i item_subselect.obj
 0001:000b6f00       ??0Item_in_subselect@@QEAA@PEAVItem@@PEAVst_select_lex@@@Z 00000001400b7f00 f   item_subselect.obj
 0001:000b7020       ??0Item_allany_subselect@@QEAA@PEAVItem@@P6APEAVComp_creator@@_N@ZPEAVst_select_lex@@1@Z 00000001400b8020 f   item_subselect.obj
 0001:000b7170       ?substype@Item_allany_subselect@@UEAA?AW4subs_type@Item_subselect@@XZ 00000001400b8170 f i item_subselect.obj
 0001:000b7190       ??1Item_allany_subselect@@UEAA@XZ 00000001400b8190 f i item_subselect.obj
 0001:000b71a0       ?fix_length_and_dec@Item_exists_subselect@@UEAAXXZ 00000001400b81a0 f   item_subselect.obj
 0001:000b7250       ?single_value_transformer@Item_in_subselect@@QEAA?AW4trans_res@Item_subselect@@PEAVJOIN@@PEAVComp_creator@@@Z 00000001400b8250 f   item_subselect.obj
 0001:000b7ec0       ?select_in_like_transformer@Item_in_subselect@@QEAA?AW4trans_res@Item_subselect@@PEAVJOIN@@PEAVComp_creator@@@Z 00000001400b8ec0 f   item_subselect.obj
 0001:000b82d0       ?select_transformer@Item_allany_subselect@@UEAA?AW4trans_res@Item_subselect@@PEAVJOIN@@@Z 00000001400b92d0 f   item_subselect.obj
 0001:000b8300       ?set_row@subselect_engine@@IEAAXAEAV?$List@VItem@@@@PEAPEAVItem_cache@@@Z 00000001400b9300 f   item_subselect.obj
 0001:000b8420       ?fix_length_and_dec@subselect_single_select_engine@@UEAAXPEAPEAVItem_cache@@@Z 00000001400b9420 f   item_subselect.obj
 0001:000b84a0       ?fix_length_and_dec@subselect_union_engine@@UEAAXPEAPEAVItem_cache@@@Z 00000001400b94a0 f   item_subselect.obj
 0001:000b8550       ??_GItem_singlerow_subselect@@UEAAPEAXI@Z 00000001400b9550 f i item_subselect.obj
 0001:000b8550       ??_EItem_singlerow_subselect@@UEAAPEAXI@Z 00000001400b9550 f i item_subselect.obj
 0001:000b8570       ??_GItem_exists_subselect@@UEAAPEAXI@Z 00000001400b9570 f i item_subselect.obj
 0001:000b8570       ??_EItem_exists_subselect@@UEAAPEAXI@Z 00000001400b9570 f i item_subselect.obj
 0001:000b8590       ??_EItem_in_subselect@@UEAAPEAXI@Z 00000001400b9590 f i item_subselect.obj
 0001:000b8590       ??_GItem_in_subselect@@UEAAPEAXI@Z 00000001400b9590 f i item_subselect.obj
 0001:000b85b0       ??1TMP_TABLE_PARAM@@QEAA@XZ 00000001400b95b0 f i item_subselect.obj
 0001:000b8660       ??0JOIN@@QEAA@PEAVTHD@@AEAV?$List@VItem@@@@_KPEAVselect_result@@@Z 00000001400b9660 f i item_subselect.obj
 0001:000b87e0       ??_EItem_maxmin_subselect@@UEAAPEAXI@Z 00000001400b97e0 f i item_subselect.obj
 0001:000b87e0       ??_GItem_maxmin_subselect@@UEAAPEAXI@Z 00000001400b97e0 f i item_subselect.obj
 0001:000b8800       ??_EItem_allany_subselect@@UEAAPEAXI@Z 00000001400b9800 f i item_subselect.obj
 0001:000b8800       ??_GItem_allany_subselect@@UEAAPEAXI@Z 00000001400b9800 f i item_subselect.obj
 0001:000b8820       ?select_transformer@Item_in_subselect@@UEAA?AW4trans_res@Item_subselect@@PEAVJOIN@@@Z 00000001400b9820 f   item_subselect.obj
 0001:000b8830       ?prepare@subselect_single_select_engine@@UEAAHXZ 00000001400b9830 f   item_subselect.obj
 0001:000b8b10       ??2String@@SAPEAX_KPEAUst_mem_root@@@Z 00000001400b9b10 f i item_sum.obj
 0001:000b8b20       ?is_null_in_record@Field@@QEAA_NPEBE@Z 00000001400b9b20 f i item_sum.obj
 0001:000b8b60       ?clear@udf_handler@@QEAAXXZ 00000001400b9b60 f i item_sum.obj
 0001:000b8b80       ?add@udf_handler@@QEAAXPEAD@Z 00000001400b9b80 f i item_sum.obj
 0001:000b8c20       ??2Item@@SAPEAX_KPEAUst_mem_root@@@Z 00000001400b9c20 f i item_sum.obj
 0001:000b8c30       ?reset@Item_sum@@QEAA_NXZ  00000001400b9c30 f i item_sum.obj
 0001:000b8c60       ?val_decimal@Item_variance_field@@UEAAPEAVmy_decimal@@PEAV2@@Z 00000001400b9c60 f i item_sum.obj
 0001:000b8c70       ?agg_func_used@st_select_lex@@QEBA_NXZ 00000001400b9c70 f i item_sum.obj
 0001:000b8c80       ?set_agg_func_used@st_select_lex@@QEAAX_N@Z 00000001400b9c80 f i item_sum.obj
 0001:000b8c90       ?elements_in_tree@Unique@@QEAAKXZ 00000001400b9c90 f i item_sum.obj
 0001:000b8ca0       ?unique_add@Unique@@QEAA_NPEAX@Z 00000001400b9ca0 f i item_sum.obj
 0001:000b8d20       ?init_sum_func_check@Item_sum@@QEAA_NPEAVTHD@@@Z 00000001400b9d20 f   item_sum.obj
 0001:000b8e00       ?register_sum_func@Item_sum@@QEAA_NPEAVTHD@@PEAPEAVItem@@@Z 00000001400b9e00 f   item_sum.obj
 0001:000b9010       ?mark_as_sum_func@Item_sum@@QEAAXXZ 00000001400ba010 f   item_sum.obj
 0001:000b9060       ?make_field@Item_sum@@UEAAXPEAVSend_field@@@Z 00000001400ba060 f   item_sum.obj
 0001:000b9130       ?print@Item_sum@@UEAAXPEAVString@@@Z 00000001400ba130 f   item_sum.obj
 0001:000b9260       ?fix_num_length_and_dec@Item_sum@@QEAAXXZ 00000001400ba260 f   item_sum.obj
 0001:000b92e0       ?get_tmp_table_item@Item_sum@@UEAAPEAVItem@@PEAVTHD@@@Z 00000001400ba2e0 f   item_sum.obj
 0001:000b9400       ?walk@Item_sum@@UEAA_NP8Item@@EAA_NPEAE@Z0@Z 00000001400ba400 f   item_sum.obj
 0001:000b94b0       ?update_used_tables@Item_sum@@UEAAXXZ 00000001400ba4b0 f   item_sum.obj
 0001:000b95b0       ?set_arg@Item_sum@@QEAAPEAVItem@@HPEAVTHD@@PEAV2@@Z 00000001400ba5b0 f   item_sum.obj
 0001:000b9620       ?val_str@Item_sum_num@@UEAAPEAVString@@PEAV2@@Z 00000001400ba620 f   item_sum.obj
 0001:000b9630       ?val_decimal@Item_sum_num@@UEAAPEAVmy_decimal@@PEAV2@@Z 00000001400ba630 f   item_sum.obj
 0001:000b9640       ?val_str@Item_sum_int@@UEAAPEAVString@@PEAV2@@Z 00000001400ba640 f   item_sum.obj
 0001:000b9650       ?val_decimal@Item_sum_int@@UEAAPEAVmy_decimal@@PEAV2@@Z 00000001400ba650 f   item_sum.obj
 0001:000b9660       ?clear@Item_sum_sum@@UEAAXXZ 00000001400ba660 f   item_sum.obj
 0001:000b96b0       ?fix_length_and_dec@Item_sum_sum@@MEAAXXZ 00000001400ba6b0 f   item_sum.obj
 0001:000b97d0       ?val_real@Item_sum_sum@@UEAANXZ 00000001400ba7d0 f   item_sum.obj
 0001:000b9830       ?val_str@Item_sum_sum@@UEAAPEAVString@@PEAV2@@Z 00000001400ba830 f   item_sum.obj
 0001:000b9850       ?val_decimal@Item_sum_sum@@UEAAPEAVmy_decimal@@PEAV2@@Z 00000001400ba850 f   item_sum.obj
 0001:000b98d0       ??0Hybrid_type_traits_fast_decimal@@QEAA@XZ 00000001400ba8d0 f i item_sum.obj
 0001:000b98f0       ?type@Hybrid_type_traits_fast_decimal@@UEBA?AW4Item_result@@XZ 00000001400ba8f0 f i item_sum.obj
 0001:000b9900       ?fix_length_and_dec@Hybrid_type_traits_fast_decimal@@UEBAXPEAVItem@@0@Z 00000001400ba900 f i item_sum.obj
 0001:000b9940       ?div@Hybrid_type_traits_fast_decimal@@UEBAXPEAUHybrid_type@@_K@Z 00000001400ba940 f i item_sum.obj
 0001:000b99b0       ??1Hybrid_type_traits_fast_decimal@@UEAA@XZ 00000001400ba9b0 f i item_sum.obj
 0001:000b99c0       ?instance@Hybrid_type_traits_fast_decimal@@SAPEBU1@XZ 00000001400ba9c0 f   item_sum.obj
 0001:000b99d0       ?fix_length_and_dec@Item_sum_distinct@@UEAAXXZ 00000001400ba9d0 f   item_sum.obj
 0001:000b9ae0       ?add@Item_sum_distinct@@UEAA_NXZ 00000001400baae0 f   item_sum.obj
 0001:000b9bf0       ?unique_walk_function@Item_sum_distinct@@UEAA_NPEAX@Z 00000001400babf0 f   item_sum.obj
 0001:000b9c60       ?clear@Item_sum_distinct@@UEAAXXZ 00000001400bac60 f   item_sum.obj
 0001:000b9c90       ??_GUnique@@QEAAPEAXI@Z    00000001400bac90 f i item_sum.obj
 0001:000b9cb0       ?calculate_val_and_count@Item_sum_distinct@@UEAAXXZ 00000001400bacb0 f   item_sum.obj
 0001:000b9d50       ?val_real@Item_sum_distinct@@UEAANXZ 00000001400bad50 f   item_sum.obj
 0001:000b9d90       ?val_decimal@Item_sum_distinct@@UEAAPEAVmy_decimal@@PEAV2@@Z 00000001400bad90 f   item_sum.obj
 0001:000b9e00       ?val_int@Item_sum_distinct@@UEAA_JXZ 00000001400bae00 f   item_sum.obj
 0001:000b9e50       ?val_str@Item_sum_distinct@@UEAAPEAVString@@PEAV2@@Z 00000001400bae50 f   item_sum.obj
 0001:000b9ec0       ?fix_length_and_dec@Item_sum_avg_distinct@@UEAAXXZ 00000001400baec0 f   item_sum.obj
 0001:000b9f30       ?calculate_val_and_count@Item_sum_avg_distinct@@UEAAXXZ 00000001400baf30 f   item_sum.obj
 0001:000b9f90       ?clear@Item_sum_count@@UEAAXXZ 00000001400baf90 f   item_sum.obj
 0001:000b9fa0       ?add@Item_sum_count@@UEAA_NXZ 00000001400bafa0 f   item_sum.obj
 0001:000b9ff0       ?val_int@Item_sum_count@@UEAA_JXZ 00000001400baff0 f   item_sum.obj
 0001:000ba000       ?cleanup@Item_sum_count@@UEAAXXZ 00000001400bb000 f   item_sum.obj
 0001:000ba030       ?fix_length_and_dec@Item_sum_avg@@UEAAXXZ 00000001400bb030 f   item_sum.obj
 0001:000ba1a0       ?clear@Item_sum_avg@@UEAAXXZ 00000001400bb1a0 f   item_sum.obj
 0001:000ba1c0       ?val_real@Item_sum_avg@@UEAANXZ 00000001400bb1c0 f   item_sum.obj
 0001:000ba220       ?val_str@Item_sum_avg@@UEAAPEAVString@@PEAV2@@Z 00000001400bb220 f   item_sum.obj
 0001:000ba300       ?fix_length_and_dec@Item_sum_variance@@EEAAXXZ 00000001400bb300 f   item_sum.obj
 0001:000ba460       ?clear@Item_sum_variance@@UEAAXXZ 00000001400bb460 f   item_sum.obj
 0001:000ba470       ?add@Item_sum_variance@@UEAA_NXZ 00000001400bb470 f   item_sum.obj
 0001:000ba4e0       ?val_real@Item_sum_variance@@UEAANXZ 00000001400bb4e0 f   item_sum.obj
 0001:000ba520       ?val_decimal@Item_sum_variance@@UEAAPEAVmy_decimal@@PEAV2@@Z 00000001400bb520 f   item_sum.obj
 0001:000ba530       ?reset_field@Item_sum_variance@@UEAAXXZ 00000001400bb530 f   item_sum.obj
 0001:000ba5e0       ?update_field@Item_sum_variance@@UEAAXXZ 00000001400bb5e0 f   item_sum.obj
 0001:000ba6d0       ?clear@Item_sum_hybrid@@UEAAXXZ 00000001400bb6d0 f   item_sum.obj
 0001:000ba750       ?val_real@Item_sum_hybrid@@UEAANXZ 00000001400bb750 f   item_sum.obj
 0001:000ba860       ?val_decimal@Item_sum_hybrid@@UEAAPEAVmy_decimal@@PEAV2@@Z 00000001400bb860 f   item_sum.obj
 0001:000ba9b0       ?val_str@Item_sum_hybrid@@UEAAPEAVString@@PEAV2@@Z 00000001400bb9b0 f   item_sum.obj
 0001:000baab0       ?cleanup@Item_sum_hybrid@@UEAAXXZ 00000001400bbab0 f   item_sum.obj
 0001:000baae0       ?no_rows_in_result@Item_sum_hybrid@@UEAAXXZ 00000001400bbae0 f   item_sum.obj
 0001:000bab00       ?val_int@Item_sum_bit@@UEAA_JXZ 00000001400bbb00 f   item_sum.obj
 0001:000bab10       ?clear@Item_sum_bit@@UEAAXXZ 00000001400bbb10 f   item_sum.obj
 0001:000bab30       ?add@Item_sum_or@@UEAA_NXZ 00000001400bbb30 f   item_sum.obj
 0001:000bab80       ?add@Item_sum_xor@@UEAA_NXZ 00000001400bbb80 f   item_sum.obj
 0001:000babd0       ?add@Item_sum_and@@UEAA_NXZ 00000001400bbbd0 f   item_sum.obj
 0001:000bac20       ?reset_field@Item_sum_num@@UEAAXXZ 00000001400bbc20 f   item_sum.obj
 0001:000bacd0       ?reset_field@Item_sum_count@@UEAAXXZ 00000001400bbcd0 f   item_sum.obj
 0001:000bad30       ?reset_field@Item_sum_bit@@UEAAXXZ 00000001400bbd30 f   item_sum.obj
 0001:000bad80       ?update_field@Item_sum_bit@@UEAAXXZ 00000001400bbd80 f   item_sum.obj
 0001:000badd0       ?update_field@Item_sum_count@@UEAAXXZ 00000001400bbdd0 f   item_sum.obj
 0001:000bae30       ?min_max_update_str_field@Item_sum_hybrid@@QEAAXXZ 00000001400bbe30 f   item_sum.obj
 0001:000baf50       ?min_max_update_real_field@Item_sum_hybrid@@QEAAXXZ 00000001400bbf50 f   item_sum.obj
 0001:000bb070       ?min_max_update_int_field@Item_sum_hybrid@@QEAAXXZ 00000001400bc070 f   item_sum.obj
 0001:000bb1c0       ?val_real@Item_avg_field@@UEAANXZ 00000001400bc1c0 f   item_sum.obj
 0001:000bb220       ?val_int@Item_avg_field@@UEAA_JXZ 00000001400bc220 f   item_sum.obj
 0001:000bb240       ?val_str@Item_avg_field@@UEAAPEAVString@@PEAV2@@Z 00000001400bc240 f   item_sum.obj
 0001:000bb260       ?val_real@Item_variance_field@@UEAANXZ 00000001400bc260 f   item_sum.obj
 0001:000bb2d0       ?simple_str_key_cmp@@YAHPEAXPEAE1@Z 00000001400bc2d0 f   item_sum.obj
 0001:000bb2e0       ?composite_key_cmp@@YAHPEAXPEAE1@Z 00000001400bc2e0 f   item_sum.obj
 0001:000bb3b0       ?make_unique@Item_sum_count_distinct@@UEAAXXZ 00000001400bc3b0 f   item_sum.obj
 0001:000bb3f0       ?clear@Item_sum_count_distinct@@UEAAXXZ 00000001400bc3f0 f   item_sum.obj
 0001:000bb490       ?add@Item_sum_count_distinct@@UEAA_NXZ 00000001400bc490 f   item_sum.obj
 0001:000bb5f0       ?val_int@Item_sum_count_distinct@@UEAA_JXZ 00000001400bc5f0 f   item_sum.obj
 0001:000bb700       ?clear@Item_udf_sum@@UEAAXXZ 00000001400bc700 f   item_sum.obj
 0001:000bb730       ?add@Item_udf_sum@@UEAA_NXZ 00000001400bc730 f   item_sum.obj
 0001:000bb7f0       ?cleanup@Item_udf_sum@@UEAAXXZ 00000001400bc7f0 f   item_sum.obj
 0001:000bb830       ?print@Item_udf_sum@@UEAAXPEAVString@@@Z 00000001400bc830 f   item_sum.obj
 0001:000bb990       ?val_real@Item_sum_udf_float@@UEAANXZ 00000001400bc990 f   item_sum.obj
 0001:000bba60       ?val_str@Item_sum_udf_float@@UEAAPEAVString@@PEAV2@@Z 00000001400bca60 f   item_sum.obj
 0001:000bba70       ?val_decimal@Item_sum_udf_float@@UEAAPEAVmy_decimal@@PEAV2@@Z 00000001400bca70 f   item_sum.obj
 0001:000bba80       ?val_str@Item_sum_udf_decimal@@UEAAPEAVString@@PEAV2@@Z 00000001400bca80 f   item_sum.obj
 0001:000bba90       ?val_real@Item_sum_udf_decimal@@UEAANXZ 00000001400bca90 f   item_sum.obj
 0001:000bbaa0       ?val_int@Item_sum_udf_decimal@@UEAA_JXZ 00000001400bcaa0 f   item_sum.obj
 0001:000bbab0       ?val_decimal@Item_sum_udf_decimal@@UEAAPEAVmy_decimal@@PEAV2@@Z 00000001400bcab0 f   item_sum.obj
 0001:000bbad0       ?val_int@Item_sum_udf_int@@UEAA_JXZ 00000001400bcad0 f   item_sum.obj
 0001:000bbba0       ?val_str@Item_sum_udf_int@@UEAAPEAVString@@PEAV2@@Z 00000001400bcba0 f   item_sum.obj
 0001:000bbbb0       ?val_decimal@Item_sum_udf_int@@UEAAPEAVmy_decimal@@PEAV2@@Z 00000001400bcbb0 f   item_sum.obj
 0001:000bbbc0       ?fix_length_and_dec@Item_sum_udf_str@@UEAAXXZ 00000001400bcbc0 f   item_sum.obj
 0001:000bbc20       ?val_decimal@Item_sum_udf_str@@UEAAPEAVmy_decimal@@PEAV2@@Z 00000001400bcc20 f   item_sum.obj
 0001:000bbc30       ?val_str@Item_sum_udf_str@@UEAAPEAVString@@PEAV2@@Z 00000001400bcc30 f   item_sum.obj
 0001:000bbc70       ?group_concat_key_cmp_with_distinct@@YAHPEAXPEBX1@Z 00000001400bcc70 f   item_sum.obj
 0001:000bbd70       ?group_concat_key_cmp_with_order@@YAHPEAXPEBX1@Z 00000001400bcd70 f   item_sum.obj
 0001:000bbea0       ?clear@Item_func_group_concat@@UEAAXXZ 00000001400bcea0 f   item_sum.obj
 0001:000bbf10       ?make_unique@Item_func_group_concat@@UEAAXXZ 00000001400bcf10 f   item_sum.obj
 0001:000bbf40       ?print@Item_func_group_concat@@UEAAXPEAVString@@@Z 00000001400bcf40 f   item_sum.obj
 0001:000bc1c0       ??0?$List@Vcreate_field@@@@QEAA@XZ 00000001400bd1c0 f i item_sum.obj
 0001:000bc1e0       ?push_back@?$List@Vcreate_field@@@@QEAA_NPEAVcreate_field@@@Z 00000001400bd1e0 f i item_sum.obj
 0001:000bc270       ??0Field_double@@QEAA@K_NPEBDPEAUst_table@@ED@Z 00000001400bd270 f i item_sum.obj
 0001:000bc310       ??0Hybrid_type@@QEAA@XZ    00000001400bd310 f i item_sum.obj
 0001:000bc360       ??0Hybrid_type@@QEAA@AEBU0@@Z 00000001400bd360 f i item_sum.obj
 0001:000bc3c0       ??0Item_sum@@QEAA@XZ       00000001400bd3c0 f i item_sum.obj
 0001:000bc440       ??0Item_sum_num@@QEAA@PEAVItem@@@Z 00000001400bd440 f i item_sum.obj
 0001:000bc510       ?val_int@Item_sum_num@@UEAA_JXZ 00000001400bd510 f i item_sum.obj
 0001:000bc530       ??1Item_sum_num@@UEAA@XZ   00000001400bd530 f i item_sum.obj
 0001:000bc590       ??1Item_sum_int@@UEAA@XZ   00000001400bd590 f i item_sum.obj
 0001:000bc5f0       ??1Item_sum_sum@@UEAA@XZ   00000001400bd5f0 f i item_sum.obj
 0001:000bc650       ??1Item_sum_variance@@UEAA@XZ 00000001400bd650 f i item_sum.obj
 0001:000bc6b0       ??1Item_sum_bit@@UEAA@XZ   00000001400bd6b0 f i item_sum.obj
 0001:000bc710       ??1Item_udf_sum@@UEAA@XZ   00000001400bd710 f i item_sum.obj
 0001:000bc780       ??0Item_sum@@QEAA@PEAVTHD@@PEAV0@@Z 00000001400bd780 f   item_sum.obj
 0001:000bc940       ?create_tmp_field@Item_sum@@UEAAPEAVField@@_NPEAUst_table@@I@Z 00000001400bd940 f   item_sum.obj
 0001:000bcc30       ??0Item_sum_hybrid@@QEAA@PEAVTHD@@PEAV0@@Z 00000001400bdc30 f   item_sum.obj
 0001:000bce40       ?create_tmp_field@Item_sum_hybrid@@UEAAPEAVField@@_NPEAUst_table@@I@Z 00000001400bde40 f   item_sum.obj
 0001:000bd0e0       ?add@Item_sum_sum@@UEAA_NXZ 00000001400be0e0 f   item_sum.obj
 0001:000bd240       ?val_int@Item_sum_sum@@UEAA_JXZ 00000001400be240 f   item_sum.obj
 0001:000bd310       ??1Hybrid_type@@QEAA@XZ    00000001400be310 f i item_sum.obj
 0001:000bd320       ??_EHybrid_type_traits_fast_decimal@@UEAAPEAXI@Z 00000001400be320 f i item_sum.obj
 0001:000bd320       ??_GHybrid_type_traits_fast_decimal@@UEAAPEAXI@Z 00000001400be320 f i item_sum.obj
 0001:000bd350       ??1create_field@@QEAA@XZ   00000001400be350 f i item_sum.obj
 0001:000bd360       ?cleanup@Item_sum_distinct@@UEAAXXZ 00000001400be360 f   item_sum.obj
 0001:000bd3c0       ??1Item_sum_distinct@@UEAA@XZ 00000001400be3c0 f   item_sum.obj
 0001:000bd440       ?sum_func@Item_sum_distinct@@UEBA?AW4Sumfunctype@Item_sum@@XZ 00000001400be440 f i item_sum.obj
 0001:000bd450       ?reset_field@Item_sum_distinct@@UEAAXXZ 00000001400be450 f i item_sum.obj
 0001:000bd460       ?update_field@Item_sum_distinct@@UEAAXXZ 00000001400be460 f i item_sum.obj
 0001:000bd470       ?no_rows_in_result@Item_sum_distinct@@UEAAXXZ 00000001400be470 f i item_sum.obj
 0001:000bd480       ?result_type@Item_sum_distinct@@UEBA?AW4Item_result@@XZ 00000001400be480 f i item_sum.obj
 0001:000bd490       ?create_tmp_field@Item_sum_avg@@UEAAPEAVField@@_NPEAUst_table@@I@Z 00000001400be490 f   item_sum.obj
 0001:000bd6a0       ?add@Item_sum_avg@@UEAA_NXZ 00000001400be6a0 f   item_sum.obj
 0001:000bd6f0       ?val_decimal@Item_sum_avg@@UEAAPEAVmy_decimal@@PEAV2@@Z 00000001400be6f0 f   item_sum.obj
 0001:000bd840       ?val_real@Item_sum_std@@UEAANXZ 00000001400be840 f   item_sum.obj
 0001:000bd860       ?create_tmp_field@Item_sum_variance@@UEAAPEAVField@@_NPEAUst_table@@I@Z 00000001400be860 f   item_sum.obj
 0001:000bd9d0       ?val_int@Item_sum_hybrid@@UEAA_JXZ 00000001400be9d0 f   item_sum.obj
 0001:000bdad0       ?add@Item_sum_min@@UEAA_NXZ 00000001400bead0 f   item_sum.obj
 0001:000bdd90       ?add@Item_sum_max@@UEAA_NXZ 00000001400bed90 f   item_sum.obj
 0001:000be040       ?reset_field@Item_sum_hybrid@@UEAAXXZ 00000001400bf040 f   item_sum.obj
 0001:000be380       ?reset_field@Item_sum_sum@@UEAAXXZ 00000001400bf380 f   item_sum.obj
 0001:000be490       ?reset_field@Item_sum_avg@@UEAAXXZ 00000001400bf490 f   item_sum.obj
 0001:000be600       ?update_field@Item_sum_sum@@UEAAXXZ 00000001400bf600 f   item_sum.obj
 0001:000be8a0       ?update_field@Item_sum_avg@@UEAAXXZ 00000001400bf8a0 f   item_sum.obj
 0001:000bead0       ?min_max_update_decimal_field@Item_sum_hybrid@@QEAAXXZ 00000001400bfad0 f   item_sum.obj
 0001:000bec70       ??0Item_avg_field@@QEAA@W4Item_result@@PEAVItem_sum_avg@@@Z 00000001400bfc70 f   item_sum.obj
 0001:000bed40       ?type@Item_avg_field@@UEBA?AW4Type@Item@@XZ 00000001400bfd40 f i item_sum.obj
 0001:000bed50       ?is_null@Item_avg_field@@UEAA_NXZ 00000001400bfd50 f i item_sum.obj
 0001:000bed80       ?field_type@Item_avg_field@@UEBA?AW4enum_field_types@@XZ 00000001400bfd80 f i item_sum.obj
 0001:000beda0       ?fix_length_and_dec@Item_avg_field@@UEAAXXZ 00000001400bfda0 f i item_sum.obj
 0001:000bedb0       ?result_type@Item_avg_field@@UEBA?AW4Item_result@@XZ 00000001400bfdb0 f i item_sum.obj
 0001:000bedc0       ??1Item_avg_field@@UEAA@XZ 00000001400bfdc0 f i item_sum.obj
 0001:000bee20       ?val_decimal@Item_avg_field@@UEAAPEAVmy_decimal@@PEAV2@@Z 00000001400bfe20 f   item_sum.obj
 0001:000befa0       ??1Item_variance_field@@UEAA@XZ 00000001400bffa0 f i item_sum.obj
 0001:000bf000       ?val_real@Item_std_field@@UEAANXZ 00000001400c0000 f   item_sum.obj
 0001:000bf020       ?val_decimal@Item_std_field@@UEAAPEAVmy_decimal@@PEAV2@@Z 00000001400c0020 f   item_sum.obj
 0001:000bf150       ??0Item_variance_field@@QEAA@PEAVItem_sum_variance@@@Z 00000001400c0150 f   item_sum.obj
 0001:000bf260       ?type@Item_variance_field@@UEBA?AW4Type@Item@@XZ 00000001400c0260 f i item_sum.obj
 0001:000bf270       ?val_int@Item_variance_field@@UEAA_JXZ 00000001400c0270 f i item_sum.obj
 0001:000bf290       ?val_str@Item_variance_field@@UEAAPEAVString@@PEAV2@@Z 00000001400c0290 f i item_sum.obj
 0001:000bf2a0       ?is_null@Item_variance_field@@UEAA_NXZ 00000001400c02a0 f i item_sum.obj
 0001:000bf2d0       ?field_type@Item_variance_field@@UEBA?AW4enum_field_types@@XZ 00000001400c02d0 f i item_sum.obj
 0001:000bf2f0       ?fix_length_and_dec@Item_variance_field@@UEAAXXZ 00000001400c02f0 f i item_sum.obj
 0001:000bf300       ?result_type@Item_variance_field@@UEBA?AW4Item_result@@XZ 00000001400c0300 f i item_sum.obj
 0001:000bf310       ??_GItem_variance_field@@UEAAPEAXI@Z 00000001400c0310 f i item_sum.obj
 0001:000bf310       ??_EItem_variance_field@@UEAAPEAXI@Z 00000001400c0310 f i item_sum.obj
 0001:000bf370       ?dump_leaf_key@@YAHPEAEKPEAVItem_func_group_concat@@@Z 00000001400c0370 f   item_sum.obj
 0001:000bf5e0       ??0Item_func_group_concat@@QEAA@PEAVTHD@@PEAV0@@Z 00000001400c05e0 f   item_sum.obj
 0001:000bf840       ?sum_func@Item_func_group_concat@@UEBA?AW4Sumfunctype@Item_sum@@XZ 00000001400c0840 f i item_sum.obj
 0001:000bf850       ?func_name@Item_func_group_concat@@UEBAPEBDXZ 00000001400c0850 f i item_sum.obj
 0001:000bf860       ?result_type@Item_func_group_concat@@UEBA?AW4Item_result@@XZ 00000001400c0860 f i item_sum.obj
 0001:000bf870       ?field_type@Item_func_group_concat@@UEBA?AW4enum_field_types@@XZ 00000001400c0870 f i item_sum.obj
 0001:000bf8a0       ?reset_field@Item_func_group_concat@@UEAAXXZ 00000001400c08a0 f i item_sum.obj
 0001:000bf8b0       ?update_field@Item_func_group_concat@@UEAAXXZ 00000001400c08b0 f i item_sum.obj
 0001:000bf8c0       ?val_real@Item_func_group_concat@@UEAANXZ 00000001400c08c0 f i item_sum.obj
 0001:000bf920       ?val_int@Item_func_group_concat@@UEAA_JXZ 00000001400c0920 f i item_sum.obj
 0001:000bf970       ?val_decimal@Item_func_group_concat@@UEAAPEAVmy_decimal@@PEAV2@@Z 00000001400c0970 f i item_sum.obj
 0001:000bf980       ?no_rows_in_result@Item_func_group_concat@@UEAAXXZ 00000001400c0980 f i item_sum.obj
 0001:000bf990       ?change_context_processor@Item_func_group_concat@@UEAA_NPEAE@Z 00000001400c0990 f i item_sum.obj
 0001:000bf9a0       ?copy_or_same@Item_func_group_concat@@UEAAPEAVItem@@PEAVTHD@@@Z 00000001400c09a0 f   item_sum.obj
 0001:000bfa00       ?add@Item_func_group_concat@@UEAA_NXZ 00000001400c0a00 f   item_sum.obj
 0001:000bfc80       ?val_str@Item_func_group_concat@@UEAAPEAVString@@PEAV2@@Z 00000001400c0c80 f   item_sum.obj
 0001:000bfd40       ??1Item_func_group_concat@@UEAA@XZ 00000001400c0d40 f   item_sum.obj
 0001:000bfe00       ??0create_field@@QEAA@XZ   00000001400c0e00 f i item_sum.obj
 0001:000bfe30       ??0Item_sum_num@@QEAA@PEAVTHD@@PEAV0@@Z 00000001400c0e30 f i item_sum.obj
 0001:000bfe80       ??_GItem_sum_num@@UEAAPEAXI@Z 00000001400c0e80 f i item_sum.obj
 0001:000bfe80       ??_EItem_sum_num@@UEAAPEAXI@Z 00000001400c0e80 f i item_sum.obj
 0001:000bfee0       ??0Item_sum_int@@QEAA@PEAVTHD@@PEAV0@@Z 00000001400c0ee0 f i item_sum.obj
 0001:000bff40       ?val_real@Item_sum_int@@UEAANXZ 00000001400c0f40 f i item_sum.obj
 0001:000bff60       ?result_type@Item_sum_int@@UEBA?AW4Item_result@@XZ 00000001400c0f60 f i item_sum.obj
 0001:000bff70       ?fix_length_and_dec@Item_sum_int@@UEAAXXZ 00000001400c0f70 f i item_sum.obj
 0001:000bff90       ??_GItem_sum_int@@UEAAPEAXI@Z 00000001400c0f90 f i item_sum.obj
 0001:000bff90       ??_EItem_sum_int@@UEAAPEAXI@Z 00000001400c0f90 f i item_sum.obj
 0001:000bfff0       ??0Item_sum_count@@QEAA@PEAVTHD@@PEAV0@@Z 00000001400c0ff0 f i item_sum.obj
 0001:000c0060       ?sum_func@Item_sum_count@@UEBA?AW4Sumfunctype@Item_sum@@XZ 00000001400c1060 f i item_sum.obj
 0001:000c0070       ?no_rows_in_result@Item_sum_count@@UEAAXXZ 00000001400c1070 f i item_sum.obj
 0001:000c0080       ?func_name@Item_sum_count@@UEBAPEBDXZ 00000001400c1080 f i item_sum.obj
 0001:000c0090       ??1Item_sum_count@@UEAA@XZ 00000001400c1090 f i item_sum.obj
 0001:000c00f0       ??_EItem_sum_count@@UEAAPEAXI@Z 00000001400c10f0 f i item_sum.obj
 0001:000c00f0       ??_GItem_sum_count@@UEAAPEAXI@Z 00000001400c10f0 f i item_sum.obj
 0001:000c0150       ??0Item_sum_count_distinct@@QEAA@PEAVTHD@@PEAV0@@Z 00000001400c1150 f i item_sum.obj
 0001:000c0230       ?sum_func@Item_sum_count_distinct@@UEBA?AW4Sumfunctype@Item_sum@@XZ 00000001400c1230 f i item_sum.obj
 0001:000c0240       ?reset_field@Item_sum_count_distinct@@UEAAXXZ 00000001400c1240 f i item_sum.obj
 0001:000c0250       ?update_field@Item_sum_count_distinct@@UEAAXXZ 00000001400c1250 f i item_sum.obj
 0001:000c0260       ?func_name@Item_sum_count_distinct@@UEBAPEBDXZ 00000001400c1260 f i item_sum.obj
 0001:000c0270       ?no_rows_in_result@Item_sum_count_distinct@@UEAAXXZ 00000001400c1270 f i item_sum.obj
 0001:000c0280       ??0Item_sum_min@@QEAA@PEAVTHD@@PEAV0@@Z 00000001400c1280 f i item_sum.obj
 0001:000c02b0       ??0Item_sum_max@@QEAA@PEAVTHD@@PEAV0@@Z 00000001400c12b0 f i item_sum.obj
 0001:000c02e0       ??0Item_sum_bit@@QEAA@PEAVTHD@@PEAV0@@Z 00000001400c12e0 f i item_sum.obj
 0001:000c0360       ?sum_func@Item_sum_bit@@UEBA?AW4Sumfunctype@Item_sum@@XZ 00000001400c1360 f i item_sum.obj
 0001:000c0370       ?fix_length_and_dec@Item_sum_bit@@UEAAXXZ 00000001400c1370 f i item_sum.obj
 0001:000c0390       ?cleanup@Item_sum_bit@@UEAAXXZ 00000001400c1390 f i item_sum.obj
 0001:000c03d0       ??_EItem_sum_bit@@UEAAPEAXI@Z 00000001400c13d0 f i item_sum.obj
 0001:000c03d0       ??_GItem_sum_bit@@UEAAPEAXI@Z 00000001400c13d0 f i item_sum.obj
 0001:000c0430       ??0Item_sum_or@@QEAA@PEAVTHD@@PEAV0@@Z 00000001400c1430 f i item_sum.obj
 0001:000c04c0       ?func_name@Item_sum_or@@UEBAPEBDXZ 00000001400c14c0 f i item_sum.obj
 0001:000c04d0       ??1Item_sum_or@@UEAA@XZ    00000001400c14d0 f i item_sum.obj
 0001:000c0530       ??_GItem_sum_or@@UEAAPEAXI@Z 00000001400c1530 f i item_sum.obj
 0001:000c0530       ??_EItem_sum_or@@UEAAPEAXI@Z 00000001400c1530 f i item_sum.obj
 0001:000c0590       ??0Item_sum_and@@QEAA@PEAVTHD@@PEAV0@@Z 00000001400c1590 f i item_sum.obj
 0001:000c0620       ?func_name@Item_sum_and@@UEBAPEBDXZ 00000001400c1620 f i item_sum.obj
 0001:000c0630       ??1Item_sum_and@@UEAA@XZ   00000001400c1630 f i item_sum.obj
 0001:000c0690       ??_GItem_sum_and@@UEAAPEAXI@Z 00000001400c1690 f i item_sum.obj
 0001:000c0690       ??_EItem_sum_and@@UEAAPEAXI@Z 00000001400c1690 f i item_sum.obj
 0001:000c06f0       ??0Item_sum_xor@@QEAA@PEAVTHD@@PEAV0@@Z 00000001400c16f0 f i item_sum.obj
 0001:000c0780       ?func_name@Item_sum_xor@@UEBAPEBDXZ 00000001400c1780 f i item_sum.obj
 0001:000c0790       ??1Item_sum_xor@@UEAA@XZ   00000001400c1790 f i item_sum.obj
 0001:000c07f0       ??_EItem_sum_xor@@UEAAPEAXI@Z 00000001400c17f0 f i item_sum.obj
 0001:000c07f0       ??_GItem_sum_xor@@UEAAPEAXI@Z 00000001400c17f0 f i item_sum.obj
 0001:000c0850       ??0Item_udf_sum@@QEAA@PEAVTHD@@PEAV0@@Z 00000001400c1850 f i item_sum.obj
 0001:000c08b0       ?name@udf_handler@@QEBAPEBDXZ 00000001400c18b0 f i item_sum.obj
 0001:000c08d0       ?func_name@Item_udf_sum@@UEBAPEBDXZ 00000001400c18d0 f i item_sum.obj
 0001:000c08f0       ?sum_func@Item_udf_sum@@UEBA?AW4Sumfunctype@Item_sum@@XZ 00000001400c18f0 f i item_sum.obj
 0001:000c0900       ?have_field_update@Item_udf_sum@@UEBA_NXZ 00000001400c1900 f i item_sum.obj
 0001:000c0910       ?reset_field@Item_udf_sum@@UEAAXXZ 00000001400c1910 f i item_sum.obj
 0001:000c0920       ?update_field@Item_udf_sum@@UEAAXXZ 00000001400c1920 f i item_sum.obj
 0001:000c0930       ??_EItem_udf_sum@@UEAAPEAXI@Z 00000001400c1930 f i item_sum.obj
 0001:000c0930       ??_GItem_udf_sum@@UEAAPEAXI@Z 00000001400c1930 f i item_sum.obj
 0001:000c09a0       ??0Item_sum_udf_float@@QEAA@PEAVTHD@@PEAV0@@Z 00000001400c19a0 f i item_sum.obj
 0001:000c0a10       ?val_int@Item_sum_udf_float@@UEAA_JXZ 00000001400c1a10 f i item_sum.obj
 0001:000c0a30       ?fix_length_and_dec@Item_sum_udf_float@@UEAAXXZ 00000001400c1a30 f i item_sum.obj
 0001:000c0a40       ??1Item_sum_udf_float@@UEAA@XZ 00000001400c1a40 f i item_sum.obj
 0001:000c0ab0       ??_EItem_sum_udf_float@@UEAAPEAXI@Z 00000001400c1ab0 f i item_sum.obj
 0001:000c0ab0       ??_GItem_sum_udf_float@@UEAAPEAXI@Z 00000001400c1ab0 f i item_sum.obj
 0001:000c0b20       ??0Item_sum_udf_int@@QEAA@PEAVTHD@@PEAV0@@Z 00000001400c1b20 f i item_sum.obj
 0001:000c0b90       ?result_type@Item_sum_udf_int@@UEBA?AW4Item_result@@XZ 00000001400c1b90 f i item_sum.obj
 0001:000c0ba0       ?fix_length_and_dec@Item_sum_udf_int@@UEAAXXZ 00000001400c1ba0 f i item_sum.obj
 0001:000c0bb0       ?val_real@Item_sum_udf_int@@UEAANXZ 00000001400c1bb0 f i item_sum.obj
 0001:000c0bd0       ??1Item_sum_udf_int@@UEAA@XZ 00000001400c1bd0 f i item_sum.obj
 0001:000c0c40       ??_EItem_sum_udf_int@@UEAAPEAXI@Z 00000001400c1c40 f i item_sum.obj
 0001:000c0c40       ??_GItem_sum_udf_int@@UEAAPEAXI@Z 00000001400c1c40 f i item_sum.obj
 0001:000c0cb0       ??0Item_sum_udf_str@@QEAA@PEAVTHD@@PEAV0@@Z 00000001400c1cb0 f i item_sum.obj
 0001:000c0d20       ?val_real@Item_sum_udf_str@@UEAANXZ 00000001400c1d20 f i item_sum.obj
 0001:000c0d80       ?val_int@Item_sum_udf_str@@UEAA_JXZ 00000001400c1d80 f i item_sum.obj
 0001:000c0de0       ?result_type@Item_sum_udf_str@@UEBA?AW4Item_result@@XZ 00000001400c1de0 f i item_sum.obj
 0001:000c0df0       ??1Item_sum_udf_str@@UEAA@XZ 00000001400c1df0 f i item_sum.obj
 0001:000c0e60       ??_GItem_sum_udf_str@@UEAAPEAXI@Z 00000001400c1e60 f i item_sum.obj
 0001:000c0e60       ??_EItem_sum_udf_str@@UEAAPEAXI@Z 00000001400c1e60 f i item_sum.obj
 0001:000c0ed0       ??0Item_sum_udf_decimal@@QEAA@PEAVTHD@@PEAV0@@Z 00000001400c1ed0 f i item_sum.obj
 0001:000c0f40       ?result_type@Item_sum_udf_decimal@@UEBA?AW4Item_result@@XZ 00000001400c1f40 f i item_sum.obj
 0001:000c0f50       ?fix_length_and_dec@Item_sum_udf_decimal@@UEAAXXZ 00000001400c1f50 f i item_sum.obj
 0001:000c0f60       ??1Item_sum_udf_decimal@@UEAA@XZ 00000001400c1f60 f i item_sum.obj
 0001:000c0fd0       ??_EItem_sum_udf_decimal@@UEAAPEAXI@Z 00000001400c1fd0 f i item_sum.obj
 0001:000c0fd0       ??_GItem_sum_udf_decimal@@UEAAPEAXI@Z 00000001400c1fd0 f i item_sum.obj
 0001:000c1040       ?check_sum_func@Item_sum@@QEAA_NPEAVTHD@@PEAPEAVItem@@@Z 00000001400c2040 f   item_sum.obj
 0001:000c1370       ??0Item_sum@@QEAA@AEAV?$List@VItem@@@@@Z 00000001400c2370 f   item_sum.obj
 0001:000c1490       ?fix_fields@Item_sum_num@@UEAA_NPEAVTHD@@PEAPEAVItem@@@Z 00000001400c2490 f   item_sum.obj
 0001:000c1640       ?fix_fields@Item_sum_hybrid@@UEAA_NPEAVTHD@@PEAPEAVItem@@@Z 00000001400c2640 f   item_sum.obj
 0001:000c1870       ??0Item_sum_sum@@QEAA@PEAVTHD@@PEAV0@@Z 00000001400c2870 f   item_sum.obj
 0001:000c1a90       ?sum_func@Item_sum_sum@@UEBA?AW4Sumfunctype@Item_sum@@XZ 00000001400c2a90 f i item_sum.obj
 0001:000c1aa0       ?result_type@Item_sum_sum@@UEBA?AW4Item_result@@XZ 00000001400c2aa0 f i item_sum.obj
 0001:000c1ab0       ?no_rows_in_result@Item_sum_sum@@UEAAXXZ 00000001400c2ab0 f i item_sum.obj
 0001:000c1ac0       ?func_name@Item_sum_sum@@UEBAPEBDXZ 00000001400c2ac0 f i item_sum.obj
 0001:000c1ad0       ??_GItem_sum_sum@@UEAAPEAXI@Z 00000001400c2ad0 f i item_sum.obj
 0001:000c1ad0       ??_EItem_sum_sum@@UEAAPEAXI@Z 00000001400c2ad0 f i item_sum.obj
 0001:000c1b30       ?copy_or_same@Item_sum_sum@@UEAAPEAVItem@@PEAVTHD@@@Z 00000001400c2b30 f   item_sum.obj
 0001:000c1b90       ??0Item_sum_distinct@@QEAA@PEAVItem@@@Z 00000001400c2b90 f   item_sum.obj
 0001:000c1cc0       ??_GItem_sum_distinct@@UEAAPEAXI@Z 00000001400c2cc0 f i item_sum.obj
 0001:000c1cc0       ??_EItem_sum_distinct@@UEAAPEAXI@Z 00000001400c2cc0 f i item_sum.obj
 0001:000c1ce0       ??0Item_sum_distinct@@IEAA@PEAVTHD@@PEAV0@@Z 00000001400c2ce0 f   item_sum.obj
 0001:000c1dd0       ?setup@Item_sum_distinct@@UEAA_NPEAVTHD@@@Z 00000001400c2dd0 f   item_sum.obj
 0001:000c1fb0       ?copy_or_same@Item_sum_count@@UEAAPEAVItem@@PEAVTHD@@@Z 00000001400c2fb0 f   item_sum.obj
 0001:000c2060       ??0Item_sum_variance@@QEAA@PEAVTHD@@PEAV0@@Z 00000001400c3060 f   item_sum.obj
 0001:000c2120       ?sum_func@Item_sum_variance@@UEBA?AW4Sumfunctype@Item_sum@@XZ 00000001400c3120 f i item_sum.obj
 0001:000c2130       ?no_rows_in_result@Item_sum_variance@@UEAAXXZ 00000001400c3130 f i item_sum.obj
 0001:000c2140       ?func_name@Item_sum_variance@@UEBAPEBDXZ 00000001400c3140 f i item_sum.obj
 0001:000c2160       ?result_type@Item_sum_variance@@UEBA?AW4Item_result@@XZ 00000001400c3160 f i item_sum.obj
 0001:000c2170       ?cleanup@Item_sum_variance@@UEAAXXZ 00000001400c3170 f i item_sum.obj
 0001:000c21a0       ?result_item@Item_sum_variance@@UEAAPEAVItem@@PEAVField@@@Z 00000001400c31a0 f i item_sum.obj
 0001:000c21e0       ??_EItem_sum_variance@@UEAAPEAXI@Z 00000001400c31e0 f i item_sum.obj
 0001:000c21e0       ??_GItem_sum_variance@@UEAAPEAXI@Z 00000001400c31e0 f i item_sum.obj
 0001:000c2240       ?copy_or_same@Item_sum_variance@@UEAAPEAVItem@@PEAVTHD@@@Z 00000001400c3240 f   item_sum.obj
 0001:000c22a0       ?copy_or_same@Item_sum_min@@UEAAPEAVItem@@PEAVTHD@@@Z 00000001400c32a0 f   item_sum.obj
 0001:000c2330       ?copy_or_same@Item_sum_max@@UEAAPEAVItem@@PEAVTHD@@@Z 00000001400c3330 f   item_sum.obj
 0001:000c23c0       ?copy_or_same@Item_sum_or@@UEAAPEAVItem@@PEAVTHD@@@Z 00000001400c33c0 f   item_sum.obj
 0001:000c2490       ?copy_or_same@Item_sum_xor@@UEAAPEAVItem@@PEAVTHD@@@Z 00000001400c3490 f   item_sum.obj
 0001:000c2560       ?copy_or_same@Item_sum_and@@UEAAPEAVItem@@PEAVTHD@@@Z 00000001400c3560 f   item_sum.obj
 0001:000c2630       ?update_field@Item_sum_hybrid@@UEAAXXZ 00000001400c3630 f   item_sum.obj
 0001:000c2670       ??_EItem_avg_field@@UEAAPEAXI@Z 00000001400c3670 f i item_sum.obj
 0001:000c2670       ??_GItem_avg_field@@UEAAPEAXI@Z 00000001400c3670 f i item_sum.obj
 0001:000c26d0       ??0Item_std_field@@QEAA@PEAVItem_sum_std@@@Z 00000001400c36d0 f   item_sum.obj
 0001:000c2700       ?type@Item_std_field@@UEBA?AW4Type@Item@@XZ 00000001400c3700 f i item_sum.obj
 0001:000c2710       ?result_type@Item_std_field@@UEBA?AW4Item_result@@XZ 00000001400c3710 f i item_sum.obj
 0001:000c2720       ?field_type@Item_std_field@@UEBA?AW4enum_field_types@@XZ 00000001400c3720 f i item_sum.obj
 0001:000c2730       ??1Item_std_field@@UEAA@XZ 00000001400c3730 f i item_sum.obj
 0001:000c2790       ??_GItem_std_field@@UEAAPEAXI@Z 00000001400c3790 f i item_sum.obj
 0001:000c2790       ??_EItem_std_field@@UEAAPEAXI@Z 00000001400c3790 f i item_sum.obj
 0001:000c27f0       ?setup@Item_sum_count_distinct@@UEAA_NPEAVTHD@@@Z 00000001400c37f0 f   item_sum.obj
 0001:000c2d60       ?copy_or_same@Item_sum_count_distinct@@UEAAPEAVItem@@PEAVTHD@@@Z 00000001400c3d60 f   item_sum.obj
 0001:000c2e90       ?copy_or_same@Item_sum_udf_float@@UEAAPEAVItem@@PEAVTHD@@@Z 00000001400c3e90 f   item_sum.obj
 0001:000c2f50       ?copy_or_same@Item_sum_udf_decimal@@UEAAPEAVItem@@PEAVTHD@@@Z 00000001400c3f50 f   item_sum.obj
 0001:000c3010       ?copy_or_same@Item_sum_udf_int@@UEAAPEAVItem@@PEAVTHD@@@Z 00000001400c4010 f   item_sum.obj
 0001:000c30d0       ?copy_or_same@Item_sum_udf_str@@UEAAPEAVItem@@PEAVTHD@@@Z 00000001400c40d0 f   item_sum.obj
 0001:000c3190       ??0Item_func_group_concat@@QEAA@PEAUName_resolution_context@@_NPEAV?$List@VItem@@@@PEAUst_sql_list@@PEAVString@@@Z 00000001400c4190 f   item_sum.obj
 0001:000c3430       ??_EItem_func_group_concat@@UEAAPEAXI@Z 00000001400c4430 f i item_sum.obj
 0001:000c3430       ??_GItem_func_group_concat@@UEAAPEAXI@Z 00000001400c4430 f i item_sum.obj
 0001:000c3450       ?fix_fields@Item_func_group_concat@@UEAA_NPEAVTHD@@PEAPEAVItem@@@Z 00000001400c4450 f   item_sum.obj
 0001:000c3720       ?setup@Item_func_group_concat@@UEAA_NPEAVTHD@@@Z 00000001400c4720 f   item_sum.obj
 0001:000c3c40       ??0Item_sum_avg@@QEAA@PEAVTHD@@PEAV0@@Z 00000001400c4c40 f i item_sum.obj
 0001:000c3ca0       ?sum_func@Item_sum_avg@@UEBA?AW4Sumfunctype@Item_sum@@XZ 00000001400c4ca0 f i item_sum.obj
 0001:000c3cb0       ?val_int@Item_sum_avg@@UEAA_JXZ 00000001400c4cb0 f i item_sum.obj
 0001:000c3cd0       ?no_rows_in_result@Item_sum_avg@@UEAAXXZ 00000001400c4cd0 f i item_sum.obj
 0001:000c3ce0       ?func_name@Item_sum_avg@@UEBAPEBDXZ 00000001400c4ce0 f i item_sum.obj
 0001:000c3cf0       ?cleanup@Item_sum_avg@@UEAAXXZ 00000001400c4cf0 f i item_sum.obj
 0001:000c3d20       ??1Item_sum_avg@@UEAA@XZ   00000001400c4d20 f i item_sum.obj
 0001:000c3d80       ?result_item@Item_sum_avg@@UEAAPEAVItem@@PEAVField@@@Z 00000001400c4d80 f i item_sum.obj
 0001:000c3dd0       ??_GItem_sum_avg@@UEAAPEAXI@Z 00000001400c4dd0 f i item_sum.obj
 0001:000c3dd0       ??_EItem_sum_avg@@UEAAPEAXI@Z 00000001400c4dd0 f i item_sum.obj
 0001:000c3e30       ??0Item_sum_std@@QEAA@PEAVTHD@@PEAV0@@Z 00000001400c4e30 f i item_sum.obj
 0001:000c3e60       ?sum_func@Item_sum_std@@UEBA?AW4Sumfunctype@Item_sum@@XZ 00000001400c4e60 f i item_sum.obj
 0001:000c3e70       ?func_name@Item_sum_std@@UEBAPEBDXZ 00000001400c4e70 f i item_sum.obj
 0001:000c3e80       ?result_type@Item_sum_std@@UEBA?AW4Item_result@@XZ 00000001400c4e80 f i item_sum.obj
 0001:000c3e90       ?field_type@Item_sum_std@@UEBA?AW4enum_field_types@@XZ 00000001400c4e90 f i item_sum.obj
 0001:000c3ea0       ??1Item_sum_std@@UEAA@XZ   00000001400c4ea0 f i item_sum.obj
 0001:000c3f00       ??_GItem_sum_std@@UEAAPEAXI@Z 00000001400c4f00 f i item_sum.obj
 0001:000c3f00       ??_EItem_sum_std@@UEAAPEAXI@Z 00000001400c4f00 f i item_sum.obj
 0001:000c3f60       ?result_item@Item_sum_std@@UEAAPEAVItem@@PEAVField@@@Z 00000001400c4f60 f i item_sum.obj
 0001:000c3fa0       ?fix_fields@Item_udf_sum@@UEAA_NPEAVTHD@@PEAPEAVItem@@@Z 00000001400c4fa0 f i item_sum.obj
 0001:000c4070       ?copy_or_same@Item_sum_avg@@UEAAPEAVItem@@PEAVTHD@@@Z 00000001400c5070 f   item_sum.obj
 0001:000c4120       ?copy_or_same@Item_sum_std@@UEAAPEAVItem@@PEAVTHD@@@Z 00000001400c5120 f   item_sum.obj
 0001:000c41b0       ??_GTMP_TABLE_PARAM@@QEAAPEAXI@Z 00000001400c51b0 f i item_sum.obj
 0001:000c4260       ?cleanup@Item_func_group_concat@@UEAAXXZ 00000001400c5260 f   item_sum.obj
 0001:000c44c0       ?cleanup@Item_sum_count_distinct@@UEAAXXZ 00000001400c54c0 f   item_sum.obj
 0001:000c4610       ??1Item_sum_count_distinct@@UEAA@XZ 00000001400c5610 f   item_sum.obj
 0001:000c4680       ??_EItem_sum_count_distinct@@UEAAPEAXI@Z 00000001400c5680 f i item_sum.obj
 0001:000c4680       ??_GItem_sum_count_distinct@@UEAAPEAXI@Z 00000001400c5680 f i item_sum.obj
 0001:000c46b0       ?get_timestamp@Field_timestamp@@QEAAJPEAD@Z 00000001400c56b0 f i item_timefunc.obj
 0001:000c4700       ?get_arg0_date@Item_func@@QEAA_NPEAUst_mysql_time@@I@Z 00000001400c5700 f i item_timefunc.obj
 0001:000c4730       ?get_arg0_time@Item_func@@QEAA_NPEAUst_mysql_time@@@Z 00000001400c5730 f i item_timefunc.obj
 0001:000c5b80       ?make_date_time@@YA_NPEAUst_date_time_format@@PEAUst_mysql_time@@W4enum_mysql_timestamp_type@@PEAVString@@@Z 00000001400c6b80 f   item_timefunc.obj
 0001:000c6e70       ?calc_time_diff@@YA_NPEAUst_mysql_time@@0HPEA_JPEAJ@Z 00000001400c7e70 f   item_timefunc.obj
 0001:000c6fd0       ?val_int@Item_func_period_add@@UEAA_JXZ 00000001400c7fd0 f   item_timefunc.obj
 0001:000c7090       ?val_int@Item_func_period_diff@@UEAA_JXZ 00000001400c8090 f   item_timefunc.obj
 0001:000c7130       ?val_int@Item_func_to_days@@UEAA_JXZ 00000001400c8130 f   item_timefunc.obj
 0001:000c7190       ?val_int@Item_func_dayofyear@@UEAA_JXZ 00000001400c8190 f   item_timefunc.obj
 0001:000c7220       ?val_int@Item_func_dayofmonth@@UEAA_JXZ 00000001400c8220 f   item_timefunc.obj
 0001:000c7260       ?val_int@Item_func_month@@UEAA_JXZ 00000001400c8260 f   item_timefunc.obj
 0001:000c72a0       ?fix_length_and_dec@Item_func_monthname@@UEAAXXZ 00000001400c82a0 f   item_timefunc.obj
 0001:000c7350       ?val_str@Item_func_monthname@@UEAAPEAVString@@PEAV2@@Z 00000001400c8350 f   item_timefunc.obj
 0001:000c7410       ?val_int@Item_func_quarter@@UEAA_JXZ 00000001400c8410 f   item_timefunc.obj
 0001:000c7470       ?val_int@Item_func_hour@@UEAA_JXZ 00000001400c8470 f   item_timefunc.obj
 0001:000c74b0       ?val_int@Item_func_minute@@UEAA_JXZ 00000001400c84b0 f   item_timefunc.obj
 0001:000c74f0       ?val_int@Item_func_second@@UEAA_JXZ 00000001400c84f0 f   item_timefunc.obj
 0001:000c7530       ?week_mode@@YAII@Z         00000001400c8530 f   item_timefunc.obj
 0001:000c7550       ?val_int@Item_func_week@@UEAA_JXZ 00000001400c8550 f   item_timefunc.obj
 0001:000c75d0       ?val_int@Item_func_yearweek@@UEAA_JXZ 00000001400c85d0 f   item_timefunc.obj
 0001:000c7660       ?val_int@Item_func_weekday@@UEAA_JXZ 00000001400c8660 f   item_timefunc.obj
 0001:000c76f0       ?fix_length_and_dec@Item_func_dayname@@UEAAXXZ 00000001400c86f0 f   item_timefunc.obj
 0001:000c77a0       ?val_str@Item_func_dayname@@UEAAPEAVString@@PEAV2@@Z 00000001400c87a0 f   item_timefunc.obj
 0001:000c7850       ?val_int@Item_func_year@@UEAA_JXZ 00000001400c8850 f   item_timefunc.obj
 0001:000c7890       ?val_int@Item_func_unix_timestamp@@UEAA_JXZ 00000001400c8890 f   item_timefunc.obj
 0001:000c7a10       ?val_int@Item_func_time_to_sec@@UEAA_JXZ 00000001400c8a10 f   item_timefunc.obj
 0001:000c8010       ?val_str@Item_date@@UEAAPEAVString@@PEAV2@@Z 00000001400c9010 f   item_timefunc.obj
 0001:000c80a0       ?val_int@Item_date@@UEAA_JXZ 00000001400c90a0 f   item_timefunc.obj
 0001:000c80f0       ?get_date@Item_func_from_days@@UEAA_NPEAUst_mysql_time@@I@Z 00000001400c90f0 f   item_timefunc.obj
 0001:000c81a0       ?fix_length_and_dec@Item_func_curdate@@UEAAXXZ 00000001400c91a0 f   item_timefunc.obj
 0001:000c8250       ?val_str@Item_func_curdate@@UEAAPEAVString@@PEAV2@@Z 00000001400c9250 f   item_timefunc.obj
 0001:000c82c0       ?store_now_in_TIME@Item_func_curdate_local@@UEAAXPEAUst_mysql_time@@@Z 00000001400c92c0 f   item_timefunc.obj
 0001:000c8320       ?store_now_in_TIME@Item_func_curdate_utc@@UEAAXPEAUst_mysql_time@@@Z 00000001400c9320 f   item_timefunc.obj
 0001:000c8370       ?get_date@Item_func_curdate@@UEAA_NPEAUst_mysql_time@@I@Z 00000001400c9370 f   item_timefunc.obj
 0001:000c83e0       ?fix_length_and_dec@Item_func_curtime@@UEAAXXZ 00000001400c93e0 f   item_timefunc.obj
 0001:000c8470       ?store_now_in_TIME@Item_func_curtime_local@@UEAAXPEAUst_mysql_time@@@Z 00000001400c9470 f   item_timefunc.obj
 0001:000c84d0       ?store_now_in_TIME@Item_func_curtime_utc@@UEAAXPEAUst_mysql_time@@@Z 00000001400c94d0 f   item_timefunc.obj
 0001:000c8520       ?fix_length_and_dec@Item_func_now@@UEAAXXZ 00000001400c9520 f   item_timefunc.obj
 0001:000c85c0       ?store_now_in_TIME@Item_func_now_local@@UEAAXPEAUst_mysql_time@@@Z 00000001400c95c0 f   item_timefunc.obj
 0001:000c8620       ?store_now_in_TIME@Item_func_now_utc@@UEAAXPEAUst_mysql_time@@@Z 00000001400c9620 f   item_timefunc.obj
 0001:000c8670       ?get_date@Item_func_now@@UEAA_NPEAUst_mysql_time@@I@Z 00000001400c9670 f   item_timefunc.obj
 0001:000c86e0       ?save_in_field@Item_func_now@@UEAAHPEAVField@@_N@Z 00000001400c96e0 f   item_timefunc.obj
 0001:000c8720       ?store_now_in_TIME@Item_func_sysdate_local@@UEAAXPEAUst_mysql_time@@@Z 00000001400c9720 f   item_timefunc.obj
 0001:000c8790       ?val_int@Item_func_sysdate_local@@UEAA_JXZ 00000001400c9790 f   item_timefunc.obj
 0001:000c87c0       ?val_real@Item_func_sysdate_local@@UEAANXZ 00000001400c97c0 f   item_timefunc.obj
 0001:000c8810       ?fix_length_and_dec@Item_func_sysdate_local@@UEAAXXZ 00000001400c9810 f   item_timefunc.obj
 0001:000c8850       ?get_date@Item_func_sysdate_local@@UEAA_NPEAUst_mysql_time@@I@Z 00000001400c9850 f   item_timefunc.obj
 0001:000c88d0       ?save_in_field@Item_func_sysdate_local@@UEAAHPEAVField@@_N@Z 00000001400c98d0 f   item_timefunc.obj
 0001:000c8940       ?val_str@Item_func_sec_to_time@@UEAAPEAVString@@PEAV2@@Z 00000001400c9940 f   item_timefunc.obj
 0001:000c8a10       ?val_int@Item_func_sec_to_time@@UEAA_JXZ 00000001400c9a10 f   item_timefunc.obj
 0001:000c8ab0       ?eq@Item_func_date_format@@UEBA_NPEBVItem@@_N@Z 00000001400c9ab0 f   item_timefunc.obj
 0001:000c8bb0       ?format_length@Item_func_date_format@@QEAAIPEBVString@@@Z 00000001400c9bb0 f   item_timefunc.obj
 0001:000c8cf0       ?val_str@Item_func_date_format@@UEAAPEAVString@@PEAV2@@Z 00000001400c9cf0 f   item_timefunc.obj
 0001:000c8ea0       ?fix_length_and_dec@Item_func_from_unixtime@@UEAAXXZ 00000001400c9ea0 f   item_timefunc.obj
 0001:000c8f20       ?val_str@Item_func_from_unixtime@@UEAAPEAVString@@PEAV2@@Z 00000001400c9f20 f   item_timefunc.obj
 0001:000c8fb0       ?val_int@Item_func_from_unixtime@@UEAA_JXZ 00000001400c9fb0 f   item_timefunc.obj
 0001:000c8ff0       ?get_date@Item_func_from_unixtime@@UEAA_NPEAUst_mysql_time@@I@Z 00000001400c9ff0 f   item_timefunc.obj
 0001:000c9090       ?fix_length_and_dec@Item_func_convert_tz@@UEAAXXZ 00000001400ca090 f   item_timefunc.obj
 0001:000c90d0       ?val_str@Item_func_convert_tz@@UEAAPEAVString@@PEAV2@@Z 00000001400ca0d0 f   item_timefunc.obj
 0001:000c9160       ?val_int@Item_func_convert_tz@@UEAA_JXZ 00000001400ca160 f   item_timefunc.obj
 0001:000c91a0       ?cleanup@Item_func_convert_tz@@UEAAXXZ 00000001400ca1a0 f   item_timefunc.obj
 0001:000c91c0       ?fix_length_and_dec@Item_date_add_interval@@UEAAXXZ 00000001400ca1c0 f   item_timefunc.obj
 0001:000c9290       ?get_date@Item_date_add_interval@@UEAA_NPEAUst_mysql_time@@I@Z 00000001400ca290 f   item_timefunc.obj
 0001:000c9740       ?val_str@Item_date_add_interval@@UEAAPEAVString@@PEAV2@@Z 00000001400ca740 f   item_timefunc.obj
 0001:000c97d0       ?val_int@Item_date_add_interval@@UEAA_JXZ 00000001400ca7d0 f   item_timefunc.obj
 0001:000c9850       ?eq@Item_date_add_interval@@UEBA_NPEBVItem@@_N@Z 00000001400ca850 f   item_timefunc.obj
 0001:000c98d0       ?print@Item_date_add_interval@@UEAAXPEAVString@@@Z 00000001400ca8d0 f   item_timefunc.obj
 0001:000c9a30       ?print@Item_extract@@UEAAXPEAVString@@@Z 00000001400caa30 f   item_timefunc.obj
 0001:000c9b10       ?fix_length_and_dec@Item_extract@@UEAAXXZ 00000001400cab10 f   item_timefunc.obj
 0001:000c9cd0       ?val_int@Item_extract@@UEAA_JXZ 00000001400cacd0 f   item_timefunc.obj
 0001:000ca0d0       ?eq@Item_extract@@UEBA_NPEBVItem@@_N@Z 00000001400cb0d0 f   item_timefunc.obj
 0001:000ca1b0       ?eq@Item_char_typecast@@UEBA_NPEBVItem@@_N@Z 00000001400cb1b0 f   item_timefunc.obj
 0001:000ca2b0       ?print@Item_typecast@@UEAAXPEAVString@@@Z 00000001400cb2b0 f   item_timefunc.obj
 0001:000ca390       ?val_str@Item_char_typecast@@UEAAPEAVString@@PEAV2@@Z 00000001400cb390 f   item_timefunc.obj
 0001:000ca640       ?fix_length_and_dec@Item_char_typecast@@UEAAXXZ 00000001400cb640 f   item_timefunc.obj
 0001:000ca790       ?val_str@Item_datetime_typecast@@UEAAPEAVString@@PEAV2@@Z 00000001400cb790 f   item_timefunc.obj
 0001:000ca820       ?val_int@Item_datetime_typecast@@UEAA_JXZ 00000001400cb820 f   item_timefunc.obj
 0001:000ca880       ?get_time@Item_time_typecast@@UEAA_NPEAUst_mysql_time@@@Z 00000001400cb880 f   item_timefunc.obj
 0001:000ca8e0       ?val_int@Item_time_typecast@@UEAA_JXZ 00000001400cb8e0 f   item_timefunc.obj
 0001:000ca930       ?val_str@Item_time_typecast@@UEAAPEAVString@@PEAV2@@Z 00000001400cb930 f   item_timefunc.obj
 0001:000ca9b0       ?get_date@Item_date_typecast@@UEAA_NPEAUst_mysql_time@@I@Z 00000001400cb9b0 f   item_timefunc.obj
 0001:000caa10       ?get_time@Item_date_typecast@@UEAA_NPEAUst_mysql_time@@@Z 00000001400cba10 f   item_timefunc.obj
 0001:000caa40       ?val_str@Item_date_typecast@@UEAAPEAVString@@PEAV2@@Z 00000001400cba40 f   item_timefunc.obj
 0001:000caae0       ?val_int@Item_date_typecast@@UEAA_JXZ 00000001400cbae0 f   item_timefunc.obj
 0001:000cab40       ?val_str@Item_func_makedate@@UEAAPEAVString@@PEAV2@@Z 00000001400cbb40 f   item_timefunc.obj
 0001:000cac70       ?val_int@Item_func_makedate@@UEAA_JXZ 00000001400cbc70 f   item_timefunc.obj
 0001:000cad60       ?fix_length_and_dec@Item_func_add_time@@UEAAXXZ 00000001400cbd60 f   item_timefunc.obj
 0001:000cade0       ?val_str@Item_func_add_time@@UEAAPEAVString@@PEAV2@@Z 00000001400cbde0 f   item_timefunc.obj
 0001:000cb0c0       ?print@Item_func_add_time@@UEAAXPEAVString@@@Z 00000001400cc0c0 f   item_timefunc.obj
 0001:000cb1f0       ?val_str@Item_func_timediff@@UEAAPEAVString@@PEAV2@@Z 00000001400cc1f0 f   item_timefunc.obj
 0001:000cb390       ?val_str@Item_func_maketime@@UEAAPEAVString@@PEAV2@@Z 00000001400cc390 f   item_timefunc.obj
